 ZIM15_InpSub

 Timestamp is 684aaf13 (Thu Jun 12 19:42:27 2025)

 Preferred load address is 10000000

 Start         Length     Name                   Class
 0001:00000000 00000000H .text                   CODE
 0001:00000000 00000060H .text$di                CODE
 0001:00000060 000b7de0H .text$mn                CODE
 0001:000b7e40 00009990H .text$x                 CODE
 0001:000c17d0 00000125H .text$yd                CODE
 0002:00000000 00000ec8H .idata$5                DATA
 0002:00000ec8 00000004H .00cfg                  DATA
 0002:00000ecc 00000004H .CRT$XCA                DATA
 0002:00000ed0 00000004H .CRT$XCL                DATA
 0002:00000ed4 0000000cH .CRT$XCU                DATA
 0002:00000ee0 00000004H .CRT$XCZ                DATA
 0002:00000ee4 00000004H .CRT$XIA                DATA
 0002:00000ee8 00000004H .CRT$XIC                DATA
 0002:00000eec 00000004H .CRT$XIZ                DATA
 0002:00000ef0 00000004H .CRT$XLA                DATA
 0002:00000ef4 00000004H .CRT$XLZ                DATA
 0002:00000ef8 00000004H .CRT$XPA                DATA
 0002:00000efc 00000004H .CRT$XPZ                DATA
 0002:00000f00 00000004H .CRT$XTA                DATA
 0002:00000f04 0000000cH .CRT$XTZ                DATA
 0002:00000f08 00000000H .gfids$y                DATA
 0002:00000f10 0000d900H .rdata                  DATA
 0002:0000e810 00000018H .rdata$T                DATA
 0002:0000e828 00002858H .rdata$r                DATA
 0002:00011080 00000410H .rdata$zzzdbg           DATA
 0002:00011490 00000004H .rtc$IAA                DATA
 0002:00011494 00000004H .rtc$IZZ                DATA
 0002:00011498 00000004H .rtc$TAA                DATA
 0002:0001149c 00000004H .rtc$TZZ                DATA
 0002:000114a0 00000004H .tls                    DATA
 0002:000114a4 00000004H .tls$                   DATA
 0002:000114a8 00000008H .tls$ZZZ                DATA
 0002:000114b0 00007edcH .xdata$x                DATA
 0002:0001938c 00000000H ATL$__a                 DATA
 0002:0001938c 00000000H ATL$__z                 DATA
 0002:0001938c 00000080H .didat$2                DATA
 0002:0001940c 00000020H .didat$3                DATA
 0002:0001942c 00000044H .didat$4                DATA
 0002:00019470 00000228H .didat$6                DATA
 0002:00019698 00000048H .didat$7                DATA
 0002:000196e0 000066b0H .edata                  DATA
 0002:0001fd90 000002e4H .idata$2                DATA
 0002:00020074 00000014H .idata$3                DATA
 0002:00020088 00000ec8H .idata$4                DATA
 0002:00020f50 00004dd8H .idata$6                DATA
 0003:00000000 00001538H .data                   DATA
 0003:00001538 00000ed4H .data$r                 DATA
 0003:0000240c 00000044H .didat$5                DATA
 0003:00002450 00000aecH .bss                    DATA
 0004:00000000 00000c70H .rsrc$01                DATA
 0004:00000c70 00024140H .rsrc$02                DATA

  Address         Publics by Value              Rva+Base       Lib:Object

 0000:00000000       ___hybrid_code_map_count   00000000     <absolute>
 0000:00000000       ___guard_fids_count        00000000     <absolute>
 0000:00000000       ___guard_fids_table        00000000     <absolute>
 0000:00000000       ___guard_iat_count         00000000     <absolute>
 0000:00000000       ___dynamic_value_reloc_table 00000000     <absolute>
 0000:00000000       ___guard_longjmp_count     00000000     <absolute>
 0000:00000000       ___guard_iat_table         00000000     <absolute>
 0000:00000000       ___guard_longjmp_table     00000000     <absolute>
 0000:00000000       ___hybrid_auxiliary_iat    00000000     <absolute>
 0000:00000000       ___enclave_config          00000000     <absolute>
 0000:00000000       ___safe_se_handler_table   00000000     <absolute>
 0000:00000000       ___volatile_metadata       00000000     <absolute>
 0000:00000000       ___safe_se_handler_count   00000000     <absolute>
 0000:00000000       ___hybrid_code_map         00000000     <absolute>
 0000:0000002c       __tls_array                0000002c     <absolute>
 0000:00000100       ___guard_flags             00000100     <absolute>
 0000:00000000       ___ImageBase               10000000     <linker-defined>
 0001:00000060       ?IsDataBaseUpdated@CBaseDlg@@UAEHXZ 10001060 f i BaseDlg.obj
 0001:00000070       ?set_nextpos@CSyzInpLite@@QAEXXZ 10001070 f i SyzInpSub.obj
 0001:00000070       ?OnSelchangeHsCombo@CHusenDlg@@IAEXXZ 10001070 f i HusenDlg.obj
 0001:00000070       ?LastDataGet@CBaseDlg@@UAEXXZ 10001070 f i BaseDlg.obj
 0001:00000070       ?SetFirstPosition@CTkdicDlg@@UAEXXZ 10001070 f i TkdicDlg.obj
 0001:00000070       ?MyTrace@@YAXPBDZZ         10001070 f i stdafx.obj
 0001:00000070       ?OnSetFocusIcsdbedtctrl3@CEdaRegDlg@@IAEXXZ 10001070 f i EdaRegDlg.obj
 0001:00000070       @_guard_check_icall_nop@4  10001070 f i msvcrt:guard_support.obj
 0001:00000070       ?SetFocusIcsdbedtKezan@CEdaRegDlg@@QAEXXZ 10001070 f i EdaRegDlg.obj
 0001:00000070       ?OnEnSetfocusEdit1@CHjiyuDlg@@QAEXXZ 10001070 f i HjiyuDlg.obj
 0001:00000070       ?AssertValid@CObject@@UBEXXZ 10001070 f i BaseDlg.obj
 0001:00000070       ?OnSetFocusIcsdbedtctrl2@CEdaRegDlg@@IAEXXZ 10001070 f i EdaRegDlg.obj
 0001:00000080       ?MeasureItem@CHusenCombo@@UAEXPAUtagMEASUREITEMSTRUCT@@@Z 10001080 f i HusenCombo.obj
 0001:00000080       ?Dump@CObject@@UBEXAAVCDumpContext@@@Z 10001080 f i BaseDlg.obj
 0001:00000080       ?KanaTerminationIcsdbedtctrl1@CTkswkDlg@@QAEXPBD@Z 10001080 f i TkswkDlg.obj
 0001:00000080       ?Serialize@CObject@@UAEXAAVCArchive@@@Z 10001080 f i BaseDlg.obj
 0001:00000080       ?ChangeJob@CDnpBaseDlg@@UAEXH@Z 10001080 f i DnpBaseDlg.obj
 0001:00000080       ?FocusMove@CTkdicDlg@@UAEXH@Z 10001080 f i TkdicDlg.obj
 0001:00000080       ?AutoSiwake@CDnpBaseDlg@@UAEXH@Z 10001080 f i DnpBaseDlg.obj
 0001:00000080       ?DispLineInfo@CDnpBaseDlg@@UAEXH@Z 10001080 f i DnpBaseDlg.obj
 0001:00000080       ?AddTekiyoJob@CBaseDlg@@UAEXJ@Z 10001080 f i BaseDlg.obj
 0001:00000080       ?DoDataExchange@CWnd@@MAEXPAVCDataExchange@@@Z 10001080 f i CSkbnLiteDlg.obj
 0001:00000080       ?MeasureItem@CHusenComboEX@@UAEXPAUtagMEASUREITEMSTRUCT@@@Z 10001080 f i HusenCombo.obj
 0001:00000080       ?OnKillFocusIcsdbedtctrl3@CEdaRegDlg@@IAEXJ@Z 10001080 f i EdaRegDlg.obj
 0001:00000090       ??1CBaseDlg@@UAE@XZ        10001090 f i BaseDlg.obj
 0001:000000a0       ?GetThisMessageMap@CBaseDlg@@KGPBUAFX_MSGMAP@@XZ 100010a0 f   BaseDlg.obj
 0001:00000100       ?PostNcDestroy@CHjiyuDlg@@MAEXXZ 10001100 f   HjiyuDlg.obj
 0001:00000100       ?PostNcDestroy@CBaseDlg@@MAEXXZ 10001100 f   BaseDlg.obj
 0001:00000100       ?PostNcDestroy@CNSDenpDlg@@MAEXXZ 10001100 f   NSDenpDlg.obj
 0001:00000100       ?PostNcDestroy@CDnpBaseDlg@@MAEXXZ 10001100 f   DnpBaseDlg.obj
 0001:00000100       ?PostNcDestroy@CHusenDlg@@MAEXXZ 10001100 f   HusenDlg.obj
 0001:00000100       ?PostNcDestroy@CFuriDlg@@MAEXXZ 10001100 f   FuriDlg.obj
 0001:00000110       ?WndShow_Add@CBaseDlg@@UAEXH@Z 10001110 f   BaseDlg.obj
 0001:00000110       ?WndShow_Add@CTkkmkDlg@@UAEXH@Z 10001110 f   TkkmkDlg.obj
 0001:00000120       ?PreTranslateMessage@CBaseDlg@@UAEHPAUtagMSG@@@Z 10001120 f   BaseDlg.obj
 0001:00000200       ?OnUser1_Msg@CBaseDlg@@IAEJIJ@Z 10001200 f   BaseDlg.obj
 0001:00000210       ?EndModalState@CWnd@@UAEXXZ 10001210 f i BaseDlg.obj
 0001:00000220       ?BeginModalState@CWnd@@UAEXXZ 10001220 f i BaseDlg.obj
 0001:00000230       ?Create@CDialog@@UAEHIPAVCWnd@@@Z 10001230 f i BaseDlg.obj
 0001:00000250       ??3CObject@@SGXPAX@Z       10001250 f i BaseDlg.obj
 0001:00000260       ??0CBmnHaniCheck@@QAE@ABV0@@Z 10001260 f i BmnChk.obj
 0001:000002a0       ??4CBmnHaniCheck@@QAEAAV0@ABV0@@Z 100012a0 f i BmnChk.obj
 0001:000002a0       ??4CKojiDataCheck@@QAEAAV0@ABV0@@Z 100012a0 f i BmnChk.obj
 0001:000002e0       ??_ECBmnHaniCheck@@UAEPAXI@Z 100012e0 f i BmnChk.obj
 0001:00000390       ??0CKojiDataCheck@@QAE@ABV0@@Z 10001390 f i BmnChk.obj
 0001:000003d0       ??_ECKojiDataCheck@@UAEPAXI@Z 100013d0 f i BmnChk.obj
 0001:00000490       ??_ECBmnChkSub@@UAEPAXI@Z  10001490 f i * CIL library *:* CIL module *
 0001:00000490       ??_GCBmnChkSub@@UAEPAXI@Z  10001490 f i BmnChk.obj
 0001:000004e0       ?BmnAddJob@CBmnChkSub@@IAEXXZ 100014e0 f   BmnChk.obj
 0001:000005f0       ?BmnHaniCheck@CBmnChkSub@@QAEHHK@Z 100015f0 f   BmnChk.obj
 0001:00000840       ??0CBmnHaniCheck@@QAE@XZ   10001840 f   BmnChk.obj
 0001:00000850       ??1CBmnHaniCheck@@UAE@XZ   10001850 f   BmnChk.obj
 0001:00000870       ?SetDBZmSub@CBmnHaniCheck@@QAEHPAVCDBZmSub@@@Z 10001870 f   BmnChk.obj
 0001:00000900       ?BmnCheckInit@CBmnHaniCheck@@QAEHXZ 10001900 f   BmnChk.obj
 0001:00000970       ?BmnCheckUpdate@CBmnHaniCheck@@QAEHXZ 10001970 f   BmnChk.obj
 0001:000009e0       ?BmnHaniCheck@CBmnHaniCheck@@QAEHHK@Z 100019e0 f   BmnChk.obj
 0001:00000a00       ?BmnHaniCheck@CBmnHaniCheck@@QAEHHV?$CStringT@DV?$StrTraitMFC_DLL@DV?$ChTraitsCRT@D@ATL@@@@@ATL@@@Z 10001a00 f   BmnChk.obj
 0001:00000aa0       ??_ECKojiChkSub@@UAEPAXI@Z 10001aa0 f i * CIL library *:* CIL module *
 0001:00000aa0       ??_GCKojiChkSub@@UAEPAXI@Z 10001aa0 f i BmnChk.obj
 0001:00000af0       ?KojiKmkCheck@CKojiChkSub@@QAEHK@Z 10001af0 f   BmnChk.obj
 0001:00000b40       ?make_kjarray@CKojiChkSub@@IAEXXZ 10001b40 f   BmnChk.obj
 0001:00000f20       ??1CKJVOL@@UAE@XZ          10001f20 f i BmnChk.obj
 0001:00001010       ??0CKojiDataCheck@@QAE@XZ  10002010 f   BmnChk.obj
 0001:00001020       ??1CKojiDataCheck@@UAE@XZ  10002020 f   BmnChk.obj
 0001:00001040       ?SetDBZmSub@CKojiDataCheck@@QAEHPAVCDBZmSub@@@Z 10002040 f   BmnChk.obj
 0001:000010c0       ?KojiCheckInit@CKojiDataCheck@@QAEHXZ 100020c0 f   BmnChk.obj
 0001:000010c0       ?KojiCheckUpdate@CKojiDataCheck@@QAEHXZ 100020c0 f   BmnChk.obj
 0001:00001110       ?KojiKmkCheck@CKojiDataCheck@@QAEHK@Z 10002110 f   BmnChk.obj
 0001:00001130       ?KojiKmkCheck@CKojiDataCheck@@QAEHV?$CStringT@DV?$StrTraitMFC_DLL@DV?$ChTraitsCRT@D@ATL@@@@@ATL@@@Z 10002130 f   BmnChk.obj
 0001:000011c0       ?Serialize@?$CArray@U_DBTKREC@@AAU1@@@UAEXAAVCArchive@@@Z 100021c0 f i select_sub.obj
 0001:000011c0       ?Serialize@?$CArray@U_BMN_CHK@@AAU1@@@UAEXAAVCArchive@@@Z 100021c0 f i BmnChk.obj
 0001:000012a0       ?Serialize@?$CArray@U_KOJI_CHK@@AAU1@@@UAEXAAVCArchive@@@Z 100022a0 f i BmnChk.obj
 0001:00001380       ??_E?$CArray@U_BMN_CHK@@AAU1@@@UAEPAXI@Z 10002380 f i * CIL library *:* CIL module *
 0001:00001380       ??_G?$CArray@U_BMN_CHK@@AAU1@@@UAEPAXI@Z 10002380 f i BmnChk.obj
 0001:000013d0       ??_E?$CArray@U_KOJI_CHK@@AAU1@@@UAEPAXI@Z 100023d0 f i * CIL library *:* CIL module *
 0001:000013d0       ??_G?$CArray@U_KOJI_CHK@@AAU1@@@UAEPAXI@Z 100023d0 f i BmnChk.obj
 0001:00001420       ?SetSize@?$CArray@U_DBTKREC@@AAU1@@@QAEXHH@Z 10002420 f i select_sub.obj
 0001:00001420       ?SetSize@?$CArray@U_BMN_CHK@@AAU1@@@QAEXHH@Z 10002420 f i BmnChk.obj
 0001:000015a0       ?SetSize@?$CArray@U_KOJI_CHK@@AAU1@@@QAEXHH@Z 100025a0 f i BmnChk.obj
 0001:000016f0       ?memcpy_s@Checked@ATL@@YAXPAXIPBXI@Z 100026f0 f i BmnChk.obj
 0001:000017b0       ?AfxCrtErrorCheck@@YAHH@Z  100027b0 f i BmnChk.obj
 0001:00001840       ??1AFX_EXCEPTION_LINK@@QAE@XZ 10002840 f i BmnChk.obj
 0001:00001880       ?ezquery_flag@@YAAAHXZ     10002880 f   BrnTky.obj
 0001:00001890       ?ezdb_init@@YAXPAVCDBZmSub@@@Z 10002890 f   BrnTky.obj
 0001:000019f0       ??_GCBrnTkySub@@UAEPAXI@Z  100029f0 f i BrnTky.obj
 0001:000019f0       ??_ECBrnTkySub@@UAEPAXI@Z  100029f0 f i * CIL library *:* CIL module *
 0001:00001ab0       ??1tag_BRN_REC@@QAE@XZ     10002ab0 f i BrnTky.obj
 0001:00001ad0       ?tbl_free2@CBrnTkySub@@QAEXPAUtag_BRN_TB@@@Z 10002ad0 f   BrnTky.obj
 0001:00001b70       ?tbl_realoc@CBrnTkySub@@QAEHPAUtag_BRN_TB@@JJ@Z 10002b70 f   BrnTky.obj
 0001:00001c70       ??0tag_BRN_REC@@QAE@XZ     10002c70 f i BrnTky.obj
 0001:00001c90       ?_get_brtekmsg@CBrnTkySub@@QAEPAUtag_BRN_NAME@@HAAV?$CStringT@DV?$StrTraitMFC_DLL@DV?$ChTraitsCRT@D@ATL@@@@@ATL@@HHH@Z 10002c90 f   BrnTky.obj
 0001:00002000       ?_get_brtek@CBrnTkySub@@QAEHPAUtag_BRN_REC@@HAAV?$CStringT@DV?$StrTraitMFC_DLL@DV?$ChTraitsCRT@D@ATL@@@@@ATL@@H@Z 10003000 f   BrnTky.obj
 0001:00002100       ?_get_brtektb@CBrnTkySub@@QAEHPAPAUtag_BRN_TB@@HAAV?$CStringT@DV?$StrTraitMFC_DLL@DV?$ChTraitsCRT@D@ATL@@@@@ATL@@1HHHH@Z 10003100 f   BrnTky.obj
 0001:00002300       ?DB_EdabanMasterSearch@CBrnTkySub@@IAEHHAAV?$CStringT@DV?$StrTraitMFC_DLL@DV?$ChTraitsCRT@D@ATL@@@@@ATL@@H@Z 10003300 f   BrnTky.obj
 0001:000023e0       ?mk_brtektb@CBrnTkySub@@IAEPAUtag_BRN_TB@@HAAV?$CStringT@DV?$StrTraitMFC_DLL@DV?$ChTraitsCRT@D@ATL@@@@@ATL@@0H@Z 100033e0 f   BrnTky.obj
 0001:000030d0       ?BrnKanaCheck@CBrnTkySub@@IAEHAAV?$CStringT@DV?$StrTraitMFC_DLL@DV?$ChTraitsCRT@D@ATL@@@@@ATL@@0@Z 100040d0 f   BrnTky.obj
 0001:000031d0       ?DB_TekiyoNoRead@CBrnTkySub@@IAEHPAUtag_BRN_REC@@H@Z 100041d0 f   BrnTky.obj
 0001:000032a0       ?make_nameformat@CBrnTkySub@@IAEXPADHPBD@Z 100042a0 f   BrnTky.obj
 0001:00003340       ??0CBrnTky@@QAE@XZ         10004340 f   BrnTky.obj
 0001:00003350       ??1CBrnTky@@UAE@XZ         10004350 f   BrnTky.obj
 0001:00003370       ?get_brtekmsg@CBrnTky@@QAEPAUtag_BRN_NAME@@HAAV?$CStringT@DV?$StrTraitMFC_DLL@DV?$ChTraitsCRT@D@ATL@@@@@ATL@@HHH@Z 10004370 f   BrnTky.obj
 0001:00003390       ?get_brtek@CBrnTky@@QAEHPAUtag_BRN_REC@@HAAV?$CStringT@DV?$StrTraitMFC_DLL@DV?$ChTraitsCRT@D@ATL@@@@@ATL@@H@Z 10004390 f   BrnTky.obj
 0001:000033a0       ?get_brtek@CBrnTky@@QAEHHAAV?$CStringT@DV?$StrTraitMFC_DLL@DV?$ChTraitsCRT@D@ATL@@@@@ATL@@H@Z 100043a0 f   BrnTky.obj
 0001:00003460       ?get_brtektb@CBrnTky@@QAEHPAPAUtag_BRN_TB@@HAAV?$CStringT@DV?$StrTraitMFC_DLL@DV?$ChTraitsCRT@D@ATL@@@@@ATL@@1HHHH@Z 10004460 f   BrnTky.obj
 0001:00003470       ?brntky_iniz@CBrnTky@@QAEHPAVCDBZmSub@@@Z 10004470 f   BrnTky.obj
 0001:000036a0       ?brntky_close@CBrnTky@@QAEXXZ 100046a0 f   BrnTky.obj
 0001:000036b0       ?brtek_free@CBrnTky@@QAEHXZ 100046b0 f   BrnTky.obj
 0001:000036e0       ?brntky_kmcode@CBrnTky@@QAEXH@Z 100046e0 f   BrnTky.obj
 0001:00003720       ?set_tkquery@CBrnTky@@QAEXH@Z 10004720 f   BrnTky.obj
 0001:00003740       ?set_brnKanaJun@CBrnTky@@QAEXH@Z 10004740 f   BrnTky.obj
 0001:00003760       ??8ATL@@YA_NABV?$CStringT@DV?$StrTraitMFC_DLL@DV?$ChTraitsCRT@D@ATL@@@@@0@0@Z 10004760 f i BrnTky.obj
 0001:00003780       ??_ECBrnTky@@UAEPAXI@Z     10004780 f i BrnTky.obj
 0001:00003830       ??1CWaitCursor@@QAE@XZ     10004830 f i BrnTky.obj
 0001:00003950       ___local_stdio_printf_options 10004950 f i BrnTky.obj
 0001:00003960       __vsprintf_s_l             10004960 f i BrnTky.obj
 0001:00003990       _sprintf_s                 10004990 f i BrnTky.obj
 0001:000039b0       ?_GetBaseClass@CSkbnLiteDlg@@KGPAUCRuntimeClass@@XZ 100049b0 f   CSkbnLiteDlg.obj
 0001:000039c0       ?GetRuntimeClass@CSkbnLiteDlg@@UBEPAUCRuntimeClass@@XZ 100049c0 f   CSkbnLiteDlg.obj
 0001:000039d0       ??0CSkbnLiteDlg@@QAE@PAVCWnd@@HH_N11H@Z 100049d0 f   CSkbnLiteDlg.obj
 0001:00003cb0       ??_ECSkbnLiteDlg@@UAEPAXI@Z 10004cb0 f i * CIL library *:* CIL module *
 0001:00003cb0       ??_GCSkbnLiteDlg@@UAEPAXI@Z 10004cb0 f i CSkbnLiteDlg.obj
 0001:00003db0       ??1CICSSel@@UAE@XZ         10004db0 f i CSkbnLiteDlg.obj
 0001:00003db0       ??1CIcsdiag8ctrl@@UAE@XZ   10004db0 f i FuriDlg.obj
 0001:00003db0       ??1CICSDisp@@UAE@XZ        10004db0 f i FuriDlg.obj
 0001:00003db0       ??1CICSDBEDT@@UAE@XZ       10004db0 f i CSkbnLiteDlg.obj
 0001:00003db0       ??1CICSListInp@@UAE@XZ     10004db0 f i icslistinp.obj
 0001:00003dc0       ??_GCICSDisp@@UAEPAXI@Z    10004dc0 f i FuriDlg.obj
 0001:00003dc0       ??_ECICSDisp@@UAEPAXI@Z    10004dc0 f i * CIL library *:* CIL module *
 0001:00003dc0       ??_GCICSListInp@@UAEPAXI@Z 10004dc0 f i icslistinp.obj
 0001:00003dc0       ??_GCICSSel@@UAEPAXI@Z     10004dc0 f i CSkbnLiteDlg.obj
 0001:00003dc0       ??_ECIcsdiag8ctrl@@UAEPAXI@Z 10004dc0 f i * CIL library *:* CIL module *
 0001:00003dc0       ??_ECICSSel@@UAEPAXI@Z     10004dc0 f i * CIL library *:* CIL module *
 0001:00003dc0       ??_ECICSListInp@@UAEPAXI@Z 10004dc0 f i * CIL library *:* CIL module *
 0001:00003dc0       ??_GCIcsdiag8ctrl@@UAEPAXI@Z 10004dc0 f i FuriDlg.obj
 0001:00003dc0       ??_GCICSDBEDT@@UAEPAXI@Z   10004dc0 f i CSkbnLiteDlg.obj
 0001:00003dc0       ??_ECICSDBEDT@@UAEPAXI@Z   10004dc0 f i * CIL library *:* CIL module *
 0001:00003e00       ?DoDataExchange@CSkbnLiteDlg@@MAEXPAVCDataExchange@@@Z 10004e00 f   CSkbnLiteDlg.obj
 0001:00003e90       ?GetMessageMap@CSkbnLiteDlg@@MBEPBUAFX_MSGMAP@@XZ 10004e90 f   CSkbnLiteDlg.obj
 0001:00003ef0       ?OnInitDialog@CSkbnLiteDlg@@MAEHXZ 10004ef0 f   CSkbnLiteDlg.obj
 0001:00004220       ?PostNcDestroy@CSkbnIn@@MAEXXZ 10005220 f   SkbnIn.obj
 0001:00004220       ?PostNcDestroy@CSkbnLiteDlg@@MAEXXZ 10005220 f   CSkbnLiteDlg.obj
 0001:00004240       ?GetEventSinkMap@CSkbnLiteDlg@@MBEPBUAFX_EVENTSINKMAP@@XZ 10005240 f   CSkbnLiteDlg.obj
 0001:00004250       ?OnSelectedIcsselctrl@CSkbnLiteDlg@@IAEXFJ@Z 10005250 f   CSkbnLiteDlg.obj
 0001:00004260       ?RetroFocus@CSkbnLiteDlg@@IAEJIJ@Z 10005260 f   CSkbnLiteDlg.obj
 0001:000042c0       ?OnSetFocusIcsdbedtctrl@CSkbnLiteDlg@@IAEXI@Z 100052c0 f   CSkbnLiteDlg.obj
 0001:000043e0       ?OnKillFocusIcsdbedtctrl@CSkbnLiteDlg@@IAEXIJ@Z 100053e0 f   CSkbnLiteDlg.obj
 0001:00004500       ?OnTerminationIcsdbedtctrl@CSkbnLiteDlg@@IAEXIJJJ@Z 10005500 f   CSkbnLiteDlg.obj
 0001:00004590       ?OnTerminationDBEdt2@CSkbnLiteDlg@@IAEHJJJ@Z 10005590 f   CSkbnLiteDlg.obj
 0001:000048c0       ?OnTerminationDBEdt3@CSkbnLiteDlg@@IAEHJJJ@Z 100058c0 f   CSkbnLiteDlg.obj
 0001:00004bc0       ?getINP_CTL@CSkbnLiteDlg@@QAEPAU_InpCtl@@H@Z 10005bc0 f   CSkbnLiteDlg.obj
 0001:00004c00       ?sydata_set@CSkbnLiteDlg@@QAEHPAH@Z 10005c00 f   CSkbnLiteDlg.obj
 0001:000055e0       ?kbn_select_make@CSkbnLiteDlg@@IAEXPAU_SY_MSG_TBL@@H@Z 100065e0 f   CSkbnLiteDlg.obj
 0001:00005920       ?DispSyzIchiran@CSkbnLiteDlg@@IAEXHPAV?$CStringT@DV?$StrTraitMFC_DLL@DV?$ChTraitsCRT@D@ATL@@@@@ATL@@@Z 10006920 f   CSkbnLiteDlg.obj
 0001:00005a90       ??1KJICHK@@QAE@XZ          10006a90 f i select_sub.obj
 0001:00005a90       ??1?$pair@V?$CStringT@DV?$StrTraitMFC_DLL@DV?$ChTraitsCRT@D@ATL@@@@@ATL@@H@std@@QAE@XZ 10006a90 f i DnpBaseClass.obj
 0001:00005a90       ??1_SelTable@@QAE@XZ       10006a90 f i CSkbnLiteDlg.obj
 0001:00005aa0       ??0_SelTable@@QAE@XZ       10006aa0 f i CSkbnLiteDlg.obj
 0001:00005ab0       ?SetSkbnSelNo@CSkbnLiteDlg@@QAEHH@Z 10006ab0 f   CSkbnLiteDlg.obj
 0001:00006150       ?set_focus@CSkbnIn@@IAEXH@Z 10007150 f   SkbnIn.obj
 0001:00006150       ?set_focus@CSkbnLiteDlg@@IAEXH@Z 10007150 f   CSkbnLiteDlg.obj
 0001:00006170       ?get_nextpn@CSkbnLiteDlg@@QAEHHH@Z 10007170 f   CSkbnLiteDlg.obj
 0001:000061f0       ?get_prevpn@CSkbnLiteDlg@@QAEHH@Z 100071f0 f   CSkbnLiteDlg.obj
 0001:00006260       ?to_parent@CSkbnLiteDlg@@QAEXPAVCWnd@@J@Z 10007260 f   CSkbnLiteDlg.obj
 0001:00006280       ?PreTranslateMessage@CSkbnLiteDlg@@MAEHPAUtagMSG@@@Z 10007280 f   CSkbnLiteDlg.obj
 0001:000065d0       ?MoveInvCtrl@CSkbnLiteDlg@@AAEXXZ 100075d0 f   CSkbnLiteDlg.obj
 0001:00006770       ?OnTerminationDBEdtInv@CSkbnLiteDlg@@IAEHJJJ@Z 10007770 f   CSkbnLiteDlg.obj
 0001:00006e00       ?SetMenzeiCheck@CSkbnLiteDlg@@AAEXXZ 10007e00 f   CSkbnLiteDlg.obj
 0001:00006e40       ?OnBnClickedMenzei@CSkbnLiteDlg@@QAEXXZ 10007e40 f   CSkbnLiteDlg.obj
 0001:00006e50       ?MenCheckButtonJob@CSkbnLiteDlg@@QAEXJ@Z 10007e50 f   CSkbnLiteDlg.obj
 0001:00006fa0       ?MenWariDBEdit@CSkbnLiteDlg@@QAEXH@Z 10007fa0 f   CSkbnLiteDlg.obj
 0001:00007140       ?OnTerminationDBEdtMen@CSkbnLiteDlg@@QAEHJJJ@Z 10008140 f   CSkbnLiteDlg.obj
 0001:000073b0       ?OnSetfocusCheckMenzei@CSkbnLiteDlg@@QAEXXZ 100083b0 f   CSkbnLiteDlg.obj
 0001:000073e0       ?OnCtlColor@CSkbnLiteDlg@@QAEPAUHBRUSH__@@PAVCDC@@PAVCWnd@@I@Z 100083e0 f   CSkbnLiteDlg.obj
 0001:000073e0       ?OnCtlColor@CSkbnIn@@QAEPAUHBRUSH__@@PAVCDC@@PAVCWnd@@I@Z 100083e0 f   SkbnIn.obj
 0001:000073f0       ?ImeEndCompositionIcsdbedtctrl@CSkbnLiteDlg@@QAEXIFPBD0@Z 100083f0 f   CSkbnLiteDlg.obj
 0001:00007560       ?OnMyMessage@CSkbnLiteDlg@@QAEJIJ@Z 10008560 f   CSkbnLiteDlg.obj
 0001:00007730       ?GetAt@?$CArray@U_INVOICE_INFO@@ABU1@@@QAEAAU_INVOICE_INFO@@H@Z 10008730 f i CSkbnLiteDlg.obj
 0001:00007750       ??_ECSkbnLiteDlg@@WKI@AEPAXI@Z 10008750 f i CSkbnLiteDlg.obj
 0001:00007760       ?Create@CICSDBEDT@@UAEHPBD0KABUtagRECT@@PAVCWnd@@IPAUCCreateContext@@@Z 10008760 f i CSkbnLiteDlg.obj
 0001:00007790       ?Create@CICSSel@@UAEHPBD0KABUtagRECT@@PAVCWnd@@IPAUCCreateContext@@@Z 10008790 f i CSkbnLiteDlg.obj
 0001:000077c0       ??ACByteArray@@QAEAAEH@Z   100087c0 f i CSkbnLiteDlg.obj
 0001:000077e0       ??_GCButton@@UAEPAXI@Z     100087e0 f i CSkbnLiteDlg.obj
 0001:000077e0       ??_ECButton@@UAEPAXI@Z     100087e0 f i * CIL library *:* CIL module *
 0001:00007820       ??1CBrush@@UAE@XZ          10008820 f i CSkbnLiteDlg.obj
 0001:00007830       ??_GCGdiObject@@UAEPAXI@Z  10008830 f i CSkbnLiteDlg.obj
 0001:00007830       ??_ECGdiObject@@UAEPAXI@Z  10008830 f i * CIL library *:* CIL module *
 0001:00007870       ??1CGdiObject@@UAE@XZ      10008870 f i CSkbnLiteDlg.obj
 0001:00007980       ??_GCBrush@@UAEPAXI@Z      10008980 f i CSkbnLiteDlg.obj
 0001:00007980       ??_ECBrush@@UAEPAXI@Z      10008980 f i * CIL library *:* CIL module *
 0001:000079c0       ?_GetBaseClass@CKJKKIrecord@@KGPAUCRuntimeClass@@XZ 100089c0 f   KJKKI.obj
 0001:000079c0       ?_GetBaseClass@CStRecordSet@@KGPAUCRuntimeClass@@XZ 100089c0 f   CStRecordSet.obj
 0001:000079c0       ?_GetBaseClass@CKJVOL@@KGPAUCRuntimeClass@@XZ 100089c0 f   KJVOL.obj
 0001:000079d0       ?GetRuntimeClass@CStRecordSet@@UBEPAUCRuntimeClass@@XZ 100089d0 f   CStRecordSet.obj
 0001:000079e0       ??0CStRecordSet@@QAE@PAVCDatabase@@@Z 100089e0 f   CStRecordSet.obj
 0001:00007a30       ??_ECStRecordSet@@UAEPAXI@Z 10008a30 f i * CIL library *:* CIL module *
 0001:00007a30       ??_GCStRecordSet@@UAEPAXI@Z 10008a30 f i CStRecordSet.obj
 0001:00007a80       ??1CStRecordSet@@UAE@XZ    10008a80 f i CStRecordSet.obj
 0001:00007aa0       ?GetDefaultConnect@CStRecordSet@@UAE?AV?$CStringT@DV?$StrTraitMFC_DLL@DV?$ChTraitsCRT@D@ATL@@@@@ATL@@XZ 10008aa0 f   CStRecordSet.obj
 0001:00007aa0       ?GetDefaultConnect@CKJVOL@@UAE?AV?$CStringT@DV?$StrTraitMFC_DLL@DV?$ChTraitsCRT@D@ATL@@@@@ATL@@XZ 10008aa0 f   KJVOL.obj
 0001:00007aa0       ?GetDefaultConnect@CKJKKIrecord@@UAE?AV?$CStringT@DV?$StrTraitMFC_DLL@DV?$ChTraitsCRT@D@ATL@@@@@ATL@@XZ 10008aa0 f   KJKKI.obj
 0001:00007ac0       ?GetDefaultSQL@CStRecordSet@@UAE?AV?$CStringT@DV?$StrTraitMFC_DLL@DV?$ChTraitsCRT@D@ATL@@@@@ATL@@XZ 10008ac0 f   CStRecordSet.obj
 0001:00007b30       ?DoFieldExchange@CStRecordSet@@UAEXPAVCFieldExchange@@@Z 10008b30 f   CStRecordSet.obj
 0001:00007b60       ?ThrowDBException@CRecordset@@UAEXFPAX@Z 10008b60 f i CStRecordSet.obj
 0001:00007b80       ??_GICSReportColumn@@UAEPAXI@Z 10008b80 f i CTkyDelRepoDlg.obj
 0001:00007b80       ??_EICSReportColumn@@UAEPAXI@Z 10008b80 f i * CIL library *:* CIL module *
 0001:00007bc0       ??_EICSReportRecord@@UAEPAXI@Z 10008bc0 f i * CIL library *:* CIL module *
 0001:00007bc0       ??_GICSReportRecord@@UAEPAXI@Z 10008bc0 f i CTkyDelRepoDlg.obj
 0001:00007c00       ??_EICSReportRecordItemText@@UAEPAXI@Z 10008c00 f i * CIL library *:* CIL module *
 0001:00007c00       ??_GICSReportRecordItemText@@UAEPAXI@Z 10008c00 f i CTkyDelRepoDlg.obj
 0001:00007c40       ??_ECSWKDSubW@@UAEPAXI@Z   10008c40 f i * CIL library *:* CIL module *
 0001:00007c40       ??_GCSWKDSubW@@UAEPAXI@Z   10008c40 f i CSWKDataSub.obj
 0001:00007c70       ??0CSWKDataSub@@QAE@XZ     10008c70 f   CSWKDataSub.obj
 0001:00007d10       ??1CSWKDataSub@@UAE@XZ     10008d10 f   CSWKDataSub.obj
 0001:00007d30       ?SWKDIniz@CSWKDataSub@@QAEHPAVCDBZmSub@@PAVCDBSyohi@@PAVCWnd@@@Z 10008d30 f   CSWKDataSub.obj
 0001:00007e30       ?SWKDClose@CSWKDataSub@@QAEHXZ 10008e30 f   CSWKDataSub.obj
 0001:00007e50       ?km_syattr@CSWKDataSub@@QAEHPAU_DBKNREC@@@Z 10008e50 f   CSWKDataSub.obj
 0001:00007e60       ?km_syattr@CSWKDataSub@@QAEHAAV?$CStringT@DV?$StrTraitMFC_DLL@DV?$ChTraitsCRT@D@ATL@@@@@ATL@@@Z 10008e60 f   CSWKDataSub.obj
 0001:00007e70       ?km_yusyutsu@CSWKDataSub@@QAEHPAU_DBKNREC@@@Z 10008e70 f   CSWKDataSub.obj
 0001:00007e90       ?km_yusyutsu@CSWKDataSub@@QAEHAAV?$CStringT@DV?$StrTraitMFC_DLL@DV?$ChTraitsCRT@D@ATL@@@@@ATL@@@Z 10008e90 f   CSWKDataSub.obj
 0001:00007ea0       ?km_zeikbn@CSWKDataSub@@QAEHPAU_DBKNREC@@@Z 10008ea0 f   CSWKDataSub.obj
 0001:00007f20       ?km_zeikbn@CSWKDataSub@@QAEHAAV?$CStringT@DV?$StrTraitMFC_DLL@DV?$ChTraitsCRT@D@ATL@@@@@ATL@@@Z 10008f20 f   CSWKDataSub.obj
 0001:00008010       ?GetCData@CSWKDataSub@@QAEXPAVCDBipDataRec@@@Z 10009010 f   CSWKDataSub.obj
 0001:00008020       ?GetCData@CSWKDataSub@@QAEXPAVCDBINPDataRec@@@Z 10009020 f   CSWKDataSub.obj
 0001:00008030       ?SetCDBData@CSWKDataSub@@QAEXPAVCDBipDataRec@@@Z 10009030 f   CSWKDataSub.obj
 0001:00008040       ?SetCDBData@CSWKDataSub@@QAEXPAVCDBINPDataRec@@@Z 10009040 f   CSWKDataSub.obj
 0001:00008050       ?GetCDBData@CSWKDataSub@@QAEXPAVCDBipDataRec@@PAVCDBDATA@@@Z 10009050 f   CSWKDataSub.obj
 0001:00008060       ?GetCDBData@CSWKDataSub@@QAEXPAVCDBINPDataRec@@PAVCDBDATA@@@Z 10009060 f   CSWKDataSub.obj
 0001:00008070       ?DB_DataCorrect@CSWKDataSub@@QAEHPAVCDBipDataRec@@@Z 10009070 f   CSWKDataSub.obj
 0001:00008100       ?DB_DataCorrect@CSWKDataSub@@QAEHPAVCDBINPDataRec@@@Z 10009100 f   CSWKDataSub.obj
 0001:00008110       ?IsHjiyuItemGyosyu@CSWKDataSub@@QAEHXZ 10009110 f   CSWKDataSub.obj
 0001:00008120       ?DB_SyIniz@CSWKDataSub@@QAEHPAVCDBipDataRec@@@Z 10009120 f   CSWKDataSub.obj
 0001:00008200       ?DB_SyIniz@CSWKDataSub@@QAEHPAVCDBINPDataRec@@@Z 10009200 f   CSWKDataSub.obj
 0001:00008210       ?sy_chk_txt@CSWKDataSub@@QAEPBDPAVCDBipDataRec@@PAU_SY_MSG_PACK2@@@Z 10009210 f   CSWKDataSub.obj
 0001:00008400       ?sy_chk_txt@CSWKDataSub@@QAEPBDPAVCDBINPDataRec@@PAU_SY_MSG_PACK2@@@Z 10009400 f   CSWKDataSub.obj
 0001:000084a0       ?systr_adj@CSWKDataSub@@QAEXAAV?$CStringT@DV?$StrTraitMFC_DLL@DV?$ChTraitsCRT@D@ATL@@@@@ATL@@@Z 100094a0 f   CSWKDataSub.obj
 0001:00008630       ?SyzeiMasterType@CSWKDataSub@@QAEHXZ 10009630 f   CSWKDataSub.obj
 0001:00008670       ?brchk1@CSWKDataSub@@QAEHPAVCDBipDataRec@@H@Z 10009670 f   CSWKDataSub.obj
 0001:00008770       ?brchk1@CSWKDataSub@@QAEHPAVCDBINPDataRec@@H@Z 10009770 f   CSWKDataSub.obj
 0001:000087d0       ?del_dtaeda@CSWKDataSub@@QAEXPAVCDBINPDataRec@@H@Z 100097d0 f   CSWKDataSub.obj
 0001:000087d0       ?del_dtaeda@CDInputSub@@QAEXPAVCDBipDataRec@@H@Z 100097d0 f   DInputSub.obj
 0001:000087d0       ?del_dtaeda@CDInputSub@@QAEXPAVCDBINPDataRec@@H@Z 100097d0 f   DInputSub.obj
 0001:000087d0       ?del_dtaeda@CSWKDataSub@@QAEXPAVCDBipDataRec@@H@Z 100097d0 f   CSWKDataSub.obj
 0001:00008800       ?bchk_dbr@CSWKDataSub@@QAEHPAVCDBipDataRec@@H@Z 10009800 f   CSWKDataSub.obj
 0001:00008890       ?bchk_dbr@CSWKDataSub@@QAEHPAVCDBINPDataRec@@H@Z 10009890 f   CSWKDataSub.obj
 0001:000088a0       ?bchk_cbr@CSWKDataSub@@QAEHPAVCDBipDataRec@@H@Z 100098a0 f   CSWKDataSub.obj
 0001:00008930       ?bchk_cbr@CSWKDataSub@@QAEHPAVCDBINPDataRec@@H@Z 10009930 f   CSWKDataSub.obj
 0001:00008940       ?bchk_msg@CSWKDataSub@@QAEXHHHAAV?$CStringT@DV?$StrTraitMFC_DLL@DV?$ChTraitsCRT@D@ATL@@@@@ATL@@H@Z 10009940 f   CSWKDataSub.obj
 0001:00008950       ?codeinp_chk@CSWKDataSub@@QAEHPBD@Z 10009950 f   CSWKDataSub.obj
 0001:00008980       ?brmsrch@CSWKDataSub@@QAEHPAVCDBipEZREC@@PAVCDBipDataRec@@H@Z 10009980 f   CSWKDataSub.obj
 0001:00008a10       ?brmsrch@CSWKDataSub@@QAEHPAVCDBipEZREC@@PAVCDBINPDataRec@@H@Z 10009a10 f   CSWKDataSub.obj
 0001:00008a20       ?br_entry@CSWKDataSub@@QAEHPAVCDBipEZREC@@PAVCDBipDataRec@@HH@Z 10009a20 f   CSWKDataSub.obj
 0001:00008a30       ?br_entry@CSWKDataSub@@QAEHPAVCDBipEZREC@@PAVCDBINPDataRec@@HH@Z 10009a30 f   CSWKDataSub.obj
 0001:00008a40       ?zroeda_torok@CSWKDataSub@@QAEHPAVCDBipDataRec@@H@Z 10009a40 f   CSWKDataSub.obj
 0001:00008a50       ?zroeda_torok@CSWKDataSub@@QAEHPAVCDBINPDataRec@@H@Z 10009a50 f   CSWKDataSub.obj
 0001:00008a60       ?brzan_torok@CSWKDataSub@@QAEHPAVCWnd@@HV?$CStringT@DV?$StrTraitMFC_DLL@DV?$ChTraitsCRT@D@ATL@@@@@ATL@@HH@Z 10009a60 f   CSWKDataSub.obj
 0001:00008ad0       ?DB_EdabanMasterSearch@CSWKDataSub@@QAEHPAVCDBipDataRec@@H@Z 10009ad0 f   CSWKDataSub.obj
 0001:00008b60       ?DB_EdabanMasterSearch@CSWKDataSub@@QAEHPAVCDBINPDataRec@@H@Z 10009b60 f   CSWKDataSub.obj
 0001:00008b70       ?EdabanZanTorok@CSWKDataSub@@QAEHPAVCDBipEZREC@@@Z 10009b70 f   CSWKDataSub.obj
 0001:00008b80       ?BmnEdabanZanTorok@CSWKDataSub@@QAEHPAVCDBipEZREC@@H@Z 10009b80 f   CSWKDataSub.obj
 0001:00008b90       ?DB_EdabanZanSearch@CSWKDataSub@@QAEHAAV?$CStringT@DV?$StrTraitMFC_DLL@DV?$ChTraitsCRT@D@ATL@@@@@ATL@@H@Z 10009b90 f   CSWKDataSub.obj
 0001:00008bf0       ?DB_EdabanZanSearch2@CSWKDataSub@@QAEHAAV?$CStringT@DV?$StrTraitMFC_DLL@DV?$ChTraitsCRT@D@ATL@@@@@ATL@@H@Z 10009bf0 f   CSWKDataSub.obj
 0001:00008c50       ?DB_BmnEdabanMasterSearch@CSWKDataSub@@QAEHPAVCDBipDataRec@@H@Z 10009c50 f   CSWKDataSub.obj
 0001:00008ce0       ?DB_BmnEdabanMasterSearch@CSWKDataSub@@QAEHPAVCDBINPDataRec@@H@Z 10009ce0 f   CSWKDataSub.obj
 0001:00008cf0       ?DB_BmnEdabanMasterSearch@CSWKDataSub@@QAEHPAVCDBipDataRec@@HH@Z 10009cf0 f   CSWKDataSub.obj
 0001:00008d90       ?DB_BmnEdabanMasterSearch@CSWKDataSub@@QAEHPAVCDBINPDataRec@@HH@Z 10009d90 f   CSWKDataSub.obj
 0001:00008da0       ?DB_TekiyoNoRead@CSWKDataSub@@QAEHPAVCDBipTKREC@@H@Z 10009da0 f   CSWKDataSub.obj
 0001:00008db0       ?tbrasrch@CSWKDataSub@@QAEHPAVCDBipDataRec@@HPAD1@Z 10009db0 f   CSWKDataSub.obj
 0001:00008f00       ?tbrasrch@CSWKDataSub@@QAEHPAVCDBINPDataRec@@HPAD1@Z 10009f00 f   CSWKDataSub.obj
 0001:00008f10       ?DB_TekiyoEdabanSet@CSWKDataSub@@QAEHPAVCDBipDataRec@@HH@Z 10009f10 f   CSWKDataSub.obj
 0001:00008f20       ?DB_TekiyoEdabanSet@CSWKDataSub@@QAEHPAVCDBINPDataRec@@HH@Z 10009f20 f   CSWKDataSub.obj
 0001:00008f30       ?IsModify@CSWKDataSub@@QAEHXZ 10009f30 f   CSWKDataSub.obj
 0001:00008f40       ?IsEdaAdd@CSWKDataSub@@QAEHXZ 10009f40 f   CSWKDataSub.obj
 0001:00008f50       ?IsGokeiBumon@CSWKDataSub@@QAEHH@Z 10009f50 f   CSWKDataSub.obj
 0001:00008f60       ?_set_bmnetc@CSWKDataSub@@QAEHPAU_SET_KMKETC@@@Z 10009f60 f   CSWKDataSub.obj
 0001:00008f70       ?IsSyonum@CSWKDataSub@@QAEHXZ 10009f70 f   CSWKDataSub.obj
 0001:00008f90       ?IsEdaban@CSWKDataSub@@QAEHXZ 10009f90 f   CSWKDataSub.obj
 0001:00008fb0       ?IsBumon@CSWKDataSub@@QAEHXZ 10009fb0 f   CSWKDataSub.obj
 0001:00008fd0       ?IsKoji@CSWKDataSub@@QAEHXZ 10009fd0 f   CSWKDataSub.obj
 0001:00008ff0       ?IsMasterType@CSWKDataSub@@QAEHK@Z 10009ff0 f   CSWKDataSub.obj
 0001:00009010       ?IsInsertMaster@CSWKDataSub@@QAEHXZ 1000a010 f   CSWKDataSub.obj
 0001:00009050       ?IsConFirmMaster@CSWKDataSub@@QAEHXZ 1000a050 f   CSWKDataSub.obj
 0001:00009060       ?tkrec_kanamode@CSWKDataSub@@QAEHXZ 1000a060 f   CSWKDataSub.obj
 0001:00009070       ?tkrec_queryAll@CSWKDataSub@@QAEXXZ 1000a070 f   CSWKDataSub.obj
 0001:000090b0       ?_set_kmketc@CSWKDataSub@@QAEHPAU_SET_KMKETC@@H@Z 1000a0b0 f   CSWKDataSub.obj
 0001:000090c0       ?Confirm_Mode@CSWKDataSub@@QAEHXZ 1000a0c0 f   CSWKDataSub.obj
 0001:00009100       ?GetConfirmBkColor@CSWKDataSub@@QAEKXZ 1000a100 f   CSWKDataSub.obj
 0001:00009160       ?CheckConfirmBkColor@CSWKDataSub@@QAEHK@Z 1000a160 f   CSWKDataSub.obj
 0001:00009170       ?IsModifyConfirmData@CSWKDataSub@@QAEHXZ 1000a170 f   CSWKDataSub.obj
 0001:000091b0       ?IsJozuEnvCloudMaster@CSWKDataSub@@QAEHXZ 1000a1b0 f   CSWKDataSub.obj
 0001:000091c0       ?get_hjiyutitle@CSWKDataSub@@QAEPBDH@Z 1000a1c0 f   CSWKDataSub.obj
 0001:000091d0       ?tline_chk@CSWKDataSub@@QAEHPAVCDBipDataRec@@@Z 1000a1d0 f   CSWKDataSub.obj
 0001:00009290       ?tline_chk@CSWKDataSub@@QAEHPAVCDBINPDataRec@@@Z 1000a290 f   CSWKDataSub.obj
 0001:000092e0       ?bmncode_ok@CSWKDataSub@@QAEHH@Z 1000a2e0 f   CSWKDataSub.obj
 0001:000092f0       ?GetLastDataSeq@CSWKDataSub@@QAEHXZ 1000a2f0 f   CSWKDataSub.obj
 0001:00009300       ?GetKariAutoBrnCnt@CSWKDataSub@@QAEHXZ 1000a300 f   CSWKDataSub.obj
 0001:00009310       ?BumonZanTorok@CSWKDataSub@@QAEHHV?$CStringT@DV?$StrTraitMFC_DLL@DV?$ChTraitsCRT@D@ATL@@@@@ATL@@@Z 1000a310 f   CSWKDataSub.obj
 0001:00009380       ?DB_DataAppend@CSWKDataSub@@QAEHPAVCDBipDataRec@@H@Z 1000a380 f   CSWKDataSub.obj
 0001:00009390       ?DB_DataAppend@CSWKDataSub@@QAEHPAVCDBINPDataRec@@H@Z 1000a390 f   CSWKDataSub.obj
 0001:000093a0       ?GetInpDate@CSWKDataSub@@QAEXPAE@Z 1000a3a0 f   CSWKDataSub.obj
 0001:000093c0       ?SetInpDate@CSWKDataSub@@QAEXHH@Z 1000a3c0 f   CSWKDataSub.obj
 0001:000093d0       ?GetInputStrLen@CSWKDataSub@@QAEHPAE@Z 1000a3d0 f   CSWKDataSub.obj
 0001:00009400       ?isdiff_data@CSWKDataSub@@QAEHPAVCDBipDataRec@@0@Z 1000a400 f   CSWKDataSub.obj
 0001:00009410       ?isdiff_data@CSWKDataSub@@QAEHPAVCDBINPDataRec@@0@Z 1000a410 f   CSWKDataSub.obj
 0001:00009420       ?CalqSyogTotal@CSWKDataSub@@QAEHPBDPAD11@Z 1000a420 f   CSWKDataSub.obj
 0001:00009430       ?memzrec_get@CSWKDataSub@@QAEHPBDPAU_DBKZREC@@@Z 1000a430 f   CSWKDataSub.obj
 0001:000095e0       ?zrecget@CSWKDataSub@@QAEHPBDPAU_DBKZREC@@@Z 1000a5e0 f   CSWKDataSub.obj
 0001:000095e0       ?dbzrec_get@CSWKDataSub@@QAEHPBDPAU_DBKZREC@@@Z 1000a5e0 f   CSWKDataSub.obj
 0001:000095f0       ?DateConv@CSWKDataSub@@QAEHPAEPAVCDBINPDataRec@@H@Z 1000a5f0 f   CSWKDataSub.obj
 0001:000095f0       ?DateConv@CSWKDataSub@@QAEHPAEPAVCDBipDataRec@@H@Z 1000a5f0 f   CSWKDataSub.obj
 0001:00009600       ?DateConv@CSWKDataSub@@QAEHPAEPAHH@Z 1000a600 f   CSWKDataSub.obj
 0001:00009610       ?BcdDateToYmd@CSWKDataSub@@QAEHPAEPAH@Z 1000a610 f   CSWKDataSub.obj
 0001:00009620       ?isSyzdiff_data@CSWKDataSub@@QAEHPAVCDBipDataRec@@0@Z 1000a620 f   CSWKDataSub.obj
 0001:000096e0       ?isSyzdiff_data@CSWKDataSub@@QAEHPAVCDBINPDataRec@@0@Z 1000a6e0 f   CSWKDataSub.obj
 0001:000096f0       ?is_syohizeisiwake@CSWKDataSub@@QAEHPAVCDBDATA@@@Z 1000a6f0 f   CSWKDataSub.obj
 0001:00009780       ?is_syohizeisiwake@CSWKDataSub@@QAEHPAVCDBipDataRec@@@Z 1000a780 f   CSWKDataSub.obj
 0001:00009790       ?is_syohizeisiwake@CSWKDataSub@@QAEHPAVCDBINPDataRec@@@Z 1000a790 f   CSWKDataSub.obj
 0001:000097a0       ?is_yusyutsusiwake@CSWKDataSub@@QAEHPAVCDBDATA@@@Z 1000a7a0 f   CSWKDataSub.obj
 0001:00009830       ?is_yusyutsusiwake@CSWKDataSub@@QAEHPAVCDBipDataRec@@@Z 1000a830 f   CSWKDataSub.obj
 0001:00009840       ?is_yusyutsusiwake@CSWKDataSub@@QAEHPAVCDBINPDataRec@@@Z 1000a840 f   CSWKDataSub.obj
 0001:000098a0       ?IsDiffEdabanSyzSgn@CSWKDataSub@@QAEHPADH@Z 1000a8a0 f   CSWKDataSub.obj
 0001:000098b0       ?isnot_defzeigaku@CSWKDataSub@@QAEHPAVCDBDATA@@AAK@Z 1000a8b0 f   CSWKDataSub.obj
 0001:000098c0       ?isnot_defzeigaku@CSWKDataSub@@QAEHPAVCDBipDataRec@@AAK@Z 1000a8c0 f   CSWKDataSub.obj
 0001:00009960       ?isnot_defzeigaku@CSWKDataSub@@QAEHPAVCDBINPDataRec@@AAK@Z 1000a960 f   CSWKDataSub.obj
 0001:00009970       ?IsKaniOrKobetsu@CSWKDataSub@@QAEHXZ 1000a970 f   CSWKDataSub.obj
 0001:000099a0       ?IsKani@CSWKDataSub@@QAEHXZ 1000a9a0 f   CSWKDataSub.obj
 0001:000099c0       ?IsMenzei@CSWKDataSub@@QAEHXZ 1000a9c0 f   CSWKDataSub.obj
 0001:000099e0       ?IsKobetsu@CSWKDataSub@@QAEHXZ 1000a9e0 f   CSWKDataSub.obj
 0001:00009a00       ?CheckTkrec@CSWKDataSub@@QAE_NPAU_SY_TKREC_@@@Z 1000aa00 f   CSWKDataSub.obj
 0001:00009a10       ?is_karibarai_menzei@CSWKDataSub@@QAEHPAE@Z 1000aa10 f   CSWKDataSub.obj
 0001:00009a70       ?KamokuString@CSWKDataSub@@QAEXPAU_DBKNREC@@AAV?$CStringT@DV?$StrTraitMFC_DLL@DV?$ChTraitsCRT@D@ATL@@@@@ATL@@@Z 1000aa70 f   CSWKDataSub.obj
 0001:00009ae0       ?KamokuString@CSWKDataSub@@QAEXPAU_DBKNREC@@PADH@Z 1000aae0 f   CSWKDataSub.obj
 0001:00009b30       ?DB_PjisToKnrec@CSWKDataSub@@QAEPAU_DBKNREC@@V?$CStringT@DV?$StrTraitMFC_DLL@DV?$ChTraitsCRT@D@ATL@@@@@ATL@@H@Z 1000ab30 f   CSWKDataSub.obj
 0001:00009be0       ?DB_PjisToKnrec@CSWKDataSub@@QAEPAU_DBKNREC@@KH@Z 1000abe0 f   CSWKDataSub.obj
 0001:00009c20       ?GetAUTOSEL@CSWKDataSub@@QAEPAU_AUTOSEL@@XZ 1000ac20 f   CSWKDataSub.obj
 0001:00009c30       ?get_datelimit@CSWKDataSub@@QAEXAAH000@Z 1000ac30 f   CSWKDataSub.obj
 0001:00009c70       ?set_datelimit@CSWKDataSub@@QAEXHHHH@Z 1000ac70 f   CSWKDataSub.obj
 0001:00009ca0       ?check_datelimit@CSWKDataSub@@QAEHPAE@Z 1000aca0 f   CSWKDataSub.obj
 0001:00009cb0       ?get_ofsdate@CSWKDataSub@@QAEXHHPAE@Z 1000acb0 f   CSWKDataSub.obj
 0001:00009e30       ?get_ofsdate@CSWKDataSub@@QAEXHPAE@Z 1000ae30 f   CSWKDataSub.obj
 0001:00009f30       ?inpdate_shimechk@CSWKDataSub@@QAEHPAEPAD@Z 1000af30 f   CSWKDataSub.obj
 0001:00009f40       ?Myvd_chek@CSWKDataSub@@QAEHPAE@Z 1000af40 f   CSWKDataSub.obj
 0001:00009fd0       ?Myvd_sign@CSWKDataSub@@QAEHPAE0@Z 1000afd0 f   CSWKDataSub.obj
 0001:00009fe0       ?IsKobetsuBmnSyz@CSWKDataSub@@QAEHXZ 1000afe0 f   CSWKDataSub.obj
 0001:0000a010       ?KobetsuSiwakeCheck@CSWKDataSub@@QAEHPAVCDBipDataRec@@H@Z 1000b010 f   CSWKDataSub.obj
 0001:0000a0a0       ?KobetsuSiwakeCheck@CSWKDataSub@@QAEHPAVCDBINPDataRec@@H@Z 1000b0a0 f   CSWKDataSub.obj
 0001:0000a0b0       ?get_brtek@CSWKDataSub@@QAEHHAAV?$CStringT@DV?$StrTraitMFC_DLL@DV?$ChTraitsCRT@D@ATL@@@@@ATL@@H@Z 1000b0b0 f   CSWKDataSub.obj
 0001:0000a0c0       ?get_hjiyustr@CSWKDataSub@@QAEXEAAV?$CStringT@DV?$StrTraitMFC_DLL@DV?$ChTraitsCRT@D@ATL@@@@@ATL@@@Z 1000b0c0 f   CSWKDataSub.obj
 0001:0000a0d0       ?GetHjiyuEtcStr@CSWKDataSub@@QAEHHHAAV?$CStringT@DV?$StrTraitMFC_DLL@DV?$ChTraitsCRT@D@ATL@@@@@ATL@@@Z 1000b0d0 f   CSWKDataSub.obj
 0001:0000a160       ?_set_kojietc@CSWKDataSub@@QAEHPAU_SET_KMKETC@@@Z 1000b160 f   CSWKDataSub.obj
 0001:0000a1a0       ?km_siire@CSWKDataSub@@QAEHPAU_DBKNREC@@@Z 1000b1a0 f   CSWKDataSub.obj
 0001:0000a1b0       ?is_sotomensiwake@CSWKDataSub@@QAEHPAVCDBDATA@@@Z 1000b1b0 f   CSWKDataSub.obj
 0001:0000a240       ?is_sotomensiwake@CSWKDataSub@@QAEHPAVCDBipDataRec@@@Z 1000b240 f   CSWKDataSub.obj
 0001:0000a250       ?is_sotomensiwake@CSWKDataSub@@QAEHPAVCDBINPDataRec@@@Z 1000b250 f   CSWKDataSub.obj
 0001:0000a260       ?IsKaribarai@CSWKDataSub@@QAEHK@Z 1000b260 f   CSWKDataSub.obj
 0001:0000a290       ?IsKariuke@CSWKDataSub@@QAEHK@Z 1000b290 f   CSWKDataSub.obj
 0001:0000a2c0       ??_ECSWKDataSub@@UAEPAXI@Z 1000b2c0 f i CSWKDataSub.obj
 0001:0000a370       ??_ECDataZeiCalqSub@@UAEPAXI@Z 1000b370 f i * CIL library *:* CIL module *
 0001:0000a370       ??_GCDataZeiCalqSub@@UAEPAXI@Z 1000b370 f i DataZeiCalqSub.obj
 0001:0000a3f0       ?GetDefZeiData@CDataZeiCalqSub@@QAEPBDPAVCDBipDataRec@@@Z 1000b3f0 f   DataZeiCalqSub.obj
 0001:0000a4e0       ??0_DBSYSUB@@QAE@XZ        1000b4e0 f i DataZeiCalqSub.obj
 0001:0000a550       ??1_DBSYSUB@@QAE@XZ        1000b550 f i DataZeiCalqSub.obj
 0001:0000a5c0       ?GetDefZeiData@CDataZeiCalqSub@@QAEPBDPAVCDBINPDataRec@@@Z 1000b5c0 f   DataZeiCalqSub.obj
 0001:0000a680       ?drec_to_sub@CDataZeiCalqSub@@AAEHPAU_DBSYSUB@@PAVCDBINPDataRec@@@Z 1000b680 f   DataZeiCalqSub.obj
 0001:0000a800       ?_sub_zei_clq@CDataZeiCalqSub@@AAEHPAU_DBSYSUB@@PAVCDBINPDataRec@@@Z 1000b800 f   DataZeiCalqSub.obj
 0001:0000ab20       ?zeiclq_mz@CDataZeiCalqSub@@AAEPBDPBDHHHH@Z 1000bb20 f   DataZeiCalqSub.obj
 0001:0000ad90       ?zeiclq@CDataZeiCalqSub@@AAEPBDPBDHHHH@Z 1000bd90 f   DataZeiCalqSub.obj
 0001:0000b0c0       ?remtype@CDataZeiCalqSub@@AAEHH@Z 1000c0c0 f   DataZeiCalqSub.obj
 0001:0000b110       ?_get_ddata_code@CDataZeiCalqSub@@AAEKPAVCDBINPDataRec@@K@Z 1000c110 f   DataZeiCalqSub.obj
 0001:0000be20       ?KnOnMemry@CDataZeiCalqSub@@AAEHXZ 1000ce20 f   DataZeiCalqSub.obj
 0001:0000c130       ?_get_syattr@CDataZeiCalqSub@@AAEHPAU_DBSY_ATTR@@PBDPAK@Z 1000d130 f   DataZeiCalqSub.obj
 0001:0000c300       ?istokteim@CDataZeiCalqSub@@AAEHXZ 1000d300 f   DataZeiCalqSub.obj
 0001:0000c320       ?_kamok_typ@CDataZeiCalqSub@@AAEKPBDPAU_DBSY_ATTR@@H@Z 1000d320 f   DataZeiCalqSub.obj
 0001:0000c570       ?_to_siwake_kbn_code@CDataZeiCalqSub@@AAEKPAU_DBSY_ATTR@@@Z 1000d570 f   DataZeiCalqSub.obj
 0001:0000c680       ?is_sisan_syutok@CDataZeiCalqSub@@IAEHPAU_DBSY_ATTR@@@Z 1000d680 f   DataZeiCalqSub.obj
 0001:0000c6a0       ?is_sisan_jyoto@CDataZeiCalqSub@@IAEHPAU_DBSY_ATTR@@@Z 1000d6a0 f   DataZeiCalqSub.obj
 0001:0000c6c0       ?sub_inz@CDataZeiCalqSub@@IAEHPAU_DBSYSUB@@@Z 1000d6c0 f   DataZeiCalqSub.obj
 0001:0000c770       ??0CDataZeiCalq@@QAE@XZ    1000d770 f   DataZeiCalqSub.obj
 0001:0000c870       ??1CDataZeiCalq@@UAE@XZ    1000d870 f   DataZeiCalqSub.obj
 0001:0000c890       ?DZCIniz@CDataZeiCalq@@QAEHPAVCDBZmSub@@@Z 1000d890 f   DataZeiCalqSub.obj
 0001:0000c960       ?DZCClose@CDataZeiCalq@@QAEHXZ 1000d960 f   DataZeiCalqSub.obj
 0001:0000ca50       ?GetDefZeiData@CDataZeiCalq@@QAEPBDPAVCDBipDataRec@@@Z 1000da50 f   DataZeiCalqSub.obj
 0001:0000ca70       ?GetDefZeiData@CDataZeiCalq@@QAEPBDPAVCDBINPDataRec@@@Z 1000da70 f   DataZeiCalqSub.obj
 0001:0000ca90       ?RemoveAll@?$CMap@KKPAUInKNREC@@PAU1@@@QAEXXZ 1000da90 f i DataZeiCalqSub.obj
 0001:0000caf0       ?InitHashTable@?$CMap@KKPAUInKNREC@@PAU1@@@QAEXIH@Z 1000daf0 f i DataZeiCalqSub.obj
 0001:0000cb60       ?Serialize@?$CMap@KKPAUInKNREC@@PAU1@@@UAEXAAVCArchive@@@Z 1000db60 f i DataZeiCalqSub.obj
 0001:0000cce0       ??$sprintf_s@$0DC@@@YAHAAY0DC@DPBDZZ 1000dce0 f i DataZeiCalqSub.obj
 0001:0000cd00       ??_G?$CMap@KKPAUInKNREC@@PAU1@@@UAEPAXI@Z 1000dd00 f i DataZeiCalqSub.obj
 0001:0000cd00       ??_E?$CMap@KKPAUInKNREC@@PAU1@@@UAEPAXI@Z 1000dd00 f i * CIL library *:* CIL module *
 0001:0000cd80       ?GetAssocAt@?$CMap@KKPAUInKNREC@@PAU1@@@IBEPAVCAssoc@1@KAAI0@Z 1000dd80 f i DataZeiCalqSub.obj
 0001:0000cdf0       ??$SerializeElements@K@@YGXAAVCArchive@@PAKH@Z 1000ddf0 f i DataZeiCalqSub.obj
 0001:0000cdf0       ??$SerializeElements@PAUInKNREC@@@@YGXAAVCArchive@@PAPAUInKNREC@@H@Z 1000ddf0 f i DataZeiCalqSub.obj
 0001:0000ceb0       ??_ECDataZeiCalq@@UAEPAXI@Z 1000deb0 f i DataZeiCalqSub.obj
 0001:0000cf70       ___local_stdio_scanf_options 1000df70 f i DataZeiCalqSub.obj
 0001:0000cf80       __vsscanf_s_l              1000df80 f i DataZeiCalqSub.obj
 0001:0000cfb0       _sscanf_s                  1000dfb0 f i DataZeiCalqSub.obj
 0001:0000cfd0       _ExtRawDllMain@12          1000dfd0 f   DBInpSub.obj
 0001:0000d010       _DllMain@12                1000e010 f   DBInpSub.obj
 0001:0000d0b0       ?DB_PjisToKnrec@@YAPAU_DBKNREC@@V?$CStringT@DV?$StrTraitMFC_DLL@DV?$ChTraitsCRT@D@ATL@@@@@ATL@@PAVCDBZmSub@@H@Z 1000e0b0 f   DBInpSub.obj
 0001:0000d140       ?get_gksrc@@YAPAU_DBGKREC@@KPAVCDBZmSub@@@Z 1000e140 f   DBInpSub.obj
 0001:0000d1a0       ?set_codestr@@YAXPADHHH@Z  1000e1a0 f   DBInpSub.obj
 0001:0000d210       ?set_codestring@@YAXPADH0H@Z 1000e210 f   DBInpSub.obj
 0001:0000d2d0       ?isdigitstr@@YGHPAD@Z      1000e2d0 f   DBInpSub.obj
 0001:0000d310       ?kana_chk@@YGHPAV?$CStringT@DV?$StrTraitMFC_DLL@DV?$ChTraitsCRT@D@ATL@@@@@ATL@@H@Z 1000e310 f   DBInpSub.obj
 0001:0000d370       ?trim_zero@@YGXPADHH@Z     1000e370 f   DBInpSub.obj
 0001:0000d440       ?ksp_cut@@YGHPAD0H@Z       1000e440 f   DBInpSub.obj
 0001:0000d500       ?kana_copy@@YGXPADPBD@Z    1000e500 f   DBInpSub.obj
 0001:0000d550       ?kana_check@@YGXPADPBD@Z   1000e550 f   DBInpSub.obj
 0001:0000d590       ?DWORDcodeToSTRcode@@YGXKPADH@Z 1000e590 f   DBInpSub.obj
 0001:0000d5d0       ?Myvd_sign@@YGHPAE0PAVCDBZmSub@@@Z 1000e5d0 f   DBInpSub.obj
 0001:0000da80       ?DateConv@@YGHPAEPAHH@Z    1000ea80 f   DBInpSub.obj
 0001:0000da80       ?DateConv@CDInputSub@@QAEHPAEPAHH@Z 1000ea80 f   DInputSub.obj
 0001:0000db30       ?YmdConv@@YGHPAEPAHH@Z     1000eb30 f   DBInpSub.obj
 0001:0000db80       ?BcdDateToString@@YGXPADHPAEH@Z 1000eb80 f   DBInpSub.obj
 0001:0000dc10       ?BcdDateToString@@YGXAAV?$CStringT@DV?$StrTraitMFC_DLL@DV?$ChTraitsCRT@D@ATL@@@@@ATL@@PAEH@Z 1000ec10 f   DBInpSub.obj
 0001:0000dc40       ?IntsrekitoGenstr@@YGXPADHH@Z 1000ec40 f   DBInpSub.obj
 0001:0000dcd0       ?_op_max_calq@@YGHH@Z      1000ecd0 f   DBInpSub.obj
 0001:0000dd40       ?DBdata_set@@YGJPAVCWnd@@HPAUtagVARIANT@@HH@Z 1000ed40 f   DBInpSub.obj
 0001:0000dd80       ?DBdata_get@@YGJPAVCWnd@@HPAUtagVARIANT@@HH@Z 1000ed80 f   DBInpSub.obj
 0001:0000ddc0       ?DBSetDispString@@YGXPAVCWnd@@HPBD@Z 1000edc0 f   DBInpSub.obj
 0001:0000ddf0       ?KamokucodeSign@@YGXH@Z    1000edf0 f   DBInpSub.obj
 0001:0000de00       ?DBkamokudata_get@@YGHPAVCWnd@@HPAU_KamokuData@@PAVCDBZmSub@@@Z 1000ee00 f   DBInpSub.obj
 0001:0000df20       ?DBkamokudata_set@@YGHPAVCWnd@@HPAU_KamokuData@@PAVCDBZmSub@@@Z 1000ef20 f   DBInpSub.obj
 0001:0000e0c0       ?TgDateInputCheck@@YGFPAD0HHHH@Z 1000f0c0 f   DBInpSub.obj
 0001:0000e450       ?uru_year@@YGHH@Z          1000f450 f   DBInpSub.obj
 0001:0000e4b0       ?EdabanTorokDialog@@YGHPAU_EDA_RECORD@@PAVCDBZmSub@@PAVCWnd@@PAH@Z 1000f4b0 f   DBInpSub.obj
 0001:0000ebb0       ??1CEdaRegDlg@@UAE@XZ      1000fbb0 f i DBInpSub.obj
 0001:0000ec20       ?tkdb_init@@YAXPAVCDBZmSub@@@Z 1000fc20 f   DBInpSub.obj
 0001:0000ec50       ?skbn_msg@@YAXAAV?$CStringT@DV?$StrTraitMFC_DLL@DV?$ChTraitsCRT@D@ATL@@@@@ATL@@EPAVCDBZmSub@@PAVCDBSyohi@@@Z 1000fc50 f   DBInpSub.obj
 0001:0000ed70       ?tkyngetr@@YAHHPAVCDBZmSub@@@Z 1000fd70 f   DBInpSub.obj
 0001:0000edc0       ??1CForksel@@UAE@XZ        1000fdc0 f i DBInpSub.obj
 0001:0000f2b0       ??1_JOBSEL_PAC@@QAE@XZ     100102b0 f i DBInpSub.obj
 0001:0000f330       ?TekiyoTorokDialog@@YGHPAU_TKY_REGPAR@@PAVCDBZmSub@@PAVCDBSyohi@@PAVCWnd@@PAH@Z 10010330 f   DBInpSub.obj
 0001:0000f810       ??1CTkregDlg@@UAE@XZ       10010810 f i DBInpSub.obj
 0001:0000f860       ??1CICSTbarDlg@@UAE@XZ     10010860 f i DBInpSub.obj
 0001:0000f880       ??1?$CTypedPtrArray@VCObArray@@PAVCBaseDlg@@@@UAE@XZ 10010880 f i DBInpSub.obj
 0001:0000f890       ?TekiyoRegV2Dialog@@YGHPAU_TKY_VER2@@PAVCDBZmSub@@PAVCDBSyohi@@PAVCWnd@@PAH@Z 10010890 f   DBInpSub.obj
 0001:0000fd00       ?GetTkyRegType@@YAHXZ      10010d00 f   DBInpSub.obj
 0001:0000ff20       ?TekiyoTorokDialogEX@@YGHPAU_TKY_REGPAREX@@PAVCDBZmSub@@PAVCDBSyohi@@PAVCWnd@@PAH@Z 10010f20 f   DBInpSub.obj
 0001:00010160       ?TkyEdaRegDialog@@YGHPAU_TKY_VER2@@PAVCDBZmSub@@PAVCDBSyohi@@PAVCWnd@@PAH@Z 10011160 f   DBInpSub.obj
 0001:00010630       ?TkyEdaTorokDialog@@YGHPAU_TKY_REGPAREX@@PAVCDBZmSub@@PAVCDBSyohi@@PAVCWnd@@PAH@Z 10011630 f   DBInpSub.obj
 0001:000108e0       ?ScanItemDialog@@YGHPAU_SCAN_ITEM@@KPAVCDBZmSub@@PAVCWnd@@@Z 100118e0 f   DBInpSub.obj
 0001:000112b0       ??1CScanKey@@UAE@XZ        100122b0 f i DBInpSub.obj
 0001:000114d0       ?scanitem_init@@YGXPAU_SCAN_ITEM@@@Z 100124d0 f   DBInpSub.obj
 0001:000116d0       ?scanitem_initEX@@YGXPAU_SCAN_ITEMEX@@@Z 100126d0 f   DBInpSub.obj
 0001:00011900       ?swktky_search@@YGHKV?$CStringT@DV?$StrTraitMFC_DLL@DV?$ChTraitsCRT@D@ATL@@@@@ATL@@0PAVCDBZmSub@@@Z 10012900 f   DBInpSub.obj
 0001:00011bf0       ?IsBillCode@@YGHPBDE@Z     10012bf0 f   DBInpSub.obj
 0001:00011d20       ?IsBillCodeEx@@YGHPBDPAVCDBZmSub@@@Z 10012d20 f   DBInpSub.obj
 0001:00011ee0       ?get_khkbntype@@YGHV?$CStringT@DV?$StrTraitMFC_DLL@DV?$ChTraitsCRT@D@ATL@@@@@ATL@@0PAVCDBZmSub@@@Z 10012ee0 f   DBInpSub.obj
 0001:00012150       ?IsHenJiyuCodeRight@@YGHHH@Z 10013150 f   DBInpSub.obj
 0001:000121c0       ?IsIryoHjiyuCodeRight@@YGHHH@Z 100131c0 f   DBInpSub.obj
 0001:000121d0       ?get_strcnt@@YAHPADH@Z     100131d0 f   DBInpSub.obj
 0001:00012230       ?kmkcode_string@@YGHHPAU_DBKNREC@@PADH@Z 10013230 f   DBInpSub.obj
 0001:00012380       ?IsIncludeString@@YAHPBD0@Z 10013380 f   DBInpSub.obj
 0001:00012430       ?indkmk_dialog@@YGHPAVCWnd@@AAKPAVCDBZmSub@@@Z 10013430 f   DBInpSub.obj
 0001:00012590       ?IsKojinGyosyuMaster@@YGHPAVCDBZmSub@@@Z 10013590 f   DBInpSub.obj
 0001:000125d0       ?IsKojinKengyoMaster@@YGHH@Z 100135d0 f   DBInpSub.obj
 0001:00012600       ?CheckKamokuRestrict@@YGHPAVCDBZmSub@@PAU_DBKNREC@@@Z 10013600 f   DBInpSub.obj
 0001:000126e0       ?kpubkmk_dialog@@YGHPAVCWnd@@PAK1PAVCDBZmSub@@@Z 100136e0 f   DBInpSub.obj
 0001:00012880       ?IsKouekiMaster@@YGHPAVCDBZmSub@@@Z 10013880 f   DBInpSub.obj
 0001:000128b0       ?IsExtendJgyOrKnrMaster@@YGHPAVCDBZmSub@@@Z 100138b0 f   DBInpSub.obj
 0001:00012920       ?GetJgyKnrDspstr@@YGHPAVCDBZmSub@@KKPAV?$CStringT@DV?$StrTraitMFC_DLL@DV?$ChTraitsCRT@D@ATL@@@@@ATL@@@Z 10013920 f   DBInpSub.obj
 0001:00012a50       ?AdjustSQLsearch@@YGHAAV?$CStringT@DV?$StrTraitMFC_DLL@DV?$ChTraitsCRT@D@ATL@@@@@ATL@@@Z 10013a50 f   DBInpSub.obj
 0001:00012b80       ?furikana_chk@@YAXPADHAAV?$CStringT@DV?$StrTraitMFC_DLL@DV?$ChTraitsCRT@D@ATL@@@@@ATL@@@Z 10013b80 f   DBInpSub.obj
 0001:00012c10       ?GNKINCode@@YGPBDH@Z       10013c10 f   DBInpSub.obj
 0001:00012c40       ?IsSyafuKaiseiAnbun@@YGHPAVCDBZmSub@@@Z 10013c40 f   DBInpSub.obj
 0001:00012ce0       ?DocEviAutoString@@YGXPADHH@Z 10013ce0 f   DBInpSub.obj
 0001:00012f70       ?IsGakkouMaster@@YGHPAVCDBZmSub@@@Z 10013f70 f   DBInpSub.obj
 0001:00012f90       ?IsSyusiKamokuMaster@@YGHPAVCDBZmSub@@@Z 10013f90 f   DBInpSub.obj
 0001:00012fd0       ?GetTekiyoLength@@YGHPAVCDBZmSub@@@Z 10013fd0 f   DBInpSub.obj
 0001:00013070       ?GetMasterVver@@YGHPAVCDBZmSub@@@Z 10014070 f   DBInpSub.obj
 0001:00013260       ?IsGakkouH27Master@@YGHPAVCDBZmSub@@@Z 10014260 f   DBInpSub.obj
 0001:00013290       ?ZmsubOwntbOpen@@YAHPAVCDBZmSub@@AAHH@Z 10014290 f   DBInpSub.obj
 0001:00013480       ?teki_stringcheck@@YGHPADH@Z 10014480 f   DBInpSub.obj
 0001:000134f0       ?sotozei_data@@YAHPAVCDBINPDataRec@@@Z 100144f0 f   DBInpSub.obj
 0001:00013520       ?_sotozei_data@@YAHPAE@Z   10014520 f   DBInpSub.obj
 0001:00013540       ?brn_inptype@@YAHHV?$CStringT@DV?$StrTraitMFC_DLL@DV?$ChTraitsCRT@D@ATL@@@@@ATL@@H0H@Z 10014540 f   DBInpSub.obj
 0001:000135a0       ?DenpInputDialogSub@@YGHPAU_DENP_INPUTPAR@@@Z 100145a0 f   DBInpSub.obj
 0001:000137f0       ?DenpInputDialog@@YGHPAU_DENP_INPUTPAR@@@Z 100147f0 f   DBInpSub.obj
 0001:00013840       ?DenpTypeString@@YGHEAAV?$CStringT@DV?$StrTraitMFC_DLL@DV?$ChTraitsCRT@D@ATL@@@@@ATL@@@Z 10014840 f   DBInpSub.obj
 0001:000138a0       ?func_genymd_to_seireki@@YAHH@Z 100148a0 f   DBInpSub.obj
 0001:00013940       ?TgDateBcdToSeireki@@YGHPAEPAVCDBZmSub@@@Z 10014940 f   DBInpSub.obj
 0001:000139a0       ?DBDinpSignUpdate@@YGHPAVCDBZmSub@@K@Z 100149a0 f   DBInpSub.obj
 0001:00013bb0       ?isBrnInpstr@@YGHPAD@Z     10014bb0 f   DBInpSub.obj
 0001:00013bf0       ?lastBrnInpStr@@YGHPBDPADH@Z 10014bf0 f   DBInpSub.obj
 0001:00013d00       ?GetKanaSearchType@@YGHXZ  10014d00 f   DBInpSub.obj
 0001:00013f10       ?GetInvoiceInfo@@YAHPAVCDBZmSub@@AAV?$CArray@U_INVOICE_INFO@@ABU1@@@@Z 10014f10 f   DBInpSub.obj
 0001:00014180       ?issykamok@@YGHPAU_DBKNREC@@@Z 10015180 f   DBInpSub.obj
 0001:000141b0       ?is_sisan_syutok@@YGHPAU_DBKNREC@@@Z 100151b0 f   DBInpSub.obj
 0001:000141e0       ?is_sisan_jyoto@@YGHPAU_DBKNREC@@@Z 100151e0 f   DBInpSub.obj
 0001:00014210       ?is_kasitaore@@YGHPAU_DBKNREC@@@Z 10015210 f   DBInpSub.obj
 0001:00014240       ?uri_attr_igai@@YGHPAU_DBKNREC@@@Z 10015240 f   DBInpSub.obj
 0001:00014280       ?sire_attr@@YGHPAU_DBKNREC@@@Z 10015280 f   DBInpSub.obj
 0001:000142e0       ?sql_sire@@YGXAAV?$CStringT@DV?$StrTraitMFC_DLL@DV?$ChTraitsCRT@D@ATL@@@@@ATL@@@Z 100152e0 f   DBInpSub.obj
 0001:00014300       ?GetMenzeiWariai@@YGHPAVCZVOLUME@@@Z 10015300 f   DBInpSub.obj
 0001:00014360       ?sql_sire_EX@@YGXAAV?$CStringT@DV?$StrTraitMFC_DLL@DV?$ChTraitsCRT@D@ATL@@@@@ATL@@@Z 10015360 f   DBInpSub.obj
 0001:00014380       ?GetSyzStopMode@@YGHXZ     10015380 f   DBInpSub.obj
 0001:00014510       ?func_invketachk@@YGXIPAVCWnd@@PBD@Z 10015510 f   DBInpSub.obj
 0001:000145f0       ?DBEditTextSize@@YG?AVCSize@@IPAVCWnd@@H@Z 100155f0 f   DBInpSub.obj
 0001:00014850       ??1COleFont@@QAE@XZ        10015850 f i DBInpSub.obj
 0001:00014890       ??0CDBINPDataRec@@QAE@XZ   10015890 f   DBInpSub.obj
 0001:00014980       ??1CDBINPDataRec@@QAE@XZ   10015980 f   DBInpSub.obj
 0001:000149f0       ?Reset@CDBINPDataRec@@QAEXXZ 100159f0 f   DBInpSub.obj
 0001:00014b60       ??4CDBINPDataRec@@QAEXABV0@@Z 10015b60 f   DBInpSub.obj
 0001:00014ce0       ??8CDBINPDataRec@@QAEHABV0@@Z 10015ce0 f   DBInpSub.obj
 0001:00014fe0       ??9CDBINPDataRec@@QAEHABV0@@Z 10015fe0 f   DBInpSub.obj
 0001:000152e0       ?convNewDataRec@@YAXPAVCDBipDataRec@@PAVCDBINPDataRec@@@Z 100162e0 f   DBInpSub.obj
 0001:00015430       ??1?$vector@HV?$allocator@H@std@@@std@@QAE@XZ 10016430 f i DBInpSub.obj
 0001:00015440       ?_Tidy@?$vector@HV?$allocator@H@std@@@std@@AAEXXZ 10016440 f i DBInpSub.obj
 0001:000154a0       ??$sprintf_s@$0CE@@@YAHAAY0CE@DPBDZZ 100164a0 f i DBInpSub.obj
 0001:000154c0       ?SetSize@?$CArray@U_INVOICE_INFO@@ABU1@@@QAEXHH@Z 100164c0 f i DBInpSub.obj
 0001:00015610       ??1CFont@@UAE@XZ           10016610 f i DBInpSub.obj
 0001:00015620       ??_GCFont@@UAEPAXI@Z       10016620 f i DBInpSub.obj
 0001:00015620       ??_ECFont@@UAEPAXI@Z       10016620 f i * CIL library *:* CIL module *
 0001:00015660       ?GetTextExtent@CDC@@QBE?AVCSize@@ABV?$CStringT@DV?$StrTraitMFC_DLL@DV?$ChTraitsCRT@D@ATL@@@@@ATL@@@Z 10016660 f i DBInpSub.obj
 0001:000156a0       ??1CCheckListBox@@UAE@XZ   100166a0 f i DBInpSub.obj
 0001:000156b0       ??1mctl_usertbl@@QAE@XZ    100166b0 f i DBInpSub.obj
 0001:000156e0       ?hl_lev@@YGGF@Z            100166e0 f   dbzmgdtsub.obj
 0001:000156f0       ?itoHEX@@YGJK@Z            100166f0 f   dbzmgdtsub.obj
 0001:00015740       ?HEXtoi@@YGJK@Z            10016740 f   dbzmgdtsub.obj
 0001:00015780       ?isSYOGT_CODE@@YGHPBDH@Z   10016780 f   dbzmgdtsub.obj
 0001:000157a0       ?isGNKIN_CODE@@YGHPBDH@Z   100167a0 f   dbzmgdtsub.obj
 0001:00015800       ?ffind@@YGPBDPBDI@Z        10016800 f   dbzmgdtsub.obj
 0001:000158f0       ??_GCDenpScan@@UAEPAXI@Z   100168f0 f i DenpScan.obj
 0001:000158f0       ??_ECDenpScan@@UAEPAXI@Z   100168f0 f i * CIL library *:* CIL module *
 0001:00015960       ??0tag_SheetTable@@QAE@XZ  10016960 f i DenpScan.obj
 0001:00015a30       ??1tag_SheetTable@@QAE@XZ  10016a30 f i DenpScan.obj
 0001:00015ae0       ??1CDenpScan@@UAE@XZ       10016ae0 f   DenpScan.obj
 0001:00015b90       ?get_scanuser@CDenpScan@@IAEHXZ 10016b90 f   DenpScan.obj
 0001:00015cb0       ?DenpScanOpen@CDenpScan@@QAEHV?$CStringT@DV?$StrTraitMFC_DLL@DV?$ChTraitsCRT@D@ATL@@@@@ATL@@G@Z 10016cb0 f   DenpScan.obj
 0001:00016120       ?set_sheet@CDenpScan@@IAEHKHH@Z 10017120 f   DenpScan.obj
 0001:000170f0       ??4tag_SheetTable@@QAEAAU0@ABU0@@Z 100180f0 f i DenpScan.obj
 0001:000173f0       ?init_sheet@CDenpScan@@IAEXPAUtag_SheetTable@@@Z 100183f0 f   DenpScan.obj
 0001:00017520       ?SetOriginData@CDenpScan@@QAEXHHAAVCDBINPDataRec@@@Z 10018520 f   DenpScan.obj
 0001:000175e0       ?SheetTableUpdate@CDenpScan@@QAEXHPAVCDBINPDataRec@@PAUtag_AddNewTbl@@@Z 100185e0 f   DenpScan.obj
 0001:00017810       ?IsAddData@CDenpScan@@QAEHHH@Z 10018810 f   DenpScan.obj
 0001:00017840       ?IsFukugoSiwake@CDenpScan@@QAEHH@Z 10018840 f   DenpScan.obj
 0001:00017890       ?AddSheetTable@CDenpScan@@QAEXHHPAVCDBINPDataRec@@PAU__SYDATA@@@Z 10018890 f   DenpScan.obj
 0001:00017a90       ?SetOriginValttl@CDenpScan@@QAEXXZ 10018a90 f   DenpScan.obj
 0001:00017cf0       ?DenpDelelteJob@CDenpScan@@QAEHXZ 10018cf0 f   DenpScan.obj
 0001:00018030       ?InsertDenpLine@CDenpScan@@QAEHH@Z 10019030 f   DenpScan.obj
 0001:00018280       ?InsertLineJob@CDenpScan@@QAEXHPAUtag_SheetTable@@0@Z 10019280 f   DenpScan.obj
 0001:000185d0       ?DeleteDenpLine@CDenpScan@@QAEHH@Z 100195d0 f   DenpScan.obj
 0001:00018810       ?DeleteLineJob@CDenpScan@@QAEXHPAUtag_SheetTable@@0@Z 10019810 f   DenpScan.obj
 0001:00018b20       ?IsTanitsuSiwake@CDenpScan@@QAEHH@Z 10019b20 f   DenpScan.obj
 0001:00018b60       ??0?$vector@HV?$allocator@H@std@@@std@@QAE@ABV01@@Z 10019b60 f i DenpScan.obj
 0001:00018c20       ?_Xlength@?$vector@V?$CStringT@DV?$StrTraitMFC_DLL@DV?$ChTraitsCRT@D@ATL@@@@@ATL@@V?$allocator@V?$CStringT@DV?$StrTraitMFC_DLL@DV?$ChTraitsCRT@D@ATL@@@@@ATL@@@std@@@std@@CAXXZ 10019c20 f i DnpBaseClass.obj
 0001:00018c20       ?_Xlength@?$vector@HV?$allocator@H@std@@@std@@CAXXZ 10019c20 f i DenpScan.obj
 0001:00018c30       ??1?$CArray@Utag_SheetTable@@AAU1@@@UAE@XZ 10019c30 f i DenpScan.obj
 0001:00018c80       ?Serialize@?$CArray@Utag_SheetTable@@AAU1@@@UAEXAAVCArchive@@@Z 10019c80 f i DenpScan.obj
 0001:00018d60       ??1?$CArray@Utag_IcnoInfo@@AAU1@@@UAE@XZ 10019d60 f i DenpScan.obj
 0001:00018d80       ?Serialize@?$CArray@Utag_IcnoInfo@@AAU1@@@UAEXAAVCArchive@@@Z 10019d80 f i DenpScan.obj
 0001:00018e50       ??$_Emplace_reallocate@ABH@?$vector@HV?$allocator@H@std@@@std@@QAEPAHQAHABH@Z 10019e50 f i DenpScan.obj
 0001:00018fb0       ??_G?$CArray@Utag_SheetTable@@AAU1@@@UAEPAXI@Z 10019fb0 f i DenpScan.obj
 0001:00018fb0       ??_E?$CArray@Utag_SheetTable@@AAU1@@@UAEPAXI@Z 10019fb0 f i * CIL library *:* CIL module *
 0001:00018ff0       ??_E?$CArray@Utag_IcnoInfo@@AAU1@@@UAEPAXI@Z 10019ff0 f i * CIL library *:* CIL module *
 0001:00018ff0       ??_G?$CArray@Utag_IcnoInfo@@AAU1@@@UAEPAXI@Z 10019ff0 f i DenpScan.obj
 0001:00019040       ?SetSize@?$CArray@Utag_SheetTable@@AAU1@@@QAEXHH@Z 1001a040 f i DenpScan.obj
 0001:000192a0       ?SetSize@?$CArray@Utag_IcnoInfo@@AAU1@@@QAEXHH@Z 1001a2a0 f i DenpScan.obj
 0001:00019740       ?_get_dinpsetup@@YAHHPBDPAHPAV?$CStringT@DV?$StrTraitMFC_DLL@DV?$ChTraitsCRT@D@ATL@@@@@ATL@@@Z 1001a740 f   DinpINI.obj
 0001:00019990       ??0CDinpINI@@QAE@XZ        1001a990 f   DinpINI.obj
 0001:000199d0       ??1CDinpINI@@UAE@XZ        1001a9d0 f   DinpINI.obj
 0001:000199e0       ?Init@CDinpINI@@QAEXPAVCDBZmSub@@@Z 1001a9e0 f   DinpINI.obj
 0001:00019af0       ?syogbrn_ok@CDinpINI@@AAEHPAVCZVOLUME@@@Z 1001aaf0 f   DinpINI.obj
 0001:00019b90       ?get_dinpsetup@CDinpINI@@AAEHPADPAHPAV?$CStringT@DV?$StrTraitMFC_DLL@DV?$ChTraitsCRT@D@ATL@@@@@ATL@@@Z 1001ab90 f   DinpINI.obj
 0001:00019b90       ?set_dinpsetup@CDinpINI@@AAEHPADPAHPAV?$CStringT@DV?$StrTraitMFC_DLL@DV?$ChTraitsCRT@D@ATL@@@@@ATL@@@Z 1001ab90 f   DinpINI.obj
 0001:00019ba0       ?get_dinpsetup@CDinpINI@@AAEHHPAHPAV?$CStringT@DV?$StrTraitMFC_DLL@DV?$ChTraitsCRT@D@ATL@@@@@ATL@@@Z 1001aba0 f   DinpINI.obj
 0001:00019c90       ?GetDinpSW@CDinpINI@@QAEPAU_AUTOSEL@@XZ 1001ac90 f   DinpINI.obj
 0001:0001b1c0       ?SetDinpSW@CDinpINI@@QAEHPAU_AUTOSEL@@H@Z 1001c1c0 f   DinpINI.obj
 0001:0001c240       ?get_inpswtbl@CDinpINI@@IAEPAU_AUTOSEL@@XZ 1001d240 f   DinpINI.obj
 0001:0001c250       ___scrt_stub_for_is_c_termination_complete 1001d250 f   msvcrt:ucrt_stubs.obj
 0001:0001c250       __is_c_termination_complete 1001d250 f   msvcrt:ucrt_stubs.obj
 0001:0001c250       ?isMkSyImpDta@CDinpINI@@QAEHXZ 1001d250 f   DinpINI.obj
 0001:0001c260       ?isBrTekDisp@CDinpINI@@QAEHXZ 1001d260 f   DinpINI.obj
 0001:0001c2a0       ?IsBumonDisp@CDinpINI@@QAEHXZ 1001d2a0 f   DinpINI.obj
 0001:0001c2c0       ??_ECDinpINI@@UAEPAXI@Z    1001d2c0 f i DinpINI.obj
 0001:0001c370       ??4Jz2Optionweb@@QAEAAV0@ABV0@@Z 1001d370 f i DInputSub.obj
 0001:0001c370       ??4Jz2Option@@QAEAAV0@ABV0@@Z 1001d370 f i DInputSub.obj
 0001:0001c370       ??4CSelectData@@QAEAAV0@ABV0@@Z 1001d370 f i stdafx.obj
 0001:0001c380       ??_EjcMasterXmlArray@@UAEPAXI@Z 1001d380 f i * CIL library *:* CIL module *
 0001:0001c380       ??_E?$CArray@VjcMasterXml@@V1@@@UAEPAXI@Z 1001d380 f i * CIL library *:* CIL module *
 0001:0001c380       ??_G?$CArray@VjcMasterXml@@V1@@@UAEPAXI@Z 1001d380 f i DInputSub.obj
 0001:0001c380       ??_GjcMasterXmlArray@@UAEPAXI@Z 1001d380 f i DInputSub.obj
 0001:0001c3c0       ??0jcMasterInfo@@QAE@XZ    1001d3c0 f i DInputSub.obj
 0001:0001c410       ??1jcMasterInfo@@QAE@XZ    1001d410 f i DInputSub.obj
 0001:0001c440       ?SetSelectFix8@CDInputSub@@SGHPAU_SelTable@@PAU_SelSetProcPar@@HPAVCWnd@@@Z 1001d440 f   DInputSub.obj
 0001:0001c440       ?SetSelectSel32@CDInputSub@@SGHPAU_SelTable@@PAU_SelSetProcPar@@HPAVCWnd@@@Z 1001d440 f   DInputSub.obj
 0001:0001c450       ??0CDInputSub@@QAE@XZ      1001d450 f   DInputSub.obj
 0001:0001c5b0       ??_ECDInputSub@@UAEPAXI@Z  1001d5b0 f i * CIL library *:* CIL module *
 0001:0001c5b0       ??_GCDInputSub@@UAEPAXI@Z  1001d5b0 f i DInputSub.obj
 0001:0001c5e0       ??1CDInputSub@@UAE@XZ      1001d5e0 f   DInputSub.obj
 0001:0001c6b0       ?func_initsub@CDInputSub@@IAEHPAVCDBZmSub@@PAVCDBSyohi@@PAU_AUTOSEL@@PAVCWnd@@@Z 1001d6b0 f   DInputSub.obj
 0001:0001ce60       ??_ECZIM_TkjourUtil@@UAEPAXI@Z 1001de60 f i * CIL library *:* CIL module *
 0001:0001ce60       ??_GCZIM_TkjourUtil@@UAEPAXI@Z 1001de60 f i DInputSub.obj
 0001:0001ce90       ?CloseSub@CDInputSub@@QAEXXZ 1001de90 f   DInputSub.obj
 0001:0001cf20       ?IsKoji@CDInputSub@@QAEHXZ 1001df20 f   DInputSub.obj
 0001:0001cf40       ?km_syattr@CDInputSub@@QAEHPAU_DBKNREC@@@Z 1001df40 f   DInputSub.obj
 0001:0001d0a0       ?km_syattr@CDInputSub@@QAEHAAV?$CStringT@DV?$StrTraitMFC_DLL@DV?$ChTraitsCRT@D@ATL@@@@@ATL@@@Z 1001e0a0 f   DInputSub.obj
 0001:0001d150       ?km_yusyutsu@CDInputSub@@QAEHAAV?$CStringT@DV?$StrTraitMFC_DLL@DV?$ChTraitsCRT@D@ATL@@@@@ATL@@@Z 1001e150 f   DInputSub.obj
 0001:0001d200       ?invmove@@YAXPADHV?$CStringT@DV?$StrTraitMFC_DLL@DV?$ChTraitsCRT@D@ATL@@@@@ATL@@@Z 1001e200 f   DInputSub.obj
 0001:0001d290       ?GetCData@CDInputSub@@QAEXPAVCDBipDataRec@@@Z 1001e290 f   DInputSub.obj
 0001:0001d420       ?GetCData@CDInputSub@@QAEXPAVCDBINPDataRec@@@Z 1001e420 f   DInputSub.obj
 0001:0001d5c0       ?SetCDBData@CDInputSub@@QAEXPAVCDBipDataRec@@@Z 1001e5c0 f   DInputSub.obj
 0001:0001d760       ?SetCDBData@CDInputSub@@QAEXPAVCDBINPDataRec@@@Z 1001e760 f   DInputSub.obj
 0001:0001d910       ?GetCDBData@CDInputSub@@QAEXPAVCDBipDataRec@@PAVCDBDATA@@@Z 1001e910 f   DInputSub.obj
 0001:0001daa0       ?GetCDBData@CDInputSub@@QAEXPAVCDBINPDataRec@@PAVCDBDATA@@@Z 1001eaa0 f   DInputSub.obj
 0001:0001dc40       ?DB_DataCorrect@CDInputSub@@QAEHPAVCDBINPDataRec@@@Z 1001ec40 f   DInputSub.obj
 0001:0001dda0       ?IsHjiyuItemGyosyu@CDInputSub@@QAEHXZ 1001eda0 f   DInputSub.obj
 0001:0001de10       ?DB_SyIniz@CDInputSub@@QAEHPAVCDBINPDataRec@@@Z 1001ee10 f   DInputSub.obj
 0001:0001def0       ?sy_chk_txt@CDInputSub@@QAEPBDPAVCDBINPDataRec@@PAU_SY_MSG_PACK2@@@Z 1001eef0 f   DInputSub.obj
 0001:0001e050       ?brchk1@CDInputSub@@QAEHPAVCDBINPDataRec@@H@Z 1001f050 f   DInputSub.obj
 0001:0001e0b0       ?bchk_dbr@CDInputSub@@QAEHPAVCDBINPDataRec@@H@Z 1001f0b0 f   DInputSub.obj
 0001:0001e1c0       ?bchk_cbr@CDInputSub@@QAEHPAVCDBINPDataRec@@H@Z 1001f1c0 f   DInputSub.obj
 0001:0001e2d0       ?bchk_msg@CDInputSub@@QAEXHHHAAV?$CStringT@DV?$StrTraitMFC_DLL@DV?$ChTraitsCRT@D@ATL@@@@@ATL@@H@Z 1001f2d0 f   DInputSub.obj
 0001:0001e4a0       ?brzan_torok@CDInputSub@@QAEHPAVCWnd@@HV?$CStringT@DV?$StrTraitMFC_DLL@DV?$ChTraitsCRT@D@ATL@@@@@ATL@@HH@Z 1001f4a0 f   DInputSub.obj
 0001:0001e670       ?DB_EdabanMasterSearch@CDInputSub@@QAEHPAVCDBINPDataRec@@H@Z 1001f670 f   DInputSub.obj
 0001:0001e730       ?brmsrch@CDInputSub@@QAEHPAVCDBipEZREC@@PAVCDBINPDataRec@@H@Z 1001f730 f   DInputSub.obj
 0001:0001e840       ?br_entry@CDInputSub@@QAEHPAVCDBipEZREC@@PAVCDBipDataRec@@HH@Z 1001f840 f   DInputSub.obj
 0001:0001eb50       ?zroeda_torok@CDInputSub@@QAEHPAVCDBipDataRec@@H@Z 1001fb50 f   DInputSub.obj
 0001:0001ee30       ?br_entry@CDInputSub@@QAEHPAVCDBipEZREC@@PAVCDBINPDataRec@@HH@Z 1001fe30 f   DInputSub.obj
 0001:0001f140       ?zroeda_torok@CDInputSub@@QAEHPAVCDBINPDataRec@@H@Z 10020140 f   DInputSub.obj
 0001:0001f420       ?EdabanZanTorok@CDInputSub@@QAEHPAVCDBipEZREC@@@Z 10020420 f   DInputSub.obj
 0001:0001f590       ?BmnEdabanZanTorok@CDInputSub@@QAEHPAVCDBipEZREC@@H@Z 10020590 f   DInputSub.obj
 0001:0001f690       ?DB_EdabanZanSearch@CDInputSub@@QAEHAAV?$CStringT@DV?$StrTraitMFC_DLL@DV?$ChTraitsCRT@D@ATL@@@@@ATL@@H@Z 10020690 f   DInputSub.obj
 0001:0001f6e0       ?tkrec_queryAll@CDInputSub@@QAEXXZ 100206e0 f   DInputSub.obj
 0001:0001f720       ?_set_kmketc@CDInputSub@@QAEHPAU_SET_KMKETC@@H@Z 10020720 f   DInputSub.obj
 0001:0001f7b0       ?DB_TekiyoNoRead@CDInputSub@@QAEHPAVCDBipTKREC@@H@Z 100207b0 f   DInputSub.obj
 0001:0001f9e0       ?tbrasrch@CDInputSub@@QAEHPAVCDBINPDataRec@@HPAD1@Z 100209e0 f   DInputSub.obj
 0001:0001fb20       ?DB_TekiyoEdabanSet@CDInputSub@@QAEHPAVCDBipDataRec@@HH@Z 10020b20 f   DInputSub.obj
 0001:0001fe40       ?DB_TekiyoEdabanSet@CDInputSub@@QAEHPAVCDBINPDataRec@@HH@Z 10020e40 f   DInputSub.obj
 0001:00020150       ?DB_BmnEdabanMasterSearch@CDInputSub@@QAEHPAVCDBINPDataRec@@H@Z 10021150 f   DInputSub.obj
 0001:00020220       ?DB_BmnEdabanMasterSearch@CDInputSub@@QAEHPAVCDBINPDataRec@@HH@Z 10021220 f   DInputSub.obj
 0001:000202f0       ?IsInsertMaster@CDInputSub@@QAEHXZ 100212f0 f   DInputSub.obj
 0001:00020320       ?CheckConfirmBkColor@CDInputSub@@QAEHK@Z 10021320 f   DInputSub.obj
 0001:00020380       ?IsJozuEnvCloudMaster@CDInputSub@@QAEHXZ 10021380 f   DInputSub.obj
 0001:00020430       ?get_hjiyutitle@CDInputSub@@QAEPBDH@Z 10021430 f   DInputSub.obj
 0001:000204f0       ?IsGokeiBumon@CDInputSub@@QAEHH@Z 100214f0 f   DInputSub.obj
 0001:00020580       ?_set_bmnetc@CDInputSub@@QAEHPAU_SET_KMKETC@@@Z 10021580 f   DInputSub.obj
 0001:00020650       ?bmncode_ok@CDInputSub@@QAEHH@Z 10021650 f   DInputSub.obj
 0001:000206e0       ?GetLastDataSeq@CDInputSub@@QAEHXZ 100216e0 f   DInputSub.obj
 0001:000208d0       ?GetKariAutoBrnCnt@CDInputSub@@QAEHXZ 100218d0 f   DInputSub.obj
 0001:00020970       ?BumonZanTorok@CDInputSub@@QAEHHV?$CStringT@DV?$StrTraitMFC_DLL@DV?$ChTraitsCRT@D@ATL@@@@@ATL@@@Z 10021970 f   DInputSub.obj
 0001:00020ad0       ?DB_DataAppend@CDInputSub@@QAEHPAVCDBipDataRec@@H@Z 10021ad0 f   DInputSub.obj
 0001:00020ca0       ?DB_DataAppend@CDInputSub@@QAEHPAVCDBINPDataRec@@H@Z 10021ca0 f   DInputSub.obj
 0001:00020e70       ?SetInpDate@CDInputSub@@QAEXHH@Z 10021e70 f   DInputSub.obj
 0001:00020ef0       ?GetInputStrLen@CDInputSub@@QAEHPAE@Z 10021ef0 f   DInputSub.obj
 0001:00020f20       ?isdiff_data@CDInputSub@@QAEHPAVCDBipDataRec@@0@Z 10021f20 f   DInputSub.obj
 0001:000211f0       ?isdiff_data@CDInputSub@@QAEHPAVCDBINPDataRec@@0@Z 100221f0 f   DInputSub.obj
 0001:000214e0       ?dbzrec_get@CDInputSub@@QAEHPBDPAU_DBKZREC@@@Z 100224e0 f   DInputSub.obj
 0001:00021760       ?CalqSyogTotal@CDInputSub@@QAEHPBDPAD11@Z 10022760 f   DInputSub.obj
 0001:000219d0       ?BcdDateToYmd@CDInputSub@@QAEHPAEPAH@Z 100229d0 f   DInputSub.obj
 0001:00021b40       ?DateConv@CDInputSub@@QAEHPAEPAVCDBINPDataRec@@H@Z 10022b40 f   DInputSub.obj
 0001:00021b40       ?DateConv@CDInputSub@@QAEHPAEPAVCDBipDataRec@@H@Z 10022b40 f   DInputSub.obj
 0001:00021ce0       ?isSyzdiff_data@CDInputSub@@QAEHPAVCDBINPDataRec@@0@Z 10022ce0 f   DInputSub.obj
 0001:00021ee0       ?is_syohizeisiwake@CDInputSub@@QAEHPAVCDBDATA@@@Z 10022ee0 f   DInputSub.obj
 0001:00021f70       ?is_syohizeisiwake@CDInputSub@@QAEHPAVCDBipDataRec@@@Z 10022f70 f   DInputSub.obj
 0001:00022050       ?is_syohizeisiwake@CDInputSub@@QAEHPAVCDBINPDataRec@@@Z 10023050 f   DInputSub.obj
 0001:000220b0       ?IsDiffEdabanSyzSgn@CDInputSub@@QAEHPADH@Z 100230b0 f   DInputSub.obj
 0001:000221c0       ?isnot_defzeigaku@CDInputSub@@QAEHPAVCDBDATA@@AAK@Z 100231c0 f   DInputSub.obj
 0001:00022280       ?isnot_defzeigaku@CDInputSub@@QAEHPAVCDBINPDataRec@@AAK@Z 10023280 f   DInputSub.obj
 0001:00022370       ?is_yusyutsusiwake@CDInputSub@@QAEHPAVCDBDATA@@@Z 10023370 f   DInputSub.obj
 0001:00022400       ?is_yusyutsusiwake@CDInputSub@@QAEHPAVCDBipDataRec@@@Z 10023400 f   DInputSub.obj
 0001:000224e0       ?check_datelimit@CDInputSub@@QAEHPAE@Z 100234e0 f   DInputSub.obj
 0001:000226b0       ?inpdate_shimechk@CDInputSub@@QAEHPAEPAD@Z 100236b0 f   DInputSub.obj
 0001:00022910       ?Myvd_sign@CDInputSub@@QAEHPAE0@Z 10023910 f   DInputSub.obj
 0001:00022c00       ?KobetsuSiwakeCheck@CDInputSub@@QAEHPAVCDBINPDataRec@@H@Z 10023c00 f   DInputSub.obj
 0001:00022d60       ?IsTokuteiSyunyuData@CDInputSub@@QAEHPAVCDBINPDataRec@@@Z 10023d60 f   DInputSub.obj
 0001:00022de0       ?get_hjiyustr@CDInputSub@@QAEXEAAV?$CStringT@DV?$StrTraitMFC_DLL@DV?$ChTraitsCRT@D@ATL@@@@@ATL@@@Z 10023de0 f   DInputSub.obj
 0001:00022e40       ?is_sotomensiwake@CDInputSub@@QAEHPAVCDBDATA@@@Z 10023e40 f   DInputSub.obj
 0001:00022ed0       ?is_sotomensiwake@CDInputSub@@QAEHPAVCDBipDataRec@@@Z 10023ed0 f   DInputSub.obj
 0001:00022fa0       ?is_sotomensiwake@CDInputSub@@QAEHPAVCDBINPDataRec@@@Z 10023fa0 f   DInputSub.obj
 0001:00023000       ?is_invnosiwake@CDInputSub@@QAEHPAVCDBINPDataRec@@@Z 10024000 f   DInputSub.obj
 0001:000232c0       ?CheckTkrec@CDInputSub@@QAE_NPAU_SY_TKREC_@@@Z 100242c0 f   DInputSub.obj
 0001:00023340       ?find@?$_Tree@V?$_Tmap_traits@JU_CTKDATA_REC@CTkdicDlg@@U?$less@J@std@@V?$allocator@U?$pair@$$CBJU_CTKDATA_REC@CTkdicDlg@@@std@@@4@$0A@@std@@@std@@QAE?AV?$_Tree_iterator@V?$_Tree_val@U?$_Tree_simple_types@U?$pair@$$CBJU_CTKDATA_REC@CTkdicDlg@@@std@@@std@@@std@@@2@ABJ@Z 10024340 f i TkdicDlg.obj
 0001:00023340       ?find@?$_Tree@V?$_Tmap_traits@HU_BMNAME_DATA@@U?$less@H@std@@V?$allocator@U?$pair@$$CBHU_BMNAME_DATA@@@std@@@3@$0A@@std@@@std@@QAE?AV?$_Tree_iterator@V?$_Tree_val@U?$_Tree_simple_types@U?$pair@$$CBHU_BMNAME_DATA@@@std@@@std@@@std@@@2@ABH@Z 10024340 f i DInputSub.obj
 0001:00023390       ?_Buyheadnode@?$_Tree_comp_alloc@V?$_Tmap_traits@HU_BMNAME_DATA@@U?$less@H@std@@V?$allocator@U?$pair@$$CBHU_BMNAME_DATA@@@std@@@3@$0A@@std@@@std@@QAEPAU?$_Tree_node@U?$pair@$$CBHU_BMNAME_DATA@@@std@@PAX@2@XZ 10024390 f i DInputSub.obj
 0001:000233b0       ?_Erase@?$_Tree@V?$_Tmap_traits@HU_BMNAME_DATA@@U?$less@H@std@@V?$allocator@U?$pair@$$CBHU_BMNAME_DATA@@@std@@@3@$0A@@std@@@std@@IAEXPAU?$_Tree_node@U?$pair@$$CBHU_BMNAME_DATA@@@std@@PAX@2@@Z 100243b0 f i DInputSub.obj
 0001:00023400       ??1?$CArray@VjcMasterXml@@V1@@@UAE@XZ 10024400 f i DInputSub.obj
 0001:00023480       ?Serialize@?$CArray@VjcMasterXml@@V1@@@UAEXAAVCArchive@@@Z 10024480 f i DInputSub.obj
 0001:00023560       ?SetSize@?$CArray@VjcMasterXml@@V1@@@QAEXHH@Z 10024560 f i DInputSub.obj
 0001:00023880       ??0CArith@@QAE@XZ          10024880 f i DInputSub.obj
 0001:00023890       ??1_SY_MSG_PACK2@@QAE@XZ   10024890 f i DInputSub.obj
 0001:00023910       ??0_SY_MSG_PACK2@@QAE@XZ   10024910 f i DInputSub.obj
 0001:000239e0       ??_ECDlgToolBar@@UAEPAXI@Z 100249e0 f i * CIL library *:* CIL module *
 0001:000239e0       ??_GCDlgToolBar@@UAEPAXI@Z 100249e0 f i DlgToolBar.obj
 0001:00023a30       ?GetMessageMap@CDlgToolBar@@MBEPBUAFX_MSGMAP@@XZ 10024a30 f   DlgToolBar.obj
 0001:00023a40       ?OnIdleUpdateCmdUI@CDlgToolBar@@IAEJIJ@Z 10024a40 f   DlgToolBar.obj
 0001:00023a80       ??0CDnpBaseClass@@QAE@XZ   10024a80 f   DnpBaseClass.obj
 0001:00023e50       ??_ECDnpBaseClass@@UAEPAXI@Z 10024e50 f i * CIL library *:* CIL module *
 0001:00023e50       ??_GCDnpBaseClass@@UAEPAXI@Z 10024e50 f i DnpBaseClass.obj
 0001:00023e80       ??1?$map@V?$CStringT@DV?$StrTraitMFC_DLL@DV?$ChTraitsCRT@D@ATL@@@@@ATL@@HU?$less@V?$CStringT@DV?$StrTraitMFC_DLL@DV?$ChTraitsCRT@D@ATL@@@@@ATL@@@std@@V?$allocator@U?$pair@$$CBV?$CStringT@DV?$StrTraitMFC_DLL@DV?$ChTraitsCRT@D@ATL@@@@@ATL@@H@std@@@4@@std@@QAE@XZ 10024e80 f i DnpBaseClass.obj
 0001:00023ef0       ??1CDnpBaseClass@@UAE@XZ   10024ef0 f   DnpBaseClass.obj
 0001:00024120       ?SetSelectFix8@CDnpBaseClass@@SGHPAU_SelTable@@PAU_SelSetProcPar@@HPAVCWnd@@@Z 10025120 f   DnpBaseClass.obj
 0001:00024190       ?SetSelectSel32@CDnpBaseClass@@SGHPAU_SelTable@@PAU_SelSetProcPar@@HPAVCWnd@@@Z 10025190 f   DnpBaseClass.obj
 0001:00024400       ?bmnzan_count@CDnpBaseClass@@QAEHPAVCDatabase@@AAV?$CStringT@DV?$StrTraitMFC_DLL@DV?$ChTraitsCRT@D@ATL@@@@@ATL@@1@Z 10025400 f   DnpBaseClass.obj
 0001:00024650       ?fix8disp@CDnpBaseClass@@QAEXH@Z 10025650 f   DnpBaseClass.obj
 0001:000246a0       ?enable_fixval@CDnpBaseClass@@QAEXH@Z 100256a0 f   DnpBaseClass.obj
 0001:00024940       ?valtitle@CDnpBaseClass@@QAEXH@Z 10025940 f   DnpBaseClass.obj
 0001:00024aa0       ?CheckBumonInput@CDnpBaseClass@@QAEHH@Z 10025aa0 f   DnpBaseClass.obj
 0001:00024d20       ?InitWork@CDnpBaseClass@@QAEHH@Z 10025d20 f   DnpBaseClass.obj
 0001:000256d0       ??0_SelPar@@QAE@XZ         100266d0 f i DnpBaseClass.obj
 0001:00025700       ??1_SelPar@@QAE@XZ         10026700 f i DnpBaseClass.obj
 0001:00025700       ??1_SelectParam@@QAE@XZ    10026700 f i select_sub.obj
 0001:00025720       ?tky_select@CDnpBaseClass@@QAEHPAVCDBipTKREC@@PAD@Z 10026720 f   DnpBaseClass.obj
 0001:00025970       ??1_SelResult@@QAE@XZ      10026970 f i DnpBaseClass.obj
 0001:000259b0       ?Destroy_SyzInp@CDnpBaseClass@@QAEXXZ 100269b0 f   DnpBaseClass.obj
 0001:000259f0       ?Destroy_HusenInp@CDnpBaseClass@@QAEXXZ 100269f0 f   DnpBaseClass.obj
 0001:00025a50       ?Destroy_HjiyuInp@CDnpBaseClass@@QAEXXZ 10026a50 f   DnpBaseClass.obj
 0001:00025ab0       ?_get_hjiyustr@CDnpBaseClass@@QAEHHHAAV?$CStringT@DV?$StrTraitMFC_DLL@DV?$ChTraitsCRT@D@ATL@@@@@ATL@@@Z 10026ab0 f   DnpBaseClass.obj
 0001:00025bb0       ?SelItemDsp@CDnpBaseClass@@QAEJJ@Z 10026bb0 f   DnpBaseClass.obj
 0001:00025c80       ?BRNTKY_select@CDnpBaseClass@@QAEHHAAV?$CStringT@DV?$StrTraitMFC_DLL@DV?$ChTraitsCRT@D@ATL@@@@@ATL@@PADH@Z 10026c80 f   DnpBaseClass.obj
 0001:00025d60       ?IsHjiyuOrNPfuri@CDnpBaseClass@@QAEHPBD0@Z 10026d60 f   DnpBaseClass.obj
 0001:00025ec0       ?bmncode_todata@CDnpBaseClass@@QAEHPAVCDBINPDataRec@@HHHPAV?$CStringT@DV?$StrTraitMFC_DLL@DV?$ChTraitsCRT@D@ATL@@@@@ATL@@@Z 10026ec0 f   DnpBaseClass.obj
 0001:00025fd0       ?SelBmonDsp@CDnpBaseClass@@QAEJJ@Z 10026fd0 f   DnpBaseClass.obj
 0001:000260a0       ?kojicode_todata@CDnpBaseClass@@QAEHPAVCDBINPDataRec@@PAV?$CStringT@DV?$StrTraitMFC_DLL@DV?$ChTraitsCRT@D@ATL@@@@@ATL@@HH@Z 100270a0 f   DnpBaseClass.obj
 0001:000261d0       ?SelTkyDsp@CDnpBaseClass@@QAEJJ@Z 100271d0 f   DnpBaseClass.obj
 0001:000262c0       ?IsEnableHjiyu@CDnpBaseClass@@QAEHPAVCDBINPDataRec@@@Z 100272c0 f   DnpBaseClass.obj
 0001:00026460       ??0_BRNTKY_PAR@@QAE@XZ     10027460 f i DnpBaseClass.obj
 0001:00026480       ??1_BRNTKY_PAR@@QAE@XZ     10027480 f i DnpBaseClass.obj
 0001:000264a0       ??4_BRNTKY_PAR@@QAEAAU0@$$QAU0@@Z 100274a0 f i DnpBaseClass.obj
 0001:000264f0       ?koji_kanseicheck@CDnpBaseClass@@QAEHAAV?$CStringT@DV?$StrTraitMFC_DLL@DV?$ChTraitsCRT@D@ATL@@@@@ATL@@0H@Z 100274f0 f   DnpBaseClass.obj
 0001:00026670       ?bmn_noinpcheck@CDnpBaseClass@@QAEHHAAV?$CStringT@DV?$StrTraitMFC_DLL@DV?$ChTraitsCRT@D@ATL@@@@@ATL@@HPAV23@@Z 10027670 f   DnpBaseClass.obj
 0001:00026810       ?koji_noinpcheck@CDnpBaseClass@@QAEHAAV?$CStringT@DV?$StrTraitMFC_DLL@DV?$ChTraitsCRT@D@ATL@@@@@ATL@@0H@Z 10027810 f   DnpBaseClass.obj
 0001:00026960       ?_getPRDATA@CDnpBaseClass@@QAEPAU_DenpData@@HH@Z 10027960 f   DnpBaseClass.obj
 0001:000269c0       ?_getDATA@CDnpBaseClass@@QAEPAU_DenpData@@HH@Z 100279c0 f   DnpBaseClass.obj
 0001:00026a50       ?_getDATAs@CDnpBaseClass@@QAEPAU_DenpData@@PAU_DP_DATA_LINE@@H@Z 10027a50 f   DnpBaseClass.obj
 0001:00026ba0       ?getCND@CDnpBaseClass@@QAEPAU_DNPLINE_CND@@H@Z 10027ba0 f   DnpBaseClass.obj
 0001:00026be0       ?_getCND@CDnpBaseClass@@QAEPAU_DNPLINE_CND@@HH@Z 10027be0 f   DnpBaseClass.obj
 0001:00026c10       ?inzMAP@CDnpBaseClass@@QAEXXZ 10027c10 f   DnpBaseClass.obj
 0001:00026c60       ?_setMAP@CDnpBaseClass@@QAEXHH@Z 10027c60 f   DnpBaseClass.obj
 0001:00026d40       ?_getMAP@CDnpBaseClass@@QAEHHH@Z 10027d40 f   DnpBaseClass.obj
 0001:00026d90       ?_delMAP@CDnpBaseClass@@QAEXHH@Z 10027d90 f   DnpBaseClass.obj
 0001:00026eb0       ?_insMAP@CDnpBaseClass@@QAEXH@Z 10027eb0 f   DnpBaseClass.obj
 0001:00027080       ?get_MaxLine@CDnpBaseClass@@QAEHXZ 10028080 f   DnpBaseClass.obj
 0001:000270b0       ?get_linekamokucodeEX@CDnpBaseClass@@QAEXHAAV?$CStringT@DV?$StrTraitMFC_DLL@DV?$ChTraitsCRT@D@ATL@@@@@ATL@@0AAH1@Z 100280b0 f   DnpBaseClass.obj
 0001:000271f0       ?set_position@CDnpBaseClass@@QAEHHHH@Z 100281f0 f   DnpBaseClass.obj
 0001:00027400       ?ImgTekiyoSet@CDnpBaseClass@@QAEHPAVCDnpBaseDlg@@HH@Z 10028400 f   DnpBaseClass.obj
 0001:00027660       ?KamokuString@CDnpBaseClass@@QAEXPAU_DBKNREC@@PADH@Z 10028660 f   DnpBaseClass.obj
 0001:000276b0       ?ToViewFocusJob@CDnpBaseClass@@QAEHHHVCRect@@@Z 100286b0 f   DnpBaseClass.obj
 0001:00027b20       ?date_syzcheck@CDnpBaseClass@@QAEXPAVCDBINPDataRec@@@Z 10028b20 f   DnpBaseClass.obj
 0001:00027f80       ?DD_Set@CDnpBaseClass@@QAEXHE@Z 10028f80 f   DnpBaseClass.obj
 0001:000280d0       ?MM_Check@CDnpBaseClass@@QAEHHHPAE@Z 100290d0 f   DnpBaseClass.obj
 0001:000282e0       ?DateCheck_and_action@CDnpBaseClass@@QAEHH@Z 100292e0 f   DnpBaseClass.obj
 0001:000284c0       ?SelectDisp@CDnpBaseClass@@QAEXHH@Z 100294c0 f   DnpBaseClass.obj
 0001:00028720       ?OnFocusJob@CDnpBaseClass@@QAEHHHAAVCRect@@@Z 10029720 f   DnpBaseClass.obj
 0001:00028b60       ?LineChgJob@CDnpBaseClass@@QAEHPAVCDBINPDataRec@@HH@Z 10029b60 f   DnpBaseClass.obj
 0001:00028f80       ?total_dsp@CDnpBaseClass@@QAEXXZ 10029f80 f   DnpBaseClass.obj
 0001:00029050       ?total_clq@CDnpBaseClass@@QAEXXZ 1002a050 f   DnpBaseClass.obj
 0001:00029300       ?total_chk@CDnpBaseClass@@QAEHXZ 1002a300 f   DnpBaseClass.obj
 0001:00029330       ?mkSY_CREC@CDnpBaseClass@@QAEHPAVCDBINPDataRec@@HHH@Z 1002a330 f   DnpBaseClass.obj
 0001:00029f30       ?setDATE_CREC@CDnpBaseClass@@QAEHPAVCDBINPDataRec@@@Z 1002af30 f   DnpBaseClass.obj
 0001:0002a0a0       ?setSY_CREC@CDnpBaseClass@@QAEHPAVCDBINPDataRec@@HHH@Z 1002b0a0 f   DnpBaseClass.obj
 0001:0002b120       ?_get_dcsgn@CDnpBaseClass@@QAEHH@Z 1002c120 f   DnpBaseClass.obj
 0001:0002b170       ?PutsSyz@CDnpBaseClass@@QAEXHHPADD@Z 1002c170 f   DnpBaseClass.obj
 0001:0002b380       ?TekiyoCopy@CDnpBaseClass@@QAEHHAAV?$CStringT@DV?$StrTraitMFC_DLL@DV?$ChTraitsCRT@D@ATL@@@@@ATL@@@Z 1002c380 f   DnpBaseClass.obj
 0001:0002b780       ?GetNowDnpDialog@CDnpBaseClass@@QAEPAVCDnpBaseDlg@@XZ 1002c780 f   DnpBaseClass.obj
 0001:0002b7b0       ?SkbnInDisp@CDnpBaseClass@@QAEHHHVCRect@@@Z 1002c7b0 f   DnpBaseClass.obj
 0001:0002b930       ?kamoku_expan@CDnpBaseClass@@QAEXHHPAVCRect@@HH@Z 1002c930 f   DnpBaseClass.obj
 0001:0002bb30       ?IsHjiyuInput@CDnpBaseClass@@QAEHH@Z 1002cb30 f   DnpBaseClass.obj
 0001:0002bc30       ?FocusHjiyu@CDnpBaseClass@@QAEHHVCRect@@@Z 1002cc30 f   DnpBaseClass.obj
 0001:0002c050       ?FocusHusen@CDnpBaseClass@@QAEHHVCRect@@@Z 1002d050 f   DnpBaseClass.obj
 0001:0002c2a0       ?HusenDataSet@CDnpBaseClass@@QAEXH@Z 1002d2a0 f   DnpBaseClass.obj
 0001:0002c350       ?OnHusenInpMsg@CDnpBaseClass@@QAEJIJ@Z 1002d350 f   DnpBaseClass.obj
 0001:0002c600       ?IsTekiyoImage@CDnpBaseClass@@QAEHH@Z 1002d600 f   DnpBaseClass.obj
 0001:0002c660       ?SetFocusToImage@CDnpBaseClass@@QAEXHH@Z 1002d660 f   DnpBaseClass.obj
 0001:0002c6d0       ?KasiImageDisplay@CDnpBaseClass@@QAEXHH@Z 1002d6d0 f   DnpBaseClass.obj
 0001:0002c880       ?ImagePaintSw@CDnpBaseClass@@QAEXHHH@Z 1002d880 f   DnpBaseClass.obj
 0001:0002c930       ?ImageBackColor@CDnpBaseClass@@QAEXHH@Z 1002d930 f   DnpBaseClass.obj
 0001:0002c9a0       ?InsDelSgn@CDnpBaseClass@@QAEXH@Z 1002d9a0 f   DnpBaseClass.obj
 0001:0002cdc0       ?set_focus@CDnpBaseClass@@QAEXH@Z 1002ddc0 f   DnpBaseClass.obj
 0001:0002ce00       ?_set_focus@CDnpBaseClass@@QAEXHH@Z 1002de00 f   DnpBaseClass.obj
 0001:0002ce40       ?syogdsp@CDnpBaseClass@@QAEXXZ 1002de40 f   DnpBaseClass.obj
 0001:0002d060       ?IsAutoSiwake@CDnpBaseClass@@QAEHH@Z 1002e060 f   DnpBaseClass.obj
 0001:0002d110       ?tkyexpan@CDnpBaseClass@@QAEXHPAVCRect@@HH@Z 1002e110 f   DnpBaseClass.obj
 0001:0002d900       ?kjedit_expan@CDnpBaseClass@@QAEXHHPAVCRect@@HH@Z 1002e900 f   DnpBaseClass.obj
 0001:0002db70       ?tgnum_expan@CDnpBaseClass@@QAEXHPAVCRect@@HH@Z 1002eb70 f   DnpBaseClass.obj
 0001:0002dd90       ?bmnedit_expan@CDnpBaseClass@@QAEXHHPAVCRect@@HH@Z 1002ed90 f   DnpBaseClass.obj
 0001:0002e030       ?IsScanLine@CDnpBaseClass@@QAEHH@Z 1002f030 f   DnpBaseClass.obj
 0001:0002e0b0       ?ChangeType@CDnpBaseClass@@QAEXHH@Z 1002f0b0 f   DnpBaseClass.obj
 0001:0002e120       ?ScanAllTotalClc@CDnpBaseClass@@QAEXXZ 1002f120 f   DnpBaseClass.obj
 0001:0002e4f0       ?ScanTotalClc@CDnpBaseClass@@QAEXPAE0@Z 1002f4f0 f   DnpBaseClass.obj
 0001:0002e630       ?GetConfirmBackColor@CDnpBaseClass@@QAEKD@Z 1002f630 f   DnpBaseClass.obj
 0001:0002e690       ?get_MaxLineEX@CDnpBaseClass@@QAEHXZ 1002f690 f   DnpBaseClass.obj
 0001:0002e700       ?DnpLine_Chg@CDnpBaseClass@@QAEHHH@Z 1002f700 f   DnpBaseClass.obj
 0001:0002e860       ?lastinput_get@CDnpBaseClass@@QAEXXZ 1002f860 f   DnpBaseClass.obj
 0001:0002e8e0       ?daexpan@CDnpBaseClass@@QAEHPAVCDBINPDataRec@@@Z 1002f8e0 f   DnpBaseClass.obj
 0001:0002e930       ?FuriSyogPosition@CDnpBaseClass@@QAEHHH@Z 1002f930 f   DnpBaseClass.obj
 0001:0002ea00       ?SyogInp@CDnpBaseClass@@QAEJHHJPAH@Z 1002fa00 f   DnpBaseClass.obj
 0001:0002eb90       ?IsFuriSyogBrn@CDnpBaseClass@@QAEHXZ 1002fb90 f   DnpBaseClass.obj
 0001:0002ebc0       ?FukugoLine@CDnpBaseClass@@QAEHH@Z 1002fbc0 f   DnpBaseClass.obj
 0001:0002f140       ?TerminationSyz@CDnpBaseClass@@QAEJJ@Z 10030140 f   DnpBaseClass.obj
 0001:0002f6e0       ?ToViewTermJob@CDnpBaseClass@@QAEHHHJ@Z 100306e0 f   DnpBaseClass.obj
 0001:0002fd50       ?ToViewUpsideTermJob@CDnpBaseClass@@QAEHHJ@Z 10030d50 f   DnpBaseClass.obj
 0001:00030290       ?ToViewKanaTerm@CDnpBaseClass@@QAEXPBD@Z 10031290 f   DnpBaseClass.obj
 0001:00030550       ?OnTermDebtVal@CDnpBaseClass@@QAEXHJ@Z 10031550 f   DnpBaseClass.obj
 0001:00030a50       ?OnTermDebtZei@CDnpBaseClass@@QAEXHJ@Z 10031a50 f   DnpBaseClass.obj
 0001:00030d40       ?OnTermHjiyu@CDnpBaseClass@@QAEXHJ@Z 10031d40 f   DnpBaseClass.obj
 0001:00031190       ?_hjiyu_selectsub@CDnpBaseClass@@QAEXHHPAV?$CStringT@DV?$StrTraitMFC_DLL@DV?$ChTraitsCRT@D@ATL@@@@@ATL@@@Z 10032190 f   DnpBaseClass.obj
 0001:00031600       ?kesyu_chkdsp@CDnpBaseClass@@QAEXXZ 10032600 f   DnpBaseClass.obj
 0001:00031790       ?CheckImeEndBmon@CDnpBaseClass@@QAEHJPBD@Z 10032790 f   DnpBaseClass.obj
 0001:00031930       ?TerminationBmonDBedit@CDnpBaseClass@@QAEXIJJJ@Z 10032930 f   DnpBaseClass.obj
 0001:00031e80       ??0_SET_KMKETC@@QAE@XZ     10032e80 f i DnpBaseClass.obj
 0001:00031eb0       ??1_SET_KMKETC@@QAE@XZ     10032eb0 f i DnpBaseClass.obj
 0001:00031ed0       ?Bmn_Check@CDnpBaseClass@@QAEHHAAJPAHPAV?$CStringT@DV?$StrTraitMFC_DLL@DV?$ChTraitsCRT@D@ATL@@@@@ATL@@@Z 10032ed0 f   DnpBaseClass.obj
 0001:00032080       ?Bmn_Inp@CDnpBaseClass@@QAEJHJPAH@Z 10033080 f   DnpBaseClass.obj
 0001:00032390       ?Bmn_Copy@CDnpBaseClass@@QAEXHH@Z 10033390 f   DnpBaseClass.obj
 0001:00032400       ?GetBmnEtc@CDnpBaseClass@@QAEHPAU_SET_KMKETC@@@Z 10033400 f   DnpBaseClass.obj
 0001:00032440       ?GetKojiEtc@CDnpBaseClass@@QAEHPAU_SET_KMKETC@@@Z 10033440 f   DnpBaseClass.obj
 0001:00032490       ?_set_kojietc@CDnpBaseClass@@QAEHPAU_SET_KMKETC@@@Z 10033490 f   DnpBaseClass.obj
 0001:000324d0       ?CheckImeEndKoji@CDnpBaseClass@@QAEHJPBD@Z 100334d0 f   DnpBaseClass.obj
 0001:00032680       ?OnTermTgDate@CDnpBaseClass@@QAEXHJ@Z 10033680 f   DnpBaseClass.obj
 0001:00032a50       ?TerminationTgNumDBedit@CDnpBaseClass@@QAEXIJJJ@Z 10033a50 f   DnpBaseClass.obj
 0001:00032c80       ?OnTermTky@CDnpBaseClass@@QAEXHJ@Z 10033c80 f   DnpBaseClass.obj
 0001:000331f0       ?AutoSiwakeCheck@CDnpBaseClass@@QAEHH@Z 100341f0 f   DnpBaseClass.obj
 0001:000332d0       ?bmnkoji_to_tekiyo@CDnpBaseClass@@QAEXPAV?$CStringT@DV?$StrTraitMFC_DLL@DV?$ChTraitsCRT@D@ATL@@@@@ATL@@H@Z 100342d0 f   DnpBaseClass.obj
 0001:000334c0       ?IsTransDenpyo@CDnpBaseClass@@QAEHXZ 100344c0 f   DnpBaseClass.obj
 0001:00033520       ?DenpInp@CDnpBaseClass@@QAEJHJH@Z 10034520 f   DnpBaseClass.obj
 0001:000336c0       ?TgDateInp@CDnpBaseClass@@QAEXHHJJPAD@Z 100346c0 f   DnpBaseClass.obj
 0001:00033850       ?ZeiInp@CDnpBaseClass@@QAEJHHJJPAD@Z 10034850 f   DnpBaseClass.obj
 0001:00033a90       ?ZeiSet@CDnpBaseClass@@QAEXHHJPAD@Z 10034a90 f   DnpBaseClass.obj
 0001:00033c40       ?ValInp@CDnpBaseClass@@QAEJHHJJPAD@Z 10034c40 f   DnpBaseClass.obj
 0001:00033d60       ?ValSet@CDnpBaseClass@@QAEXHHJPAD@Z 10034d60 f   DnpBaseClass.obj
 0001:00034730       ?ValDel@CDnpBaseClass@@QAEJHH@Z 10035730 f   DnpBaseClass.obj
 0001:00034d80       ?ValCopy@CDnpBaseClass@@QAEXHH@Z 10035d80 f   DnpBaseClass.obj
 0001:00034f20       ?SetTandokuSameValue@CDnpBaseClass@@QAEXHH@Z 10035f20 f   DnpBaseClass.obj
 0001:000351d0       ?CheckKamoku@CDnpBaseClass@@QAEHJPBDPAU_KamokuData@@@Z 100361d0 f   DnpBaseClass.obj
 0001:00035420       ?ItemInp@CDnpBaseClass@@QAEJHHJPAU_KamokuData@@@Z 10036420 f   DnpBaseClass.obj
 0001:00035a50       ?GetBmnCode@CDnpBaseClass@@QAEHHH@Z 10036a50 f   DnpBaseClass.obj
 0001:00035ad0       ?ItemSet@CDnpBaseClass@@QAEHHHJPAU_KamokuData@@H@Z 10036ad0 f   DnpBaseClass.obj
 0001:000369b0       ?ItemDel@CDnpBaseClass@@QAEHHH@Z 100379b0 f   DnpBaseClass.obj
 0001:00036c10       ?SyzDel@CDnpBaseClass@@QAEHHH@Z 10037c10 f   DnpBaseClass.obj
 0001:00036d20       ?FuriHendJiyuCheck@CDnpBaseClass@@QAEXPAVCDBINPDataRec@@HHH@Z 10037d20 f   DnpBaseClass.obj
 0001:00036e60       ?HendJiyuCheck@CDnpBaseClass@@QAEXPAVCDBINPDataRec@@HH@Z 10037e60 f   DnpBaseClass.obj
 0001:00036f20       ?brnitm_to_tky@CDnpBaseClass@@QAEHHHAAV?$CStringT@DV?$StrTraitMFC_DLL@DV?$ChTraitsCRT@D@ATL@@@@@ATL@@H@Z 10037f20 f   DnpBaseClass.obj
 0001:00037230       ?TKsgnToSYDATA@CDnpBaseClass@@QAEXPAU__SYDATA@@PAVCDBipTKREC@@@Z 10038230 f   DnpBaseClass.obj
 0001:000372c0       ?tky_select_to_drec@CDnpBaseClass@@QAEHPAVCDBINPDataRec@@PAVCDBipTKREC@@PAD2H@Z 100382c0 f   DnpBaseClass.obj
 0001:000376c0       ?IsTekiyoSyzChg@CDnpBaseClass@@QAEHPAU__SYDATA@@@Z 100386c0 f   DnpBaseClass.obj
 0001:00037740       ?set_skbn_selsw@CDnpBaseClass@@QAEXPAVCDBINPDataRec@@PAU_DenpData@@H@Z 10038740 f   DnpBaseClass.obj
 0001:00037e90       ?ToViewAccelerator@CDnpBaseClass@@QAEHIJ@Z 10038e90 f   DnpBaseClass.obj
 0001:00038040       ?OnTermCredVal@CDnpBaseClass@@QAEXHJ@Z 10039040 f   DnpBaseClass.obj
 0001:00038320       ?OnTermCredZei@CDnpBaseClass@@QAEXHJ@Z 10039320 f   DnpBaseClass.obj
 0001:000385c0       ?OnTermCred@CDnpBaseClass@@QAEXHJ@Z 100395c0 f   DnpBaseClass.obj
 0001:00038b60       ?OnTermDsyog@CDnpBaseClass@@QAEXHJ@Z 10039b60 f   DnpBaseClass.obj
 0001:00038d80       ?OnTermCsyog@CDnpBaseClass@@QAEXHJ@Z 10039d80 f   DnpBaseClass.obj
 0001:00038f90       ?OnTermDebt@CDnpBaseClass@@QAEXHJ@Z 10039f90 f   DnpBaseClass.obj
 0001:00039480       ?OnTermDebtKoji@CDnpBaseClass@@QAEXHJ@Z 1003a480 f   DnpBaseClass.obj
 0001:000396e0       ?OnTermDebtBmn@CDnpBaseClass@@QAEXHJ@Z 1003a6e0 f   DnpBaseClass.obj
 0001:00039950       ?TerminationKojiDBedit@CDnpBaseClass@@QAEXIJJJ@Z 1003a950 f   DnpBaseClass.obj
 0001:0003a210       ?tky_select_dsp@CDnpBaseClass@@QAEXPAVCDBINPDataRec@@PAU_DP_DATA_LINE@@HPAVCDBipTKREC@@H@Z 1003b210 f   DnpBaseClass.obj
 0001:0003a9b0       ?TerminationTekiyo@CDnpBaseClass@@QAEXIJJJ@Z 1003b9b0 f   DnpBaseClass.obj
 0001:0003afc0       ?IsInputCharEnable@CDnpBaseClass@@QAEHXZ 1003bfc0 f   DnpBaseClass.obj
 0001:0003b210       ?ButtonDeleteJob@CDnpBaseClass@@QAEHXZ 1003c210 f   DnpBaseClass.obj
 0001:0003b820       ?data1line_clear@CDnpBaseClass@@QAEXH@Z 1003c820 f   DnpBaseClass.obj
 0001:0003ba50       ?MouseHookRbuttonJob@CDnpBaseClass@@QAEHPAUtagMOUSEHOOKSTRUCT@@@Z 1003ca50 f   DnpBaseClass.obj
 0001:0003bf00       ?OnLinePaste@CDnpBaseClass@@QAEXH@Z 1003cf00 f   DnpBaseClass.obj
 0001:0003c100       ?ButtonInsertJob@CDnpBaseClass@@QAEHXZ 1003d100 f   DnpBaseClass.obj
 0001:0003c380       ?ImeEndJob@CDnpBaseClass@@QAEXIJPBD0@Z 1003d380 f   DnpBaseClass.obj
 0001:0003c660       ?_KanaTermIcsinputTky@CDnpBaseClass@@QAEXPBDH@Z 1003d660 f   DnpBaseClass.obj
 0001:0003c820       ?tekiyo_selset@CDnpBaseClass@@QAEHPADHH@Z 1003d820 f   DnpBaseClass.obj
 0001:0003c970       ?swktekiyo_dspsub@CDnpBaseClass@@QAEXV?$CStringT@DV?$StrTraitMFC_DLL@DV?$ChTraitsCRT@D@ATL@@@@@ATL@@H@Z 1003d970 f   DnpBaseClass.obj
 0001:0003cb80       ?tekiyo_selset_subfunc@CDnpBaseClass@@QAEXHPAVCDBipTKREC@@H@Z 1003db80 f   DnpBaseClass.obj
 0001:0003cd00       ?MakeAutoSiwake@CDnpBaseClass@@QAEXPAVCDBipTKREC@@@Z 1003dd00 f   DnpBaseClass.obj
 0001:0003e080       ??1_ICS_TKREC_PAC_@@QAE@XZ 1003f080 f i DnpBaseClass.obj
 0001:0003e0c0       ?ToViewImageStaticFocus@CDnpBaseClass@@QAEXI@Z 1003f0c0 f   DnpBaseClass.obj
 0001:0003e610       ?ToViewImageStaticKey@CDnpBaseClass@@QAEXII@Z 1003f610 f   DnpBaseClass.obj
 0001:0003ebc0       ?dbedt_putback@CDnpBaseClass@@QAEXXZ 1003fbc0 f   DnpBaseClass.obj
 0001:0003ec40       ?get_hjnptitle@CDnpBaseClass@@QAEPBDXZ 1003fc40 f   DnpBaseClass.obj
 0001:0003eca0       ?FuriModeChange@CDnpBaseClass@@QAEHH@Z 1003fca0 f   DnpBaseClass.obj
 0001:0003ef00       ?IsTanBmnEnable@CDnpBaseClass@@QAEHXZ 1003ff00 f   DnpBaseClass.obj
 0001:0003f130       ?DispBmnKojiData@CDnpBaseClass@@QAEXH@Z 10040130 f   DnpBaseClass.obj
 0001:0003fee0       ?ChangeDnpyoInput@CDnpBaseClass@@QAEHXZ 10040ee0 f   DnpBaseClass.obj
 0001:000403f0       ?DenpDlgDisp@CDnpBaseClass@@QAEXH@Z 100413f0 f   DnpBaseClass.obj
 0001:00040600       ?inpctl_inz@CDnpBaseClass@@QAEXXZ 10041600 f   DnpBaseClass.obj
 0001:000408a0       ?sheet_clr@CDnpBaseClass@@QAEXHH@Z 100418a0 f   DnpBaseClass.obj
 0001:00040b20       ?inpdata_inz@CDnpBaseClass@@QAEXXZ 10041b20 f   DnpBaseClass.obj
 0001:00040f20       ?total_inz@CDnpBaseClass@@QAEXH@Z 10041f20 f   DnpBaseClass.obj
 0001:00040fe0       ?CheckDenpyoData@CDnpBaseClass@@QAEHH@Z 10041fe0 f   DnpBaseClass.obj
 0001:00041740       ?DisplayScanData@CDnpBaseClass@@QAEXXZ 10042740 f   DnpBaseClass.obj
 0001:00041ff0       ?CheckFuriBmnKoji@CDnpBaseClass@@QAEHXZ 10042ff0 f   DnpBaseClass.obj
 0001:00042330       ?SetScanData@CDnpBaseClass@@QAEXAAVCDBINPDataRec@@HH@Z 10043330 f   DnpBaseClass.obj
 0001:000450b0       ?TransLineSign@CDnpBaseClass@@QAEXPAVCDBINPDataRec@@H@Z 100460b0 f   DnpBaseClass.obj
 0001:000451a0       ?TransLine@CDnpBaseClass@@QAEXHHPAD@Z 100461a0 f   DnpBaseClass.obj
 0001:00045250       ?IsTransLine@CDnpBaseClass@@QAEHHAAD@Z 10046250 f   DnpBaseClass.obj
 0001:000452b0       ?DispBaseKmk@CDnpBaseClass@@QAEXXZ 100462b0 f   DnpBaseClass.obj
 0001:000453d0       ?ChangeKind@CDnpBaseClass@@QAEXH@Z 100463d0 f   DnpBaseClass.obj
 0001:00045800       ?DaWrite@CDnpBaseClass@@QAEHXZ 10046800 f   DnpBaseClass.obj
 0001:00045d90       ?IsUsedDenpNo@CDnpBaseClass@@QAEHH@Z 10046d90 f   DnpBaseClass.obj
 0001:00046030       ?CheckEdabanInput@CDnpBaseClass@@QAEHAAH0@Z 10047030 f   DnpBaseClass.obj
 0001:00046210       ?NoinpScrolChk@CDnpBaseClass@@QAEHHH@Z 10047210 f   DnpBaseClass.obj
 0001:00046330       ?CheckKOJI@CDnpBaseClass@@QAEHAAH0@Z 10047330 f   DnpBaseClass.obj
 0001:000465f0       ?CheckBmnNoInp@CDnpBaseClass@@QAEHAAH0@Z 100475f0 f   DnpBaseClass.obj
 0001:00046830       ?CheckBmnHani@CDnpBaseClass@@QAEHAAH0@Z 10047830 f   DnpBaseClass.obj
 0001:00046fd0       ?CheckKojiKmk@CDnpBaseClass@@QAEHAAH0@Z 10047fd0 f   DnpBaseClass.obj
 0001:000477d0       ??1_SWKCOD_DATA@@QAE@XZ    100487d0 f   SwlistSelDlg.obj
 0001:000477d0       ??1_SWK_REGSEL@@QAE@XZ     100487d0 f   SWKselDlg.obj
 0001:000477f0       ?CheckBmnTorok@CDnpBaseClass@@QAEHAAH0@Z 100487f0 f   DnpBaseClass.obj
 0001:000479e0       ?CheckKojiTorok@CDnpBaseClass@@QAEHAAH0@Z 100489e0 f   DnpBaseClass.obj
 0001:00047ca0       ?AppendData@CDnpBaseClass@@QAEHPAVCDBINPDataRec@@HPAUtag_AddNewTbl@@@Z 10048ca0 f   DnpBaseClass.obj
 0001:00047ee0       ?CheckAppendKojiKmk@CDnpBaseClass@@QAEHPAVCDBINPDataRec@@@Z 10048ee0 f   DnpBaseClass.obj
 0001:00048080       ?BmnTorokMessage@CDnpBaseClass@@QAEHHAAV?$vector@HV?$allocator@H@std@@@std@@H@Z 10049080 f   DnpBaseClass.obj
 0001:000481c0       ?KojiTorokMessage@CDnpBaseClass@@QAEHV?$CStringT@DV?$StrTraitMFC_DLL@DV?$ChTraitsCRT@D@ATL@@@@@ATL@@AAV?$vector@V?$CStringT@DV?$StrTraitMFC_DLL@DV?$ChTraitsCRT@D@ATL@@@@@ATL@@V?$allocator@V?$CStringT@DV?$StrTraitMFC_DLL@DV?$ChTraitsCRT@D@ATL@@@@@ATL@@@std@@@std@@H@Z 100491c0 f   DnpBaseClass.obj
 0001:00048430       ?ProfileSet@CDnpBaseClass@@QAEXXZ 10049430 f   DnpBaseClass.obj
 0001:00048700       ?EndScan@CDnpBaseClass@@QAEHH@Z 10049700 f   DnpBaseClass.obj
 0001:00048780       ?UpdatePage@CDnpBaseClass@@QAEHH@Z 10049780 f   DnpBaseClass.obj
 0001:00048fb0       ?MakeNewData@CDnpBaseClass@@QAEHHHPAVCDBINPDataRec@@@Z 10049fb0 f   DnpBaseClass.obj
 0001:0004a000       ?ModifyTaisyakuData@CDnpBaseClass@@QAEXHHAAHPAVCDBINPDataRec@@01@Z 1004b000 f   DnpBaseClass.obj
 0001:0004b100       ?ModifyDebtData@CDnpBaseClass@@QAEXHHAAHPAVCDBINPDataRec@@01@Z 1004c100 f   DnpBaseClass.obj
 0001:0004bac0       ?ModifyCredData@CDnpBaseClass@@QAEXHHAAHPAVCDBINPDataRec@@01@Z 1004cac0 f   DnpBaseClass.obj
 0001:0004c420       ?ModifyData@CDnpBaseClass@@QAEHPAVCDBINPDataRec@@H@Z 1004d420 f   DnpBaseClass.obj
 0001:0004c850       ?da_make@CDnpBaseClass@@QAEHHPAVCDBINPDataRec@@@Z 1004d850 f   DnpBaseClass.obj
 0001:0004da50       ?siwake_mak@CDnpBaseClass@@QAEHPAU_DP_DATA_LINE@@PAVCDBINPDataRec@@H@Z 1004ea50 f   DnpBaseClass.obj
 0001:0004f630       ?sydata_mak@CDnpBaseClass@@QAEHPAVCDBINPDataRec@@0HPAU_DP_DATA_LINE@@@Z 10050630 f   DnpBaseClass.obj
 0001:0004f9d0       ?ModifyCheckKojikmk@CDnpBaseClass@@QAEHPAVCDBINPDataRec@@HAAH1H@Z 100509d0 f   DnpBaseClass.obj
 0001:000503c0       ?ModifyCheckKojiTorok@CDnpBaseClass@@QAEHPAVCDBINPDataRec@@HAAH1H@Z 100513c0 f   DnpBaseClass.obj
 0001:000507d0       ?ModifyCheckKoji@CDnpBaseClass@@QAEHPAVCDBINPDataRec@@HAAH1H@Z 100517d0 f   DnpBaseClass.obj
 0001:00050c30       ?ModifyCheckBmnHani@CDnpBaseClass@@QAEHPAVCDBINPDataRec@@HAAH1H@Z 10051c30 f   DnpBaseClass.obj
 0001:00051300       ?ModifyCheckEdabanInput@CDnpBaseClass@@QAEHPAVCDBINPDataRec@@HAAH1H@Z 10052300 f   DnpBaseClass.obj
 0001:00051a80       ?ModifyCheckBmnTorok@CDnpBaseClass@@QAEHPAVCDBINPDataRec@@HAAH1H@Z 10052a80 f   DnpBaseClass.obj
 0001:00051dc0       ?mdfy_bmn_noinp_check@CDnpBaseClass@@QAEHHAAV?$CStringT@DV?$StrTraitMFC_DLL@DV?$ChTraitsCRT@D@ATL@@@@@ATL@@HPAV23@@Z 10052dc0 f   DnpBaseClass.obj
 0001:00051ee0       ?ModifyCheckBmnNoInp@CDnpBaseClass@@QAEHPAVCDBINPDataRec@@HAAH1H@Z 10052ee0 f   DnpBaseClass.obj
 0001:000524f0       ?kojimsg_make@CDnpBaseClass@@QAEHAAV?$CStringT@DV?$StrTraitMFC_DLL@DV?$ChTraitsCRT@D@ATL@@@@@ATL@@HPAVCDBINPDataRec@@@Z 100534f0 f   DnpBaseClass.obj
 0001:000526c0       ?bmnmsg_make@CDnpBaseClass@@QAEHAAV?$CStringT@DV?$StrTraitMFC_DLL@DV?$ChTraitsCRT@D@ATL@@@@@ATL@@HPAVCDBINPDataRec@@@Z 100536c0 f   DnpBaseClass.obj
 0001:00052910       ?edabanmsg_make@CDnpBaseClass@@QAEHAAV?$CStringT@DV?$StrTraitMFC_DLL@DV?$ChTraitsCRT@D@ATL@@@@@ATL@@HPAVCDBINPDataRec@@H@Z 10053910 f   DnpBaseClass.obj
 0001:00052b90       ?edabanmsg_addjob@CDnpBaseClass@@QAEXAAV?$CStringT@DV?$StrTraitMFC_DLL@DV?$ChTraitsCRT@D@ATL@@@@@ATL@@V23@HAAHH@Z 10053b90 f   DnpBaseClass.obj
 0001:00052c40       ?IsNotFuriTanitsu@CDnpBaseClass@@QAEHH@Z 10053c40 f   DnpBaseClass.obj
 0001:00052ce0       ?SelectedIcsselctrl@CDnpBaseClass@@QAEXFJH@Z 10053ce0 f   DnpBaseClass.obj
 0001:000534f0       ?SetSkbnLineDisp@CDnpBaseClass@@QAEXXZ 100544f0 f   DnpBaseClass.obj
 0001:00053ca0       ?IsEnableToolBar@CDnpBaseClass@@QAEHH@Z 10054ca0 f   DnpBaseClass.obj
 0001:00053f10       ?ScanDeleteLine@CDnpBaseClass@@QAEXXZ 10054f10 f   DnpBaseClass.obj
 0001:00053fd0       ?ToolF12Job@CDnpBaseClass@@QAEHXZ 10054fd0 f   DnpBaseClass.obj
 0001:000541b0       ?Lineattr_dsp@CDnpBaseClass@@QAEXXZ 100551b0 f   DnpBaseClass.obj
 0001:00054460       ?GetSyzMdfySign@CDnpBaseClass@@QAEHH@Z 10055460 f   DnpBaseClass.obj
 0001:000544a0       ?ToolF7Job@CDnpBaseClass@@QAEHXZ 100554a0 f   DnpBaseClass.obj
 0001:00054b40       ?TkyEda_Redisp@CDnpBaseClass@@QAEXHPAU_DP_DATA_LINE@@@Z 10055b40 f   DnpBaseClass.obj
 0001:00054f80       ?TkyInpEndUpdate@CDnpBaseClass@@QAEXXZ 10055f80 f   DnpBaseClass.obj
 0001:00054ff0       ?bmneda_update@CDnpBaseClass@@QAEXHH@Z 10055ff0 f   DnpBaseClass.obj
 0001:00055070       ?KamokuUpdate@CDnpBaseClass@@QAEXHH@Z 10056070 f   DnpBaseClass.obj
 0001:00055510       ?ChangeZeiritsu@CDnpBaseClass@@QAEHXZ 10056510 f   DnpBaseClass.obj
 0001:00055b20       ?syobrnedit_expan@CDnpBaseClass@@QAEXHHPAVCRect@@HH@Z 10056b20 f   DnpBaseClass.obj
 0001:00055fb0       ?TerminationSyoBrnDBedit@CDnpBaseClass@@QAEXIJJJ@Z 10056fb0 f   DnpBaseClass.obj
 0001:00056380       ?syonum_expan@CDnpBaseClass@@QAEXHPAVCRect@@HH@Z 10057380 f   DnpBaseClass.obj
 0001:000565c0       ?TerminationSyoNumDBedit@CDnpBaseClass@@QAEXIJJJ@Z 100575c0 f   DnpBaseClass.obj
 0001:00056760       ?TerminationKmkinp@CDnpBaseClass@@QAEXIJJJ@Z 10057760 f   DnpBaseClass.obj
 0001:00056880       ?GetKamokuCtrlHWND@CDnpBaseClass@@QAEPAUHWND__@@XZ 10057880 f   DnpBaseClass.obj
 0001:000568d0       ?FukuKanaSearch@CDnpBaseClass@@QAEHPAUtagMSG@@H@Z 100578d0 f   DnpBaseClass.obj
 0001:00056d60       ?IsKamokuSyattr@CDnpBaseClass@@QAEHHH@Z 10057d60 f   DnpBaseClass.obj
 0001:00056e40       ?set_sotomen_sign@CDnpBaseClass@@QAEXHHH@Z 10057e40 f   DnpBaseClass.obj
 0001:00056ed0       ?ChangeSotoMenZei@CDnpBaseClass@@QAEHXZ 10057ed0 f   DnpBaseClass.obj
 0001:00057290       ??1?$vector@V?$CStringT@DV?$StrTraitMFC_DLL@DV?$ChTraitsCRT@D@ATL@@@@@ATL@@V?$allocator@V?$CStringT@DV?$StrTraitMFC_DLL@DV?$ChTraitsCRT@D@ATL@@@@@ATL@@@std@@@std@@QAE@XZ 10058290 f i DnpBaseClass.obj
 0001:00057300       ?find@?$_Tree@V?$_Tmap_traits@V?$CStringT@DV?$StrTraitMFC_DLL@DV?$ChTraitsCRT@D@ATL@@@@@ATL@@HU?$less@V?$CStringT@DV?$StrTraitMFC_DLL@DV?$ChTraitsCRT@D@ATL@@@@@ATL@@@std@@V?$allocator@U?$pair@$$CBV?$CStringT@DV?$StrTraitMFC_DLL@DV?$ChTraitsCRT@D@ATL@@@@@ATL@@H@std@@@4@$0A@@std@@@std@@QAE?AV?$_Tree_iterator@V?$_Tree_val@U?$_Tree_simple_types@U?$pair@$$CBV?$CStringT@DV?$StrTraitMFC_DLL@DV?$ChTraitsCRT@D@ATL@@@@@ATL@@H@std@@@std@@@std@@@2@ABV?$CStringT@DV?$StrTraitMFC_DLL@DV?$ChTraitsCRT@D@ATL@@@@@ATL@@@Z 10058300 f i DnpBaseClass.obj
 0001:00057380       ?_Erase@?$_Tree@V?$_Tmap_traits@V?$CStringT@DV?$StrTraitMFC_DLL@DV?$ChTraitsCRT@D@ATL@@@@@ATL@@HU?$less@V?$CStringT@DV?$StrTraitMFC_DLL@DV?$ChTraitsCRT@D@ATL@@@@@ATL@@@std@@V?$allocator@U?$pair@$$CBV?$CStringT@DV?$StrTraitMFC_DLL@DV?$ChTraitsCRT@D@ATL@@@@@ATL@@H@std@@@4@$0A@@std@@@std@@IAEXPAU?$_Tree_node@U?$pair@$$CBV?$CStringT@DV?$StrTraitMFC_DLL@DV?$ChTraitsCRT@D@ATL@@@@@ATL@@H@std@@PAX@2@@Z 10058380 f i DnpBaseClass.obj
 0001:000573d0       ?_Destroy@?$vector@V?$CStringT@DV?$StrTraitMFC_DLL@DV?$ChTraitsCRT@D@ATL@@@@@ATL@@V?$allocator@V?$CStringT@DV?$StrTraitMFC_DLL@DV?$ChTraitsCRT@D@ATL@@@@@ATL@@@std@@@std@@AAEXPAV?$CStringT@DV?$StrTraitMFC_DLL@DV?$ChTraitsCRT@D@ATL@@@@@ATL@@0@Z 100583d0 f i DnpBaseClass.obj
 0001:00057400       ?deallocate@?$allocator@V?$CStringT@DV?$StrTraitMFC_DLL@DV?$ChTraitsCRT@D@ATL@@@@@ATL@@@std@@QAEXQAV?$CStringT@DV?$StrTraitMFC_DLL@DV?$ChTraitsCRT@D@ATL@@@@@ATL@@I@Z 10058400 f i DnpBaseClass.obj
 0001:00057440       ?_Buyheadnode@?$_Tree_comp_alloc@V?$_Tmap_traits@V?$CStringT@DV?$StrTraitMFC_DLL@DV?$ChTraitsCRT@D@ATL@@@@@ATL@@HU?$less@V?$CStringT@DV?$StrTraitMFC_DLL@DV?$ChTraitsCRT@D@ATL@@@@@ATL@@@std@@V?$allocator@U?$pair@$$CBV?$CStringT@DV?$StrTraitMFC_DLL@DV?$ChTraitsCRT@D@ATL@@@@@ATL@@H@std@@@4@$0A@@std@@@std@@QAEPAU?$_Tree_node@U?$pair@$$CBV?$CStringT@DV?$StrTraitMFC_DLL@DV?$ChTraitsCRT@D@ATL@@@@@ATL@@H@std@@PAX@2@XZ 10058440 f i DnpBaseClass.obj
 0001:00057460       ??1?$CArray@U_ICS_TKJOUR_PAC_@@AAU1@@@UAE@XZ 10058460 f i DnpBaseClass.obj
 0001:000574f0       ?Serialize@?$CArray@U_ICS_TKJOUR_PAC_@@AAU1@@@UAEXAAVCArchive@@@Z 100584f0 f i DnpBaseClass.obj
 0001:00057830       ?SetSize@?$CArray@VCDBINPDataRec@@AAV1@@@QAEXHH@Z 10058830 f i DnpBaseClass.obj
 0001:00057a90       ??1?$CArray@VCDBINPDataRec@@AAV1@@@UAE@XZ 10058a90 f i DnpBaseClass.obj
 0001:00057ae0       ?Serialize@?$CArray@VCDBINPDataRec@@AAV1@@@UAEXAAVCArchive@@@Z 10058ae0 f i DnpBaseClass.obj
 0001:00057bc0       ??$_Emplace_reallocate@ABV?$CStringT@DV?$StrTraitMFC_DLL@DV?$ChTraitsCRT@D@ATL@@@@@ATL@@@?$vector@V?$CStringT@DV?$StrTraitMFC_DLL@DV?$ChTraitsCRT@D@ATL@@@@@ATL@@V?$allocator@V?$CStringT@DV?$StrTraitMFC_DLL@DV?$ChTraitsCRT@D@ATL@@@@@ATL@@@std@@@std@@QAEPAV?$CStringT@DV?$StrTraitMFC_DLL@DV?$ChTraitsCRT@D@ATL@@@@@ATL@@QAV23@ABV23@@Z 10058bc0 f i DnpBaseClass.obj
 0001:00057e30       ??_E?$CArray@U_ICS_TKJOUR_PAC_@@AAU1@@@UAEPAXI@Z 10058e30 f i * CIL library *:* CIL module *
 0001:00057e30       ??_G?$CArray@U_ICS_TKJOUR_PAC_@@AAU1@@@UAEPAXI@Z 10058e30 f i DnpBaseClass.obj
 0001:00057ef0       ??_E?$CArray@VCDBINPDataRec@@AAV1@@@UAEPAXI@Z 10058ef0 f i * CIL library *:* CIL module *
 0001:00057ef0       ??_G?$CArray@VCDBINPDataRec@@AAV1@@@UAEPAXI@Z 10058ef0 f i DnpBaseClass.obj
 0001:00057f40       ?SetSize@?$CArray@U_ICS_TKJOUR_PAC_@@AAU1@@@QAEXHH@Z 10058f40 f i DnpBaseClass.obj
 0001:00058300       ?SetSize@?$CArray@UKJICHK@@AAU1@@@QAEXHH@Z 10059300 f   select_sub.obj
 0001:000587b0       ??$_Buynode@U?$pair@V?$CStringT@DV?$StrTraitMFC_DLL@DV?$ChTraitsCRT@D@ATL@@@@@ATL@@H@std@@@?$_Tree_comp_alloc@V?$_Tmap_traits@V?$CStringT@DV?$StrTraitMFC_DLL@DV?$ChTraitsCRT@D@ATL@@@@@ATL@@HU?$less@V?$CStringT@DV?$StrTraitMFC_DLL@DV?$ChTraitsCRT@D@ATL@@@@@ATL@@@std@@V?$allocator@U?$pair@$$CBV?$CStringT@DV?$StrTraitMFC_DLL@DV?$ChTraitsCRT@D@ATL@@@@@ATL@@H@std@@@4@$0A@@std@@@std@@QAEPAU?$_Tree_node@U?$pair@$$CBV?$CStringT@DV?$StrTraitMFC_DLL@DV?$ChTraitsCRT@D@ATL@@@@@ATL@@H@std@@PAX@1@$$QAU?$pair@V?$CStringT@DV?$StrTraitMFC_DLL@DV?$ChTraitsCRT@D@ATL@@@@@ATL@@H@1@@Z 100597b0 f i DnpBaseClass.obj
 0001:00058830       ??$_Insert_nohint@AAU?$pair@$$CBV?$CStringT@DV?$StrTraitMFC_DLL@DV?$ChTraitsCRT@D@ATL@@@@@ATL@@H@std@@PAU?$_Tree_node@U?$pair@$$CBV?$CStringT@DV?$StrTraitMFC_DLL@DV?$ChTraitsCRT@D@ATL@@@@@ATL@@H@std@@PAX@2@@?$_Tree@V?$_Tmap_traits@V?$CStringT@DV?$StrTraitMFC_DLL@DV?$ChTraitsCRT@D@ATL@@@@@ATL@@HU?$less@V?$CStringT@DV?$StrTraitMFC_DLL@DV?$ChTraitsCRT@D@ATL@@@@@ATL@@@std@@V?$allocator@U?$pair@$$CBV?$CStringT@DV?$StrTraitMFC_DLL@DV?$ChTraitsCRT@D@ATL@@@@@ATL@@H@std@@@4@$0A@@std@@@std@@IAE?AU?$pair@V?$_Tree_iterator@V?$_Tree_val@U?$_Tree_simple_types@U?$pair@$$CBV?$CStringT@DV?$StrTraitMFC_DLL@DV?$ChTraitsCRT@D@ATL@@@@@ATL@@H@std@@@std@@@std@@@std@@_N@1@_NAAU?$pair@$$CBV?$CStringT@DV?$StrTraitMFC_DLL@DV?$ChTraitsCRT@D@ATL@@@@@ATL@@H@1@PAU?$_Tree_node@U?$pair@$$CBV?$CStringT@DV?$StrTraitMFC_DLL@DV?$ChTraitsCRT@D@ATL@@@@@ATL@@H@std@@PAX@1@@Z 10059830 f i DnpBaseClass.obj
 0001:000589b0       ??1?$_Uninitialized_backout_al@PAV?$CStringT@DV?$StrTraitMFC_DLL@DV?$ChTraitsCRT@D@ATL@@@@@ATL@@V?$allocator@V?$CStringT@DV?$StrTraitMFC_DLL@DV?$ChTraitsCRT@D@ATL@@@@@ATL@@@std@@@std@@QAE@XZ 100599b0 f i DnpBaseClass.obj
 0001:000589e0       ?_Freenode0@?$_Tree_comp_alloc@V?$_Tmap_traits@V?$CStringT@DV?$StrTraitMFC_DLL@DV?$ChTraitsCRT@D@ATL@@@@@ATL@@HU?$less@V?$CStringT@DV?$StrTraitMFC_DLL@DV?$ChTraitsCRT@D@ATL@@@@@ATL@@@std@@V?$allocator@U?$pair@$$CBV?$CStringT@DV?$StrTraitMFC_DLL@DV?$ChTraitsCRT@D@ATL@@@@@ATL@@H@std@@@4@$0A@@std@@@std@@QAEXPAU?$_Tree_node@U?$pair@$$CBV?$CStringT@DV?$StrTraitMFC_DLL@DV?$ChTraitsCRT@D@ATL@@@@@ATL@@H@std@@PAX@2@@Z 100599e0 f i DnpBaseClass.obj
 0001:00058a00       ?_Buynode0@?$_Tree_comp_alloc@V?$_Tmap_traits@V?$CStringT@DV?$StrTraitMFC_DLL@DV?$ChTraitsCRT@D@ATL@@@@@ATL@@HU?$less@V?$CStringT@DV?$StrTraitMFC_DLL@DV?$ChTraitsCRT@D@ATL@@@@@ATL@@@std@@V?$allocator@U?$pair@$$CBV?$CStringT@DV?$StrTraitMFC_DLL@DV?$ChTraitsCRT@D@ATL@@@@@ATL@@H@std@@@4@$0A@@std@@@std@@QAEPAU?$_Tree_node@U?$pair@$$CBV?$CStringT@DV?$StrTraitMFC_DLL@DV?$ChTraitsCRT@D@ATL@@@@@ATL@@H@std@@PAX@2@XZ 10059a00 f i DnpBaseClass.obj
 0001:00058a20       ?_Destroy_if_node@?$_Tree@V?$_Tmap_traits@V?$CStringT@DV?$StrTraitMFC_DLL@DV?$ChTraitsCRT@D@ATL@@@@@ATL@@HU?$less@V?$CStringT@DV?$StrTraitMFC_DLL@DV?$ChTraitsCRT@D@ATL@@@@@ATL@@@std@@V?$allocator@U?$pair@$$CBV?$CStringT@DV?$StrTraitMFC_DLL@DV?$ChTraitsCRT@D@ATL@@@@@ATL@@H@std@@@4@$0A@@std@@@std@@IAEXPAU?$_Tree_node@U?$pair@$$CBV?$CStringT@DV?$StrTraitMFC_DLL@DV?$ChTraitsCRT@D@ATL@@@@@ATL@@H@std@@PAX@2@@Z 10059a20 f i DnpBaseClass.obj
 0001:00058a40       ??$_Insert_at@AAU?$pair@$$CBV?$CStringT@DV?$StrTraitMFC_DLL@DV?$ChTraitsCRT@D@ATL@@@@@ATL@@H@std@@PAU?$_Tree_node@U?$pair@$$CBV?$CStringT@DV?$StrTraitMFC_DLL@DV?$ChTraitsCRT@D@ATL@@@@@ATL@@H@std@@PAX@2@@?$_Tree@V?$_Tmap_traits@V?$CStringT@DV?$StrTraitMFC_DLL@DV?$ChTraitsCRT@D@ATL@@@@@ATL@@HU?$less@V?$CStringT@DV?$StrTraitMFC_DLL@DV?$ChTraitsCRT@D@ATL@@@@@ATL@@@std@@V?$allocator@U?$pair@$$CBV?$CStringT@DV?$StrTraitMFC_DLL@DV?$ChTraitsCRT@D@ATL@@@@@ATL@@H@std@@@4@$0A@@std@@@std@@IAE?AV?$_Tree_iterator@V?$_Tree_val@U?$_Tree_simple_types@U?$pair@$$CBV?$CStringT@DV?$StrTraitMFC_DLL@DV?$ChTraitsCRT@D@ATL@@@@@ATL@@H@std@@@std@@@std@@@1@_NPAU?$_Tree_node@U?$pair@$$CBV?$CStringT@DV?$StrTraitMFC_DLL@DV?$ChTraitsCRT@D@ATL@@@@@ATL@@H@std@@PAX@1@AAU?$pair@$$CBV?$CStringT@DV?$StrTraitMFC_DLL@DV?$ChTraitsCRT@D@ATL@@@@@ATL@@H@1@1@Z 10059a40 f i DnpBaseClass.obj
 0001:00058c70       ??_GCPen@@UAEPAXI@Z        10059c70 f i DnpBaseClass.obj
 0001:00058c70       ??_ECPen@@UAEPAXI@Z        10059c70 f i * CIL library *:* CIL module *
 0001:00058cb0       ??1CPen@@UAE@XZ            10059cb0 f i DnpBaseClass.obj
 0001:00058cc0       ?RedrawWindow@CWnd@@QAEHPBUtagRECT@@PAVCRgn@@I@Z 10059cc0 f i DnpBaseClass.obj
 0001:00058ce0       ??1CMenu@@UAE@XZ           10059ce0 f i DnpBaseClass.obj
 0001:00058d20       ??_ECMenu@@UAEPAXI@Z       10059d20 f i * CIL library *:* CIL module *
 0001:00058d20       ??_GCMenu@@UAEPAXI@Z       10059d20 f i DnpBaseClass.obj
 0001:00058da0       ?IsChild@CWnd@@QBEHPBV1@@Z 10059da0 f i DnpBaseClass.obj
 0001:00058dd0       ?del_idx@CDnpBaseDlg@@UAEHH@Z 10059dd0 f i DnpBaseDlg.obj
 0001:00058de0       ?GetDeleteRect@CDnpBaseDlg@@UAEXHAAVCRect@@@Z 10059de0 f i DnpBaseDlg.obj
 0001:00058de0       ?GetLineRect@CDnpBaseDlg@@UAEXHAAVCRect@@@Z 10059de0 f i DnpBaseDlg.obj
 0001:00058df0       ?ScrollbarMsgFunc@CDnpBaseDlg@@UAEHIIJ@Z 10059df0 f i DnpBaseDlg.obj
 0001:00058e00       ?check_syzstring@@YAXAAV?$CStringT@DV?$StrTraitMFC_DLL@DV?$ChTraitsCRT@D@ATL@@@@@ATL@@@Z 10059e00 f   DnpBaseDlg.obj
 0001:00058f90       ?_GetBaseClass@CDnpBaseDlg@@KGPAUCRuntimeClass@@XZ 10059f90 f   DnpBaseDlg.obj
 0001:00058f90       ?_GetBaseClass@CTkySel@@KGPAUCRuntimeClass@@XZ 10059f90 f   TkySel.obj
 0001:00058f90       ?_GetBaseClass@CDnpInpDialog@@KGPAUCRuntimeClass@@XZ 10059f90 f   DnpInpDialog.obj
 0001:00058f90       ?_GetBaseClass@CHjiyuDlg@@KGPAUCRuntimeClass@@XZ 10059f90 f   HjiyuDlg.obj
 0001:00058f90       ?_GetBaseClass@CIndkmkDlg@@KGPAUCRuntimeClass@@XZ 10059f90 f   IndkmkDlg.obj
 0001:00058f90       ?_GetBaseClass@CTkyEdaDlg@@KGPAUCRuntimeClass@@XZ 10059f90 f   TkyEdaDlg.obj
 0001:00058f90       ?_GetBaseClass@CKpubDlg@@KGPAUCRuntimeClass@@XZ 10059f90 f   KpubDlg.obj
 0001:00058f90       ?_GetBaseClass@CTkyVer2Dlg@@KGPAUCRuntimeClass@@XZ 10059f90 f   TkyVer2Dlg.obj
 0001:00058fa0       ?_GetBaseClass@CNSDenpDlg@@KGPAUCRuntimeClass@@XZ 10059fa0 f   NSDenpDlg.obj
 0001:00058fa0       ?_GetBaseClass@CFuriDlg@@KGPAUCRuntimeClass@@XZ 10059fa0 f   FuriDlg.obj
 0001:00058fa0       ?GetRuntimeClass@CDnpBaseDlg@@UBEPAUCRuntimeClass@@XZ 10059fa0 f   DnpBaseDlg.obj
 0001:00058fb0       ??0CDnpBaseDlg@@QAE@IPAVCWnd@@@Z 10059fb0 f   DnpBaseDlg.obj
 0001:00059060       ??_ECDnpBaseDlg@@UAEPAXI@Z 1005a060 f i * CIL library *:* CIL module *
 0001:00059060       ??_GCDnpBaseDlg@@UAEPAXI@Z 1005a060 f i DnpBaseDlg.obj
 0001:000590b0       ??1CDnpBaseDlg@@UAE@XZ     1005a0b0 f   DnpBaseDlg.obj
 0001:000590d0       ?DoDataExchange@CICSTbarDlg@@MAEXPAVCDataExchange@@@Z 1005a0d0 f   ICSTbarDlg.obj
 0001:000590d0       ?DoDataExchange@CDnpBaseDlg@@MAEXPAVCDataExchange@@@Z 1005a0d0 f   DnpBaseDlg.obj
 0001:000590d0       ?DoDataExchange@CHjiyuDlg@@MAEXPAVCDataExchange@@@Z 1005a0d0 f   HjiyuDlg.obj
 0001:000590e0       ?GetMessageMap@CDnpBaseDlg@@MBEPBUAFX_MSGMAP@@XZ 1005a0e0 f   DnpBaseDlg.obj
 0001:000590f0       ?GetThisMessageMap@CDnpBaseDlg@@KGPBUAFX_MSGMAP@@XZ 1005a0f0 f   DnpBaseDlg.obj
 0001:00059150       ?OnInitDialog@CDnpBaseDlg@@UAEHXZ 1005a150 f   DnpBaseDlg.obj
 0001:00059430       ?InitDnpBase@CDnpBaseDlg@@QAEXPAU_DNP_POS@@00@Z 1005a430 f   DnpBaseDlg.obj
 0001:00059490       ?InitBaseDiag@CDnpBaseDlg@@QAEXPAVCIcsdiag8ctrl@@H@Z 1005a490 f   DnpBaseDlg.obj
 0001:00059630       ?ControlPos@CDnpBaseDlg@@QAEXXZ 1005a630 f   DnpBaseDlg.obj
 0001:000597a0       ?control_iniz@CDnpBaseDlg@@QAEXXZ 1005a7a0 f   DnpBaseDlg.obj
 0001:000599d0       ?GetDnpNowPos@CDnpBaseDlg@@QAEXAAH0@Z 1005a9d0 f   DnpBaseDlg.obj
 0001:00059af0       ?GetDNP_POS@CDnpBaseDlg@@QAEPAU_DNP_POS@@HH@Z 1005aaf0 f   DnpBaseDlg.obj
 0001:00059bf0       ??1tag_DiagramData@@QAE@XZ 1005abf0 f i DnpBaseDlg.obj
 0001:00059c20       ?inpdata_dsp@CDnpBaseDlg@@QAEXXZ 1005ac20 f   DnpBaseDlg.obj
 0001:0005a350       ?dataline_disp@CDnpBaseDlg@@QAEXHH@Z 1005b350 f   DnpBaseDlg.obj
 0001:0005abd0       ??1tag_DiagramAttribute@@QAE@XZ 1005bbd0 f i DnpBaseDlg.obj
 0001:0005abe0       ?DiagEditON@CDnpBaseDlg@@QAEXHH@Z 1005bbe0 f   DnpBaseDlg.obj
 0001:0005ad40       ?DiagEditOFF@CDnpBaseDlg@@QAEXXZ 1005bd40 f   DnpBaseDlg.obj
 0001:0005ae40       ?DiagTermination@CDnpBaseDlg@@QAEXHFFFPAUIUnknown@@@Z 1005be40 f   DnpBaseDlg.obj
 0001:0005b3c0       ?UpsideTermJob@CDnpBaseDlg@@QAEXHJ@Z 1005c3c0 f   DnpBaseDlg.obj
 0001:0005b520       ?ctl_init@CDnpBaseDlg@@QAEXHH@Z 1005c520 f   DnpBaseDlg.obj
 0001:0005b590       ?OnRetroFocus@CDnpBaseDlg@@QAEJIJ@Z 1005c590 f   DnpBaseDlg.obj
 0001:0005b5f0       ?OnRetroFocus2@CDnpBaseDlg@@QAEJIJ@Z 1005c5f0 f   DnpBaseDlg.obj
 0001:0005b620       ?set_focus@CDnpBaseDlg@@QAEHHH@Z 1005c620 f   DnpBaseDlg.obj
 0001:0005b6f0       ?set_nextfocus@CDnpBaseDlg@@QAEHHH@Z 1005c6f0 f   DnpBaseDlg.obj
 0001:0005b870       ?set_prevfocus@CDnpBaseDlg@@QAEHHH@Z 1005c870 f   DnpBaseDlg.obj
 0001:0005b940       ?_SetDnpyoNo@CDnpBaseDlg@@IAEXHHH@Z 1005c940 f   DnpBaseDlg.obj
 0001:0005ba80       ?_SetMM@CDnpBaseDlg@@IAEXHHE@Z 1005ca80 f   DnpBaseDlg.obj
 0001:0005bbc0       ?_SetDD@CDnpBaseDlg@@IAEXHHE@Z 1005cbc0 f   DnpBaseDlg.obj
 0001:0005bce0       ?_SetBmon@CDnpBaseDlg@@IAEXHHHPAU_SET_KMKETC@@H@Z 1005cce0 f   DnpBaseDlg.obj
 0001:0005bf60       ?_SetKoji@CDnpBaseDlg@@IAEXHHV?$CStringT@DV?$StrTraitMFC_DLL@DV?$ChTraitsCRT@D@ATL@@@@@ATL@@PAU_SET_KMKETC@@H@Z 1005cf60 f   DnpBaseDlg.obj
 0001:0005c280       ?_SetKnam@CDnpBaseDlg@@IAEXHHPAU_SETMEISYO@@H@Z 1005d280 f   DnpBaseDlg.obj
 0001:0005c4d0       ?_SetSyogBrn@CDnpBaseDlg@@IAEXHHH@Z 1005d4d0 f   DnpBaseDlg.obj
 0001:0005c660       ?_SetVal@CDnpBaseDlg@@IAEXHFPADHK@Z 1005d660 f   DnpBaseDlg.obj
 0001:0005c8c0       ?_SetTgNumber@CDnpBaseDlg@@IAEXHFPAD@Z 1005d8c0 f   DnpBaseDlg.obj
 0001:0005c8c0       ?_SetTekiyo@CDnpBaseDlg@@IAEXHFPAD@Z 1005d8c0 f   DnpBaseDlg.obj
 0001:0005c9e0       ?_SetTgDate@CDnpBaseDlg@@IAEXHFPAE@Z 1005d9e0 f   DnpBaseDlg.obj
 0001:0005cb00       ?_SetHjiyu@CDnpBaseDlg@@IAEXHFPAV?$CStringT@DV?$StrTraitMFC_DLL@DV?$ChTraitsCRT@D@ATL@@@@@ATL@@@Z 1005db00 f   DnpBaseDlg.obj
 0001:0005cc30       ?SetDnpyoNo@CDnpBaseDlg@@QAEXHH@Z 1005dc30 f   DnpBaseDlg.obj
 0001:0005cc90       ?SetMM@CDnpBaseDlg@@QAEXHE@Z 1005dc90 f   DnpBaseDlg.obj
 0001:0005ccf0       ?SetDD@CDnpBaseDlg@@QAEXHE@Z 1005dcf0 f   DnpBaseDlg.obj
 0001:0005cd50       ?SetBmon@CDnpBaseDlg@@QAEXHHHPAU_SET_KMKETC@@H@Z 1005dd50 f   DnpBaseDlg.obj
 0001:0005cd80       ?SetKoji@CDnpBaseDlg@@QAEXHHV?$CStringT@DV?$StrTraitMFC_DLL@DV?$ChTraitsCRT@D@ATL@@@@@ATL@@PAU_SET_KMKETC@@H@Z 1005dd80 f   DnpBaseDlg.obj
 0001:0005ce00       ?SetSyogBrn@CDnpBaseDlg@@QAEXHHH@Z 1005de00 f   DnpBaseDlg.obj
 0001:0005ce30       ?SetVal@CDnpBaseDlg@@QAEXHHPADH@Z 1005de30 f   DnpBaseDlg.obj
 0001:0005cea0       ?SetTekiyo@CDnpBaseDlg@@QAEXHHPAD@Z 1005dea0 f   DnpBaseDlg.obj
 0001:0005ced0       ?SetHusen@CDnpBaseDlg@@QAEXHHHPAD@Z 1005ded0 f   DnpBaseDlg.obj
 0001:0005d020       ?GetRect@CDnpBaseDlg@@QAEXHHAAVCRect@@@Z 1005e020 f   DnpBaseDlg.obj
 0001:0005d070       ?SyogDisp@CDnpBaseDlg@@QAEXPAD@Z 1005e070 f   DnpBaseDlg.obj
 0001:0005d250       ?PreTranslateMessage@CDnpBaseDlg@@UAEHPAUtagMSG@@@Z 1005e250 f   DnpBaseDlg.obj
 0001:0005d7a0       ?diag_inz@CDnpBaseDlg@@UAEXXZ 1005e7a0 f   DnpBaseDlg.obj
 0001:0005dc30       ?diag_tanbmninz@CDnpBaseDlg@@QAEXH@Z 1005ec30 f   DnpBaseDlg.obj
 0001:0005de70       ?diag_disableinz@CDnpBaseDlg@@QAEXXZ 1005ee70 f   DnpBaseDlg.obj
 0001:0005e170       ?KillFocusDBEDT@CDnpBaseDlg@@QAEXIJ@Z 1005f170 f   DnpBaseDlg.obj
 0001:0005e240       ?TerminationDBEDT@CDnpBaseDlg@@QAEXIJJJ@Z 1005f240 f   DnpBaseDlg.obj
 0001:0005e320       ?SetImage@CDnpBaseDlg@@QAEXHHPAUtag_IMREC@@@Z 1005f320 f   DnpBaseDlg.obj
 0001:0005e3e0       ?KasiImageDisplay@CDnpBaseDlg@@QAEXHH@Z 1005f3e0 f   DnpBaseDlg.obj
 0001:0005e5b0       ?SetDataLineColor@CDnpBaseDlg@@UAEXHKKPAD@Z 1005f5b0 f   DnpBaseDlg.obj
 0001:0005e7e0       ?TransLine@CDnpBaseDlg@@QAEXHHPAD@Z 1005f7e0 f   DnpBaseDlg.obj
 0001:0005e8b0       ?FocusTkyColor@CDnpBaseDlg@@QAEXHH@Z 1005f8b0 f   DnpBaseDlg.obj
 0001:0005eb30       ?OnSize@CDnpBaseDlg@@QAEXIHH@Z 1005fb30 f   DnpBaseDlg.obj
 0001:0005eb60       ?OnImageStaticFocus@CDnpBaseDlg@@QAEJIJ@Z 1005fb60 f   DnpBaseDlg.obj
 0001:0005ed30       ?OnImageStaticKey@CDnpBaseDlg@@QAEJIJ@Z 1005fd30 f   DnpBaseDlg.obj
 0001:0005ee90       ?set_scrollbar@CDnpBaseDlg@@QAEXPAVCScrollBar@@HHH@Z 1005fe90 f   DnpBaseDlg.obj
 0001:0005ef30       ?dataline_input@CDnpBaseDlg@@QAEHH@Z 1005ff30 f   DnpBaseDlg.obj
 0001:0005efb0       ?IsLine1Selpos@CDnpBaseDlg@@QAEHUtagPOINT@@@Z 1005ffb0 f   DnpBaseDlg.obj
 0001:0005f0a0       ?FuriSyogDataColor@CDnpBaseDlg@@QAEXHH@Z 100600a0 f   DnpBaseDlg.obj
 0001:0005f320       ?OnDBDinpMsg@CDnpBaseDlg@@QAEJIJ@Z 10060320 f   DnpBaseDlg.obj
 0001:0005f344       ??_ECDnpBaseDlg@@WKI@AEPAXI@Z 10060344 f i DnpBaseDlg.obj
 0001:0005f350       ?PtInRect@CRect@@QBEHUtagPOINT@@@Z 10060350 f i DnpBaseDlg.obj
 0001:0005f370       ?MouseProc@@YGJHIJ@Z       10060370 f   DnpInpDialog.obj
 0001:0005f400       ?GetRuntimeClass@CDnpInpDialog@@UBEPAUCRuntimeClass@@XZ 10060400 f   DnpInpDialog.obj
 0001:0005f410       ??0CDnpInpDialog@@QAE@PAVCWnd@@@Z 10060410 f   DnpInpDialog.obj
 0001:0005f530       ??_GCDnpInpDialog@@UAEPAXI@Z 10060530 f i DnpInpDialog.obj
 0001:0005f530       ??_ECDnpInpDialog@@UAEPAXI@Z 10060530 f i * CIL library *:* CIL module *
 0001:0005f570       ??1CDnpInpDialog@@UAE@XZ   10060570 f   DnpInpDialog.obj
 0001:0005f680       ?DoDataExchange@CDnpInpDialog@@MAEXPAVCDataExchange@@@Z 10060680 f   DnpInpDialog.obj
 0001:0005f6d0       ?ModelessDoModal@CDnpInpDialog@@QAEHXZ 100606d0 f   DnpInpDialog.obj
 0001:0005f9e0       ?MoveDenpDialog@CDnpInpDialog@@QAEXXZ 100609e0 f   DnpInpDialog.obj
 0001:0005fb60       ?GetMessageMap@CDnpInpDialog@@MBEPBUAFX_MSGMAP@@XZ 10060b60 f   DnpInpDialog.obj
 0001:0005fbc0       ?OnInitDialog@CDnpInpDialog@@UAEHXZ 10060bc0 f   DnpInpDialog.obj
 0001:0005fe40       ?OnRetroFocus@CDnpInpDialog@@QAEJIJ@Z 10060e40 f   DnpInpDialog.obj
 0001:0005feb0       ?OnRetroFocus2@CDnpInpDialog@@QAEJIJ@Z 10060eb0 f   DnpInpDialog.obj
 0001:0005ff40       ?SetSkbnLineDisp@CDnpInpDialog@@QAEJIJ@Z 10060f40 f   DnpInpDialog.obj
 0001:0005ff60       ?OnSkbnEnd@CDnpInpDialog@@QAEJIJ@Z 10060f60 f   DnpInpDialog.obj
 0001:0005ff80       ?DspSkbnIchiran@CDnpInpDialog@@QAEJIJ@Z 10060f80 f   DnpInpDialog.obj
 0001:00060140       ?OnHjiyuInEnd@CDnpInpDialog@@QAEJIJ@Z 10061140 f   DnpInpDialog.obj
 0001:00060160       ?OnHjiyuSel@CDnpInpDialog@@QAEJIJ@Z 10061160 f   DnpInpDialog.obj
 0001:000602d0       ?OnHusenInpMsg@CDnpInpDialog@@QAEJIJ@Z 100612d0 f   DnpInpDialog.obj
 0001:000602f0       ?OnSelGuideMsg@CDnpInpDialog@@QAEJIJ@Z 100612f0 f   DnpInpDialog.obj
 0001:00060330       ?OnCommandTlbar@CDnpInpDialog@@QAEXI@Z 10061330 f   DnpInpDialog.obj
 0001:00060660       ?GetEventSinkMap@CDnpInpDialog@@MBEPBUAFX_EVENTSINKMAP@@XZ 10061660 f   DnpInpDialog.obj
 0001:00060670       ?SelectedIcsselctrl1@CDnpInpDialog@@QAEXFJ@Z 10061670 f   DnpInpDialog.obj
 0001:00060690       ?SelectedIcsselctrl2@CDnpInpDialog@@QAEXFJ@Z 10061690 f   DnpInpDialog.obj
 0001:000606b0       ?OnKickIdle@CDnpInpDialog@@QAEJIJ@Z 100616b0 f   DnpInpDialog.obj
 0001:00060750       ?PreTranslateMessage@CDnpInpDialog@@UAEHPAUtagMSG@@@Z 10061750 f   DnpInpDialog.obj
 0001:00060900       ?OnButtonEnd@CDnpInpDialog@@QAEXXZ 10061900 f   DnpInpDialog.obj
 0001:00060950       ?OnTimer@CDnpInpDialog@@QAEXI@Z 10061950 f   DnpInpDialog.obj
 0001:0006098e       ??_ECDnpInpDialog@@WKI@AEPAXI@Z 1006198e f i DnpInpDialog.obj
 0001:000609a0       ??_GCEdaRegDlg@@UAEPAXI@Z  100619a0 f i EdaRegDlg.obj
 0001:000609a0       ??_ECEdaRegDlg@@UAEPAXI@Z  100619a0 f i * CIL library *:* CIL module *
 0001:000609e0       ?DoDataExchange@CEdaRegDlg@@MAEXPAVCDataExchange@@@Z 100619e0 f   EdaRegDlg.obj
 0001:00060a90       ?GetMessageMap@CEdaRegDlg@@MBEPBUAFX_MSGMAP@@XZ 10061a90 f   EdaRegDlg.obj
 0001:00060af0       ?OnInitDialog@CEdaRegDlg@@MAEHXZ 10061af0 f   EdaRegDlg.obj
 0001:00060e90       ?GetEventSinkMap@CEdaRegDlg@@MBEPBUAFX_EVENTSINKMAP@@XZ 10061e90 f   EdaRegDlg.obj
 0001:00060ea0       ?OnSetFocusIcsdbedtctrl1@CEdaRegDlg@@IAEXXZ 10061ea0 f   EdaRegDlg.obj
 0001:00060ec0       ?OnKillFocusIcsdbedtctrl1@CEdaRegDlg@@IAEXJ@Z 10061ec0 f   EdaRegDlg.obj
 0001:00060f00       ?OnTerminationIcsdbedtctrl1@CEdaRegDlg@@IAEXJJJ@Z 10061f00 f   EdaRegDlg.obj
 0001:00061200       ?TkyoNoInp@CEdaRegDlg@@IAEJIJJJ@Z 10062200 f   EdaRegDlg.obj
 0001:000613f0       ?OnTerminationIcsdbedtctrl3@CEdaRegDlg@@IAEXJJJ@Z 100623f0 f   EdaRegDlg.obj
 0001:00061540       ?OnImeEndCompositionIcsdbedtctrl3@CEdaRegDlg@@IAEXFPBD0@Z 10062540 f   EdaRegDlg.obj
 0001:00061770       ?OnKillFocusIcsdbedtctrl2@CEdaRegDlg@@IAEXJ@Z 10062770 f   EdaRegDlg.obj
 0001:000617a0       ?OnTerminationIcsdbedtctrl2@CEdaRegDlg@@IAEXJJJ@Z 100627a0 f   EdaRegDlg.obj
 0001:00061960       ?KillFocusIcsdbedtKezan@CEdaRegDlg@@QAEXJ@Z 10062960 f   EdaRegDlg.obj
 0001:00061990       ?TerminationIcsdbedtKezan@CEdaRegDlg@@QAEXJJJ@Z 10062990 f   EdaRegDlg.obj
 0001:00061ab0       ?ValInp@CEdaRegDlg@@IAEJIJJJ@Z 10062ab0 f   EdaRegDlg.obj
 0001:00061c00       ?OnOK@CEdaRegDlg@@MAEXXZ   10062c00 f   EdaRegDlg.obj
 0001:000621d0       ?PreTranslateMessage@CEdaRegDlg@@UAEHPAUtagMSG@@@Z 100631d0 f   EdaRegDlg.obj
 0001:00062610       ?OnDblclkList1@CEdaRegDlg@@IAEXXZ 10063610 f   EdaRegDlg.obj
 0001:000626e0       ?EdaTkyoSet@CEdaRegDlg@@IAEXH@Z 100636e0 f   EdaRegDlg.obj
 0001:00062890       ?OnRetroFocus@CTkyEdaDlg@@IAEJIJ@Z 10063890 f   TkyEdaDlg.obj
 0001:00062890       ?RetroFocus@CEdaRegDlg@@IAEJIJ@Z 10063890 f   EdaRegDlg.obj
 0001:00062890       ?OnRetroFocus@CTkyVer2Dlg@@IAEJIJ@Z 10063890 f   TkyVer2Dlg.obj
 0001:000628c0       ?OnSetFocusIcsdbedtname@CEdaRegDlg@@IAEXXZ 100638c0 f   EdaRegDlg.obj
 0001:000628c0       ?OnSetFocusIcsdbedtkana@CEdaRegDlg@@IAEXXZ 100638c0 f   EdaRegDlg.obj
 0001:000628f0       ?OnKillFocusIcsdbedtname@CEdaRegDlg@@IAEXJ@Z 100638f0 f   EdaRegDlg.obj
 0001:00062900       ?ImeEndCompositionIcsdbedtname@CEdaRegDlg@@QAEXFPBD0@Z 10063900 f   EdaRegDlg.obj
 0001:00062950       ?OnTerminationIcsdbedtname@CEdaRegDlg@@IAEXJJJ@Z 10063950 f   EdaRegDlg.obj
 0001:00062ad0       ?EdaNameInp@CEdaRegDlg@@IAEHJ@Z 10063ad0 f   EdaRegDlg.obj
 0001:00062b90       ?OnKillFocusIcsdbedtkana@CEdaRegDlg@@IAEXJ@Z 10063b90 f   EdaRegDlg.obj
 0001:00062bb0       ?OnTerminationIcsdbedtkana@CEdaRegDlg@@IAEXJJJ@Z 10063bb0 f   EdaRegDlg.obj
 0001:00062d20       ?EdaKanaInp@CEdaRegDlg@@IAEHJ@Z 10063d20 f   EdaRegDlg.obj
 0001:00062da0       ?OnShowWindow@CEdaRegDlg@@QAEXHI@Z 10063da0 f   EdaRegDlg.obj
 0001:00062dd0       ?TkyregJob@CEdaRegDlg@@IAEHAAH@Z 10063dd0 f   EdaRegDlg.obj
 0001:00063170       ?SrchTKname@CEdaRegDlg@@IAEHPADPAH@Z 10064170 f   EdaRegDlg.obj
 0001:00063440       ??1CKsrcStr@@UAE@XZ        10064440 f i EdaRegDlg.obj
 0001:00063464       ??_ECEdaRegDlg@@WKI@AEPAXI@Z 10064464 f i EdaRegDlg.obj
 0001:00063470       ?OnShowWindow@CWnd@@IAEXHI@Z 10064470 f i EdaRegDlg.obj
 0001:00063480       ?GetCurSel@CListBox@@QBEHXZ 10064480 f i EdaRegDlg.obj
 0001:000634a0       ??_ECListBox@@UAEPAXI@Z    100644a0 f i * CIL library *:* CIL module *
 0001:000634a0       ??_GCListBox@@UAEPAXI@Z    100644a0 f i EdaRegDlg.obj
 0001:000634e0       ??_GCForksel@@UAEPAXI@Z    100644e0 f i Forksel.obj
 0001:000634e0       ??_ECForksel@@UAEPAXI@Z    100644e0 f i * CIL library *:* CIL module *
 0001:00063540       ?DoDataExchange@CSWKselDlg@@MAEXPAVCDataExchange@@@Z 10064540 f   SWKselDlg.obj
 0001:00063540       ?DoDataExchange@CForksel@@MAEXPAVCDataExchange@@@Z 10064540 f   Forksel.obj
 0001:00063590       ?GetMessageMap@CForksel@@MBEPBUAFX_MSGMAP@@XZ 10064590 f   Forksel.obj
 0001:000635f0       ?OnInitDialog@CForksel@@MAEHXZ 100645f0 f   Forksel.obj
 0001:000639b0       ?PreTranslateMessage@CForksel@@UAEHPAUtagMSG@@@Z 100649b0 f   Forksel.obj
 0001:00063b10       ?OnOK@CForksel@@MAEXXZ     10064b10 f   Forksel.obj
 0001:00063b20       ?OnCancel@CScanKey@@MAEXXZ 10064b20 f   ScanKey.obj
 0001:00063b20       ?OnCancel@CForksel@@MAEXXZ 10064b20 f   Forksel.obj
 0001:00063b30       ?OnCtlColor@CForksel@@IAEPAUHBRUSH__@@PAVCDC@@PAVCWnd@@I@Z 10064b30 f   Forksel.obj
 0001:00063b8e       ??_ECForksel@@WKI@AEPAXI@Z 10064b8e f i Forksel.obj
 0001:00063ba0       ?Create@CIcsdiag8ctrl@@UAEHPBD0KABUtagRECT@@PAVCWnd@@IPAUCCreateContext@@@Z 10064ba0 f i FuriDlg.obj
 0001:00063bd0       ?GetRuntimeClass@CFuriDlg@@UBEPAUCRuntimeClass@@XZ 10064bd0 f   FuriDlg.obj
 0001:00063be0       ??0CFuriDlg@@QAE@PAVCWnd@@@Z 10064be0 f   FuriDlg.obj
 0001:00063db0       ??_GCFuriDlg@@UAEPAXI@Z    10064db0 f i FuriDlg.obj
 0001:00063db0       ??_ECFuriDlg@@UAEPAXI@Z    10064db0 f i * CIL library *:* CIL module *
 0001:00063df0       ??0CIcsdiag8ctrl@@QAE@XZ   10064df0 f i FuriDlg.obj
 0001:00063e10       ??1CFuriDlg@@UAE@XZ        10064e10 f   FuriDlg.obj
 0001:00064170       ?DoDataExchange@CFuriDlg@@MAEXPAVCDataExchange@@@Z 10065170 f   FuriDlg.obj
 0001:000642b0       ?GetMessageMap@CFuriDlg@@MBEPBUAFX_MSGMAP@@XZ 100652b0 f   FuriDlg.obj
 0001:000642c0       ?OnInitDialog@CFuriDlg@@UAEHXZ 100652c0 f   FuriDlg.obj
 0001:00064410       ?GetEventSinkMap@CFuriDlg@@MBEPBUAFX_EVENTSINKMAP@@XZ 10065410 f   FuriDlg.obj
 0001:00064420       ?EditONIcsdiag8ctrl2@CFuriDlg@@QAEXF@Z 10065420 f   FuriDlg.obj
 0001:00064420       ?EditONIcsdiag8ctrl2@CNSDenpDlg@@IAEXF@Z 10065420 f   NSDenpDlg.obj
 0001:00064440       ?EditOFFIcsdiag8ctrl2@CFuriDlg@@QAEXF@Z 10065440 f   FuriDlg.obj
 0001:00064440       ?EditOFFIcsdiag8ctrl2@CNSDenpDlg@@IAEXF@Z 10065440 f   NSDenpDlg.obj
 0001:00064520       ?TerminationIcsdiag8ctrl1@CNSDenpDlg@@IAEXFFFPAUIUnknown@@@Z 10065520 f   NSDenpDlg.obj
 0001:00064520       ?TerminationIcsdiag8ctrl2@CNSDenpDlg@@IAEXFFFPAUIUnknown@@@Z 10065520 f   NSDenpDlg.obj
 0001:00064520       ?TerminationIcsdiag8ctrl1@CFuriDlg@@QAEXFFFPAUIUnknown@@@Z 10065520 f   FuriDlg.obj
 0001:00064520       ?TerminationIcsdiag8ctrl2@CFuriDlg@@QAEXFFFPAUIUnknown@@@Z 10065520 f   FuriDlg.obj
 0001:00064540       ?KanaTermIcsdiag8ctrl2@CFuriDlg@@QAEXFPBD@Z 10065540 f   FuriDlg.obj
 0001:00064540       ?KanaTermIcsdiag8ctrl2@CNSDenpDlg@@QAEXFPBD@Z 10065540 f   NSDenpDlg.obj
 0001:00064560       ?EditONIcsdiag8ctrl1@CFuriDlg@@QAEXF@Z 10065560 f   FuriDlg.obj
 0001:00064560       ?EditONIcsdiag8ctrl1@CNSDenpDlg@@IAEXF@Z 10065560 f   NSDenpDlg.obj
 0001:00064580       ?EditOFFIcsdiag8ctrl1@CFuriDlg@@QAEXF@Z 10065580 f   FuriDlg.obj
 0001:00064580       ?EditOFFIcsdiag8ctrl1@CNSDenpDlg@@IAEXF@Z 10065580 f   NSDenpDlg.obj
 0001:00064660       ?diag_inz@CFuriDlg@@UAEXXZ 10065660 f   FuriDlg.obj
 0001:00064a90       ?BmkjTitleChange@CFuriDlg@@IAEXXZ 10065a90 f   FuriDlg.obj
 0001:00064c70       ?SetFocusIcsdbedt8ctrl@CNSDenpDlg@@IAEXI@Z 10065c70 f   NSDenpDlg.obj
 0001:00064c70       ?SetFocusIcsdbedt8ctrl@CFuriDlg@@QAEXI@Z 10065c70 f   FuriDlg.obj
 0001:00064ca0       ?KillFocusIcsdbedt8ctrl@CNSDenpDlg@@IAEXIJ@Z 10065ca0 f   NSDenpDlg.obj
 0001:00064ca0       ?KillFocusIcsdbedt8ctrl@CFuriDlg@@QAEXIJ@Z 10065ca0 f   FuriDlg.obj
 0001:00064cb0       ?TerminationIcsdbedt8ctrl@CFuriDlg@@QAEXIJJJ@Z 10065cb0 f   FuriDlg.obj
 0001:00064cb0       ?TerminationIcsdbedt8ctrl@CNSDenpDlg@@IAEXIJJJ@Z 10065cb0 f   NSDenpDlg.obj
 0001:00064cc0       ?ImeEndCompositionIcsdbedt8ctrl@CNSDenpDlg@@IAEXIFPBD0@Z 10065cc0 f   NSDenpDlg.obj
 0001:00064cc0       ?ImeEndCompositionIcsdbedt8ctrl@CFuriDlg@@QAEXIFPBD0@Z 10065cc0 f   FuriDlg.obj
 0001:00064d10       ?KanaTerminationIcsdbedtctrl@CNSDenpDlg@@IAEXIPBD@Z 10065d10 f   NSDenpDlg.obj
 0001:00064d10       ?KanaTerminationIcsdbedtctrl@CFuriDlg@@QAEXIPBD@Z 10065d10 f   FuriDlg.obj
 0001:00064d30       ?ChangeJob@CNSDenpDlg@@UAEXH@Z 10065d30 f   NSDenpDlg.obj
 0001:00064d30       ?ChangeJob@CFuriDlg@@UAEXH@Z 10065d30 f   FuriDlg.obj
 0001:00064d80       ?del_idx@CFuriDlg@@UAEHH@Z 10065d80 f   FuriDlg.obj
 0001:00064da0       ?GetDeleteRect@CFuriDlg@@UAEXHAAVCRect@@@Z 10065da0 f   FuriDlg.obj
 0001:00064e90       ?GetLineRect@CFuriDlg@@UAEXHAAVCRect@@@Z 10065e90 f   FuriDlg.obj
 0001:00064f50       ?AutoSiwake@CFuriDlg@@UAEXH@Z 10065f50 f   FuriDlg.obj
 0001:00065000       ?FuriModeChange@CFuriDlg@@QAEXH@Z 10066000 f   FuriDlg.obj
 0001:00065370       ?OnBnClickedBmninpChk@CFuriDlg@@QAEXXZ 10066370 f   FuriDlg.obj
 0001:000653b0       ?PreTranslateMessage@CFuriDlg@@UAEHPAUtagMSG@@@Z 100663b0 f   FuriDlg.obj
 0001:000654b0       ?OnVScroll@CFuriDlg@@QAEXIIPAVCScrollBar@@@Z 100664b0 f   FuriDlg.obj
 0001:00065550       ?ScrollbarMsgFunc@CFuriDlg@@UAEHIIJ@Z 10066550 f   FuriDlg.obj
 0001:00065570       ?OnMouseWheel@CNSDenpDlg@@QAEHIFVCPoint@@@Z 10066570 f   NSDenpDlg.obj
 0001:00065570       ?OnMouseWheel@CFuriDlg@@QAEHIFVCPoint@@@Z 10066570 f   FuriDlg.obj
 0001:000655b0       ?DispLineInfo@CFuriDlg@@UAEXH@Z 100665b0 f   FuriDlg.obj
 0001:000656b1       ??_ECFuriDlg@@WKI@AEPAXI@Z 100666b1 f i FuriDlg.obj
 0001:000656c0       ?Create@CICSDisp@@UAEHPBD0KABUtagRECT@@PAVCWnd@@IPAUCCreateContext@@@Z 100666c0 f i FuriDlg.obj
 0001:000656f0       ??_GCScrollBar@@UAEPAXI@Z  100666f0 f i FuriDlg.obj
 0001:000656f0       ??_ECScrollBar@@UAEPAXI@Z  100666f0 f i * CIL library *:* CIL module *
 0001:00065730       ?GetRuntimeClass@CHjiyuDlg@@UBEPAUCRuntimeClass@@XZ 10066730 f   HjiyuDlg.obj
 0001:00065740       ??_GCHjiyuDlg@@UAEPAXI@Z   10066740 f i HjiyuDlg.obj
 0001:00065740       ??_ECHjiyuDlg@@UAEPAXI@Z   10066740 f i * CIL library *:* CIL module *
 0001:00065790       ?GetMessageMap@CHjiyuDlg@@MBEPBUAFX_MSGMAP@@XZ 10066790 f   HjiyuDlg.obj
 0001:000657f0       ?RetroFocus@CHjiyuDlg@@IAEJIJ@Z 100667f0 f   HjiyuDlg.obj
 0001:00065820       ?OnInitDialog@CHjiyuDlg@@UAEHXZ 10066820 f   HjiyuDlg.obj
 0001:00065860       ?OnEnKillfocusEdit1@CHjiyuDlg@@QAEXXZ 10066860 f   HjiyuDlg.obj
 0001:00065870       ?TerminationHjiyuedit@CHjiyuDlg@@QAEHF@Z 10066870 f   HjiyuDlg.obj
 0001:00065b30       ?mode_string@CHjiyuDlg@@QAEXXZ 10066b30 f   HjiyuDlg.obj
 0001:00065be0       ?PreTranslateMessage@CHjiyuDlg@@UAEHPAUtagMSG@@@Z 10066be0 f   HjiyuDlg.obj
 0001:00065c69       ??_ECHjiyuDlg@@WKI@AEPAXI@Z 10066c69 f i HjiyuDlg.obj
 0001:00065c80       ?DialogON@CHjiyuInpSub@@QAEHHVCRect@@H@Z 10066c80 f   HjiyuInp.obj
 0001:00065ee0       ?GetCrntRect@CHjiyuInpSub@@QAEXAAVCSize@@@Z 10066ee0 f   HjiyuInp.obj
 0001:00066000       ??0CHjiyuInp@@QAE@XZ       10067000 f   HjiyuInp.obj
 0001:00066010       ??1CHjiyuInp@@UAE@XZ       10067010 f   HjiyuInp.obj
 0001:00066040       ?SetPara@CHjiyuInp@@QAEHPAVCDBZmSub@@PAVCWnd@@@Z 10067040 f   HjiyuInp.obj
 0001:000661f0       ?DialogON@CHjiyuInp@@QAEHHVCRect@@H@Z 100671f0 f   HjiyuInp.obj
 0001:00066220       ?DialogOFF@CHjiyuInp@@QAEHXZ 10067220 f   HjiyuInp.obj
 0001:00066270       ?IsDisplay@CHjiyuInp@@QAEHXZ 10067270 f   HjiyuInp.obj
 0001:00066280       ?GetCrntRect@CHjiyuInp@@QAEXAAVCSize@@@Z 10067280 f   HjiyuInp.obj
 0001:00066290       ?set_focus@CHjiyuInp@@QAEXXZ 10067290 f   HjiyuInp.obj
 0001:000662b0       ?SetHjiyuData@CHjiyuInp@@QAEHPAU_HJIYU_DATA@@H@Z 100672b0 f   HjiyuInp.obj
 0001:00066360       ?set_mode@CHjiyuInp@@QAEXH@Z 10067360 f   HjiyuInp.obj
 0001:00066380       ??_ECHjiyuInp@@UAEPAXI@Z   10067380 f i HjiyuInp.obj
 0001:00066440       ??_ECHusenCombo@@UAEPAXI@Z 10067440 f i HusenCombo.obj
 0001:00066510       ??_ECHusenComboEX@@UAEPAXI@Z 10067510 f i HusenCombo.obj
 0001:000665e0       ??0CHusenCombo@@QAE@XZ     100675e0 f   HusenCombo.obj
 0001:00066680       ??1CHusenCombo@@UAE@XZ     10067680 f   HusenCombo.obj
 0001:000666a0       ?GetThisMessageMap@CHusenCombo@@KGPBUAFX_MSGMAP@@XZ 100676a0 f   HusenCombo.obj
 0001:000666a0       ?GetMessageMap@CHusenComboEX@@MBEPBUAFX_MSGMAP@@XZ 100676a0 f   HusenCombo.obj
 0001:000666a0       ?GetThisMessageMap@CHusenComboEX@@KGPBUAFX_MSGMAP@@XZ 100676a0 f   HusenCombo.obj
 0001:000666a0       ?GetMessageMap@CHusenCombo@@MBEPBUAFX_MSGMAP@@XZ 100676a0 f   HusenCombo.obj
 0001:000666b0       ?DrawItem@CHusenCombo@@UAEXPAUtagDRAWITEMSTRUCT@@@Z 100676b0 f   HusenCombo.obj
 0001:00066970       ?OnSetFont@CHusenCombo@@IAEJIJ@Z 10067970 f   HusenCombo.obj
 0001:00066970       ?OnSetFont@CHusenComboEX@@IAEJIJ@Z 10067970 f   HusenCombo.obj
 0001:00066a00       ?InitHusenCombo@CHusenCombo@@QAEXXZ 10067a00 f   HusenCombo.obj
 0001:00066ab0       ?PreSubclassWindow@ImageStatic@@MAEXXZ 10067ab0 f   ImageStatic.obj
 0001:00066ab0       ?PreSubclassWindow@CHusenCombo@@MAEXXZ 10067ab0 f   HusenCombo.obj
 0001:00066ab0       ?PreSubclassWindow@CHusenComboEX@@MAEXXZ 10067ab0 f   HusenCombo.obj
 0001:00066ad0       ??0CHusenComboEX@@QAE@XZ   10067ad0 f   HusenCombo.obj
 0001:00066b80       ??1CHusenComboEX@@UAE@XZ   10067b80 f   HusenCombo.obj
 0001:00066ba0       ?DrawItem@CHusenComboEX@@UAEXPAUtagDRAWITEMSTRUCT@@@Z 10067ba0 f   HusenCombo.obj
 0001:00066e80       ?InitHusenComboEX@CHusenComboEX@@QAEXXZ 10067e80 f   HusenCombo.obj
 0001:00066f60       ?SetMode@CHusenComboEX@@QAEXH@Z 10067f60 f   HusenCombo.obj
 0001:00066f60       ?SetDBZmSub@CKJnamAccess@@QAEXPAVCDBZmSub@@@Z 10067f60 f   KJNamRec.obj
 0001:00066f70       ??_ECComboBox@@UAEPAXI@Z   10067f70 f i * CIL library *:* CIL module *
 0001:00066f70       ??_GCComboBox@@UAEPAXI@Z   10067f70 f i HusenCombo.obj
 0001:00066fb0       ??_GCHusenDlg@@UAEPAXI@Z   10067fb0 f i HusenDlg.obj
 0001:00066fb0       ??_ECHusenDlg@@UAEPAXI@Z   10067fb0 f i * CIL library *:* CIL module *
 0001:00067020       ?DoDataExchange@CHusenDlg@@MAEXPAVCDataExchange@@@Z 10068020 f   HusenDlg.obj
 0001:00067060       ?RetroFocus@CHusenDlg@@IAEJIJ@Z 10068060 f   HusenDlg.obj
 0001:000670a0       ?GetMessageMap@CHusenDlg@@MBEPBUAFX_MSGMAP@@XZ 100680a0 f   HusenDlg.obj
 0001:00067100       ?OnInitDialog@CHusenDlg@@MAEHXZ 10068100 f   HusenDlg.obj
 0001:00067220       ?OnSetfocusHsCombo@CHusenDlg@@IAEXXZ 10068220 f   HusenDlg.obj
 0001:00067240       ?OnKillfocusHsCombo@CHusenDlg@@IAEXXZ 10068240 f   HusenDlg.obj
 0001:00067290       ?GetEventSinkMap@CHusenDlg@@MBEPBUAFX_EVENTSINKMAP@@XZ 10068290 f   HusenDlg.obj
 0001:000672a0       ?OnSetFocusIcsdbedtctrl1@CHusenDlg@@IAEXXZ 100682a0 f   HusenDlg.obj
 0001:000672c0       ?OnKillFocusIcsdbedtctrl1@CHusenDlg@@IAEXJ@Z 100682c0 f   HusenDlg.obj
 0001:000672e0       ?OnImeEndCompositionIcsdbedtctrl1@CHusenDlg@@IAEXFPBD0@Z 100682e0 f   HusenDlg.obj
 0001:000672f0       ?OnTerminationIcsdbedtctrl1@CHusenDlg@@IAEXJJJ@Z 100682f0 f   HusenDlg.obj
 0001:00067310       ?TerminationHusenComment@CHusenDlg@@IAEXJJJ@Z 10068310 f   HusenDlg.obj
 0001:000674a0       ?TermWork@CHusenDlg@@IAEJHJ@Z 100684a0 f   HusenDlg.obj
 0001:00067620       ?to_parent@CHusenDlg@@IAEXJ@Z 10068620 f   HusenDlg.obj
 0001:00067650       ?PreTranslateMessage@CHusenDlg@@UAEHPAUtagMSG@@@Z 10068650 f   HusenDlg.obj
 0001:00067740       ?OnSize@CHusenDlg@@QAEXIHH@Z 10068740 f   HusenDlg.obj
 0001:00067780       ?DBedtMove@CHusenDlg@@IAEXXZ 10068780 f   HusenDlg.obj
 0001:00067839       ??_ECHusenDlg@@WKI@AEPAXI@Z 10068839 f i HusenDlg.obj
 0001:00067850       ?GetDroppedState@CComboBox@@QBEHXZ 10068850 f i HusenDlg.obj
 0001:00067870       ?SetPara@CHusenInpSub@@QAEHPAVCDBZmSub@@PAVCWnd@@@Z 10068870 f   HusenInp.obj
 0001:00067ac0       ?DialogON@CHusenInpSub@@QAEHHVCRect@@HH@Z 10068ac0 f   HusenInp.obj
 0001:00067d10       ??0CHusenInp@@QAE@XZ       10068d10 f   HusenInp.obj
 0001:00067d20       ??1CHusenInp@@UAE@XZ       10068d20 f   HusenInp.obj
 0001:00067d50       ?SetPara@CHusenInp@@QAEHPAVCDBZmSub@@PAVCWnd@@@Z 10068d50 f   HusenInp.obj
 0001:00067dd0       ?SetHusenData@CHusenInp@@QAEXPAU_HSEN_DATA@@0@Z 10068dd0 f   HusenInp.obj
 0001:00067ef0       ?DialogON@CHusenInp@@QAEHHVCRect@@HH@Z 10068ef0 f   HusenInp.obj
 0001:00067f20       ?DialogOFF@CHusenInp@@QAEHXZ 10068f20 f   HusenInp.obj
 0001:00067f80       ?IsDisplay@CHusenInp@@QAEHXZ 10068f80 f   HusenInp.obj
 0001:00067f90       ?GetCrntRect@CHusenInp@@QAEXAAVCSize@@@Z 10068f90 f   HusenInp.obj
 0001:000680b0       ?set_nextpos@CHusenInp@@QAEXXZ 100690b0 f   HusenInp.obj
 0001:000680f0       ?set_nowfocus@CHusenInp@@QAEXXZ 100690f0 f   HusenInp.obj
 0001:00068120       ??_ECHusenInp@@UAEPAXI@Z   10069120 f i HusenInp.obj
 0001:000681e0       ?_GetBaseClass@CHusenStatic@@KGPAUCRuntimeClass@@XZ 100691e0 f   HusenStatic.obj
 0001:000681f0       ?GetRuntimeClass@CHusenStatic@@UBEPAUCRuntimeClass@@XZ 100691f0 f   HusenStatic.obj
 0001:00068200       ??0CHusenStatic@@QAE@XZ    10069200 f   HusenStatic.obj
 0001:000682a0       ??_GCHusenStatic@@UAEPAXI@Z 100692a0 f i HusenStatic.obj
 0001:000682a0       ??_ECHusenStatic@@UAEPAXI@Z 100692a0 f i * CIL library *:* CIL module *
 0001:00068300       ??1CHusenStatic@@UAE@XZ    10069300 f   HusenStatic.obj
 0001:00068330       ?GetMessageMap@CHusenStatic@@MBEPBUAFX_MSGMAP@@XZ 10069330 f   HusenStatic.obj
 0001:00068390       ?DrawCaptionText@CHusenStatic@@UAEXPAVCDC@@@Z 10069390 f   HusenStatic.obj
 0001:000683a0       ?DrawCaptionIcon@CHusenStatic@@UAEXPAVCDC@@AAVCRect@@@Z 100693a0 f   HusenStatic.obj
 0001:000683c0       ?PreSubclassWindow@CHusenStatic@@UAEXXZ 100693c0 f   HusenStatic.obj
 0001:000683c6       ??_ECHusenStatic@@WIA@AEPAXI@Z 100693c6 f i HusenStatic.obj
 0001:000683e0       ?CreateObject@CICSDBEDT@@SGPAVCObject@@XZ 100693e0 f   icsdbedt.obj
 0001:00068460       ?_GetBaseClass@CICSDisp@@KGPAUCRuntimeClass@@XZ 10069460 f   icsdisp.obj
 0001:00068460       ?_GetBaseClass@CICSSel@@KGPAUCRuntimeClass@@XZ 10069460 f   icssel.obj
 0001:00068460       ?_GetBaseClass@CICSListInp@@KGPAUCRuntimeClass@@XZ 10069460 f   icslistinp.obj
 0001:00068460       ?_GetBaseClass@CIcsdiag8ctrl@@KGPAUCRuntimeClass@@XZ 10069460 f   icsdiag8ctrl.obj
 0001:00068460       ?_GetBaseClass@CICSDBEDT@@KGPAUCRuntimeClass@@XZ 10069460 f   icsdbedt.obj
 0001:00068460       ?_GetBaseClass@CSelGuideCtrl@@KGPAUCRuntimeClass@@XZ 10069460 f   SelGuideCtrl.obj
 0001:00068470       ?GetRuntimeClass@CICSDBEDT@@UBEPAUCRuntimeClass@@XZ 10069470 f   icsdbedt.obj
 0001:00068480       ?GetCaretPosition@CICSDBEDT@@QAEFXZ 10069480 f   icsdbedt.obj
 0001:000684b0       ?InsertData@CICSDBEDT@@QAEJPAUtagVARIANT@@JFF@Z 100694b0 f   icsdbedt.obj
 0001:000684e0       ?CreateObject@CIcsdiag8ctrl@@SGPAVCObject@@XZ 100694e0 f   icsdiag8ctrl.obj
 0001:00068560       ?GetRuntimeClass@CIcsdiag8ctrl@@UBEPAUCRuntimeClass@@XZ 10069560 f   icsdiag8ctrl.obj
 0001:00068570       ?CreateObject@CICSDisp@@SGPAVCObject@@XZ 10069570 f   icsdisp.obj
 0001:000685f0       ?GetRuntimeClass@CICSDisp@@UBEPAUCRuntimeClass@@XZ 100695f0 f   icsdisp.obj
 0001:00068600       ??_EICSListBox@@UAEPAXI@Z  10069600 f i * CIL library *:* CIL module *
 0001:00068600       ??_GICSListBox@@UAEPAXI@Z  10069600 f i ICSListBox.obj
 0001:00068650       ??1ICSListBox@@UAE@XZ      10069650 f   ICSListBox.obj
 0001:00068660       ?GetMessageMap@ICSListBox@@MBEPBUAFX_MSGMAP@@XZ 10069660 f   ICSListBox.obj
 0001:00068670       ?PreTranslateMessage@ICSListBox@@UAEHPAUtagMSG@@@Z 10069670 f   ICSListBox.obj
 0001:000686b0       ?OnMouseMove@ICSListBox@@IAEXIVCPoint@@@Z 100696b0 f   ICSListBox.obj
 0001:000686c0       ?OnLButtonDown@ICSListBox@@IAEXIVCPoint@@@Z 100696c0 f   ICSListBox.obj
 0001:00068740       ?OnLButtonUp@ICSListBox@@IAEXIVCPoint@@@Z 10069740 f   ICSListBox.obj
 0001:000687e0       ?OnActivate@ICSListBox@@IAEXIPAVCWnd@@H@Z 100697e0 f   ICSListBox.obj
 0001:00068810       ?Create@CICSListInp@@UAEHPBD0KABUtagRECT@@PAVCWnd@@IPAUCCreateContext@@@Z 10069810 f i icslistinp.obj
 0001:00068840       ?CreateObject@CICSListInp@@SGPAVCObject@@XZ 10069840 f   icslistinp.obj
 0001:000688c0       ?GetRuntimeClass@CICSListInp@@UBEPAUCRuntimeClass@@XZ 100698c0 f   icslistinp.obj
 0001:000688d0       ?GetEnabled@CICSListInp@@QAEHXZ 100698d0 f   icslistinp.obj
 0001:000688f0       ?SetData@CICSListInp@@QAEFFPAUIUnknown@@H@Z 100698f0 f   icslistinp.obj
 0001:00068920       ?SetColumnData@CICSListInp@@QAEFFFPAUIUnknown@@H@Z 10069920 f   icslistinp.obj
 0001:00068960       ?RemoveData@CICSListInp@@QAEFF@Z 10069960 f   icslistinp.obj
 0001:00068990       ?ReplyTermination@CICSListInp@@QAEXJPAUIUnknown@@@Z 10069990 f   icslistinp.obj
 0001:000689c0       ?AddNewLine@CICSListInp@@QAEFH@Z 100699c0 f   icslistinp.obj
 0001:000689f0       ?GetData@CICSListInp@@QAEFFPAUIUnknown@@@Z 100699f0 f   icslistinp.obj
 0001:00068a20       ?LineMove@CICSListInp@@QAEXF@Z 10069a20 f   icslistinp.obj
 0001:00068a50       ?PageMove@CICSListInp@@QAEXF@Z 10069a50 f   icslistinp.obj
 0001:00068a80       ?GetTopIndex@CICSListInp@@QAEFXZ 10069a80 f   icslistinp.obj
 0001:00068ab0       ?GetCount@CICSListInp@@QAEFXZ 10069ab0 f   icslistinp.obj
 0001:00068ae0       ?GetIndex@CICSListInp@@QAEFXZ 10069ae0 f   icslistinp.obj
 0001:00068b10       ?InsertData@CICSListInp@@QAEFFPAUIUnknown@@H@Z 10069b10 f   icslistinp.obj
 0001:00068b40       ?SetInputPositionEX@CICSListInp@@QAEFFF@Z 10069b40 f   icslistinp.obj
 0001:00068b70       ?DeleteInput@CICSListInp@@QAEXXZ 10069b70 f   icslistinp.obj
 0001:00068b90       ?CreateObject@CICSSel@@SGPAVCObject@@XZ 10069b90 f   icssel.obj
 0001:00068c10       ?GetRuntimeClass@CICSSel@@UBEPAUCRuntimeClass@@XZ 10069c10 f   icssel.obj
 0001:00068c20       ??_ECICSTbarDlg@@UAEPAXI@Z 10069c20 f i * CIL library *:* CIL module *
 0001:00068c20       ??_GCICSTbarDlg@@UAEPAXI@Z 10069c20 f i ICSTbarDlg.obj
 0001:00068c80       ?GetMessageMap@CICSTbarDlg@@MBEPBUAFX_MSGMAP@@XZ 10069c80 f   ICSTbarDlg.obj
 0001:00068c90       ?GetThisMessageMap@CICSTbarDlg@@KGPBUAFX_MSGMAP@@XZ 10069c90 f   ICSTbarDlg.obj
 0001:00068cf0       ?OnInitDialog@SELDLG@@UAEHXZ 10069cf0 f   SELDLG.obj
 0001:00068cf0       ?OnInitDialog@CICSTbarDlg@@MAEHXZ 10069cf0 f   ICSTbarDlg.obj
 0001:00068d10       ?OnToolTipNotify@CICSTbarDlg@@IAEHIPAUtagNMHDR@@PAJ@Z 10069d10 f   ICSTbarDlg.obj
 0001:00068d50       ?SizeChange@CICSTbarDlg@@MAEXXZ 10069d50 f   ICSTbarDlg.obj
 0001:00068e55       ??_ECICSTbarDlg@@WKI@AEPAXI@Z 10069e55 f i ICSTbarDlg.obj
 0001:00068e60       ??0ImageStatic@@QAE@XZ     10069e60 f   ImageStatic.obj
 0001:00068f00       ??_GImageStatic@@UAEPAXI@Z 10069f00 f i ImageStatic.obj
 0001:00068f00       ??_EImageStatic@@UAEPAXI@Z 10069f00 f i * CIL library *:* CIL module *
 0001:00068f70       ??1ImageStatic@@UAE@XZ     10069f70 f   ImageStatic.obj
 0001:00068fb0       ?SetImage@ImageStatic@@QAEXFFHPAX@Z 10069fb0 f   ImageStatic.obj
 0001:00069060       ?ImageDisplay@ImageStatic@@AAEXPAVCDC@@@Z 1006a060 f   ImageStatic.obj
 0001:000693c0       ?GetMessageMap@ImageStatic@@MBEPBUAFX_MSGMAP@@XZ 1006a3c0 f   ImageStatic.obj
 0001:000693d0       ?OnPaint@ImageStatic@@IAEXXZ 1006a3d0 f   ImageStatic.obj
 0001:00069460       ?OnKillFocus@ImageStatic@@IAEXPAVCWnd@@@Z 1006a460 f   ImageStatic.obj
 0001:000694c0       ?OnSetFocus@ImageStatic@@IAEXPAVCWnd@@@Z 1006a4c0 f   ImageStatic.obj
 0001:00069530       ?OnLButtonDown@ImageStatic@@IAEXIVCPoint@@@Z 1006a530 f   ImageStatic.obj
 0001:00069550       ?PreTranslateMessage@ImageStatic@@UAEHPAUtagMSG@@@Z 1006a550 f   ImageStatic.obj
 0001:000695b0       ??_GCBitmap@@UAEPAXI@Z     1006a5b0 f i ImageStatic.obj
 0001:000695b0       ??_ECBitmap@@UAEPAXI@Z     1006a5b0 f i * CIL library *:* CIL module *
 0001:000695f0       ?GetRuntimeClass@CIndkmkDlg@@UBEPAUCRuntimeClass@@XZ 1006a5f0 f   IndkmkDlg.obj
 0001:00069600       ??_ECIndkmkDlg@@UAEPAXI@Z  1006a600 f i * CIL library *:* CIL module *
 0001:00069600       ??_GCIndkmkDlg@@UAEPAXI@Z  1006a600 f i IndkmkDlg.obj
 0001:00069650       ??1CIndkmkDlg@@UAE@XZ      1006a650 f   IndkmkDlg.obj
 0001:00069670       ?DoDataExchange@CIndkmkDlg@@MAEXPAVCDataExchange@@@Z 1006a670 f   IndkmkDlg.obj
 0001:000696d0       ?GetMessageMap@CIndkmkDlg@@MBEPBUAFX_MSGMAP@@XZ 1006a6d0 f   IndkmkDlg.obj
 0001:00069730       ?OnInitDialog@CIndkmkDlg@@UAEHXZ 1006a730 f   IndkmkDlg.obj
 0001:000697d0       ?PreTranslateMessage@CIndkmkDlg@@UAEHPAUtagMSG@@@Z 1006a7d0 f   IndkmkDlg.obj
 0001:00069820       ?OnBnClickedCheck1@CIndkmkDlg@@QAEXXZ 1006a820 f   IndkmkDlg.obj
 0001:00069830       ?OnBnClickedCheck2@CIndkmkDlg@@QAEXXZ 1006a830 f   IndkmkDlg.obj
 0001:00069840       ?OnBnClickedCheck3@CIndkmkDlg@@QAEXXZ 1006a840 f   IndkmkDlg.obj
 0001:00069850       ?OnBnClickedCheck4@CIndkmkDlg@@QAEXXZ 1006a850 f   IndkmkDlg.obj
 0001:00069860       ?ctrl_set@CIndkmkDlg@@IAEXI@Z 1006a860 f   IndkmkDlg.obj
 0001:00069919       ??_ECIndkmkDlg@@WKI@AEPAXI@Z 1006a919 f i IndkmkDlg.obj
 0001:00069930       ??0CKJnamAccess@@QAE@ABV0@@Z 1006a930 f i KJKKI.obj
 0001:00069980       ??4CKJnamAccess@@QAEAAV0@ABV0@@Z 1006a980 f i KJKKI.obj
 0001:000699e0       ??_ECKJnamAccess@@UAEPAXI@Z 1006a9e0 f i KJKKI.obj
 0001:00069ac0       ?GetRuntimeClass@CKJKKIrecord@@UBEPAUCRuntimeClass@@XZ 1006aac0 f   KJKKI.obj
 0001:00069ad0       ??0CKJKKIrecord@@QAE@PAVCDatabase@@@Z 1006aad0 f   KJKKI.obj
 0001:00069d30       ??_GCKJKKIrecord@@UAEPAXI@Z 1006ad30 f i KJKKI.obj
 0001:00069d30       ??_ECKJKKIrecord@@UAEPAXI@Z 1006ad30 f i * CIL library *:* CIL module *
 0001:00069d80       ??1CKJKKI@@QAE@XZ          1006ad80 f i KJKKI.obj
 0001:00069de0       ?GetDefaultSQL@CKJKKIrecord@@UAE?AV?$CStringT@DV?$StrTraitMFC_DLL@DV?$ChTraitsCRT@D@ATL@@@@@ATL@@XZ 1006ade0 f   KJKKI.obj
 0001:00069e00       ?DoFieldExchange@CKJKKIrecord@@UAEXPAVCFieldExchange@@@Z 1006ae00 f   KJKKI.obj
 0001:0006a0a0       ?MoveFirst@CKJKKI@@QAEHXZ  1006b0a0 f   KJNamRec.obj
 0001:0006a0d0       ?MoveNext@CKJKKI@@QAEHXZ   1006b0d0 f   KJNamRec.obj
 0001:0006a100       ?MovePrev@CKJKKI@@QAEHXZ   1006b100 f   KJNamRec.obj
 0001:0006a130       ?MoveLast@CKJKKI@@QAEHXZ   1006b130 f   KJNamRec.obj
 0001:0006a160       ?Move@CKJKKI@@QAEHH@Z      1006b160 f   KJNamRec.obj
 0001:0006a1b0       ?SetAbsolutePosition@CKJKKI@@QAEHH@Z 1006b1b0 f   KJNamRec.obj
 0001:0006a1f0       ?GetRecordCount@CKJKKI@@QAEHXZ 1006b1f0 f   KJNamRec.obj
 0001:0006a270       ?Requery@CKJKKI@@QAEHPBD@Z 1006b270 f   KJNamRec.obj
 0001:0006a2e0       ?data@CKJKKI@@QAEXXZ       1006b2e0 f   KJNamRec.obj
 0001:0006a3e0       ??0CKJnamAccess@@QAE@XZ    1006b3e0 f   KJNamRec.obj
 0001:0006a400       ??1CKJnamAccess@@UAE@XZ    1006b400 f   KJNamRec.obj
 0001:0006a470       ?KjNameOpen@CKJnamAccess@@QAEHPBD@Z 1006b470 f   KJNamRec.obj
 0001:0006a630       ?KjNameClose@CKJnamAccess@@QAEXXZ 1006b630 f   KJNamRec.obj
 0001:0006a670       ?GetRuntimeClass@CKJVOL@@UBEPAUCRuntimeClass@@XZ 1006b670 f   KJVOL.obj
 0001:0006a680       ??0CKJVOL@@QAE@PAVCDatabase@@@Z 1006b680 f   KJVOL.obj
 0001:0006aab0       ??_ECKJVOL@@UAEPAXI@Z      1006bab0 f i * CIL library *:* CIL module *
 0001:0006aab0       ??_GCKJVOL@@UAEPAXI@Z      1006bab0 f i KJVOL.obj
 0001:0006aaf0       ?GetDefaultSQL@CKJVOL@@UAE?AV?$CStringT@DV?$StrTraitMFC_DLL@DV?$ChTraitsCRT@D@ATL@@@@@ATL@@XZ 1006baf0 f   KJVOL.obj
 0001:0006ab10       ?DoFieldExchange@CKJVOL@@UAEXPAVCFieldExchange@@@Z 1006bb10 f   KJVOL.obj
 0001:0006b1a0       ?GetRuntimeClass@CKpubDlg@@UBEPAUCRuntimeClass@@XZ 1006c1a0 f   KpubDlg.obj
 0001:0006b1b0       ??_GCKpubDlg@@UAEPAXI@Z    1006c1b0 f i KpubDlg.obj
 0001:0006b1b0       ??_ECKpubDlg@@UAEPAXI@Z    1006c1b0 f i * CIL library *:* CIL module *
 0001:0006b220       ??1CKpubDlg@@UAE@XZ        1006c220 f   KpubDlg.obj
 0001:0006b260       ?DoDataExchange@CKpubDlg@@MAEXPAVCDataExchange@@@Z 1006c260 f   KpubDlg.obj
 0001:0006b2a0       ?GetMessageMap@CKpubDlg@@MBEPBUAFX_MSGMAP@@XZ 1006c2a0 f   KpubDlg.obj
 0001:0006b300       ?OnInitDialog@CKpubDlg@@UAEHXZ 1006c300 f   KpubDlg.obj
 0001:0006b330       ?ReadJigyoKanriMeisyo@CKpubDlg@@QAEHXZ 1006c330 f   KpubDlg.obj
 0001:0006b5b0       ?OnBnClickedOk@CKpubDlg@@QAEXXZ 1006c5b0 f   KpubDlg.obj
 0001:0006b620       ?PreTranslateMessage@CKpubDlg@@UAEHPAUtagMSG@@@Z 1006c620 f   KpubDlg.obj
 0001:0006b65a       ??_ECKpubDlg@@WKI@AEPAXI@Z 1006c65a f i KpubDlg.obj
 0001:0006b670       ??0CKsrcStr@@QAE@PAVCWnd@@@Z 1006c670 f   KsrcStr.obj
 0001:0006b720       ??_ECKsrcStr@@UAEPAXI@Z    1006c720 f i * CIL library *:* CIL module *
 0001:0006b720       ??_GCKsrcStr@@UAEPAXI@Z    1006c720 f i KsrcStr.obj
 0001:0006b780       ?DoDataExchange@CKsrcStr@@MAEXPAVCDataExchange@@@Z 1006c780 f   KsrcStr.obj
 0001:0006b7b0       ?GetMessageMap@CKsrcStr@@MBEPBUAFX_MSGMAP@@XZ 1006c7b0 f   KsrcStr.obj
 0001:0006b810       ?OnInitDialog@CKsrcStr@@MAEHXZ 1006c810 f   KsrcStr.obj
 0001:0006bb60       ?OnAdd@CKsrcStr@@IAEXXZ    1006cb60 f   KsrcStr.obj
 0001:0006bb70       ?OnRep@CKsrcStr@@IAEXXZ    1006cb70 f   KsrcStr.obj
 0001:0006bc40       ?OnTorok@CKsrcStr@@IAEXXZ  1006cc40 f   KsrcStr.obj
 0001:0006bd10       ?OnCancel@CKsrcStr@@MAEXXZ 1006cd10 f   KsrcStr.obj
 0001:0006bd20       ?PreTranslateMessage@CKsrcStr@@UAEHPAUtagMSG@@@Z 1006cd20 f   KsrcStr.obj
 0001:0006be20       ??_ECKsrcStr@@WKI@AEPAXI@Z 1006ce20 f i KsrcStr.obj
 0001:0006be30       ?GetRuntimeClass@CNSDenpDlg@@UBEPAUCRuntimeClass@@XZ 1006ce30 f   NSDenpDlg.obj
 0001:0006be40       ??0CNSDenpDlg@@QAE@PAVCWnd@@@Z 1006ce40 f   NSDenpDlg.obj
 0001:0006c030       ??_GCNSDenpDlg@@UAEPAXI@Z  1006d030 f i NSDenpDlg.obj
 0001:0006c030       ??_ECNSDenpDlg@@UAEPAXI@Z  1006d030 f i * CIL library *:* CIL module *
 0001:0006c070       ??1CNSDenpDlg@@UAE@XZ      1006d070 f   NSDenpDlg.obj
 0001:0006c3d0       ?DoDataExchange@CNSDenpDlg@@MAEXPAVCDataExchange@@@Z 1006d3d0 f   NSDenpDlg.obj
 0001:0006c520       ?GetMessageMap@CNSDenpDlg@@MBEPBUAFX_MSGMAP@@XZ 1006d520 f   NSDenpDlg.obj
 0001:0006c530       ?OnInitDialog@CNSDenpDlg@@UAEHXZ 1006d530 f   NSDenpDlg.obj
 0001:0006c5f0       ?ChangeDenpType@CNSDenpDlg@@QAEXH@Z 1006d5f0 f   NSDenpDlg.obj
 0001:0006c980       ?GetEventSinkMap@CNSDenpDlg@@MBEPBUAFX_EVENTSINKMAP@@XZ 1006d980 f   NSDenpDlg.obj
 0001:0006c990       ?diag_inz@CNSDenpDlg@@UAEXXZ 1006d990 f   NSDenpDlg.obj
 0001:0006cc80       ?del_idx@CNSDenpDlg@@UAEHH@Z 1006dc80 f   NSDenpDlg.obj
 0001:0006cca0       ?GetDeleteRect@CNSDenpDlg@@UAEXHAAVCRect@@@Z 1006dca0 f   NSDenpDlg.obj
 0001:0006cdc0       ?GetLineRect@CNSDenpDlg@@UAEXHAAVCRect@@@Z 1006ddc0 f   NSDenpDlg.obj
 0001:0006ceb0       ?AutoSiwake@CNSDenpDlg@@UAEXH@Z 1006deb0 f   NSDenpDlg.obj
 0001:0006cf60       ?SetDataLineColor@CNSDenpDlg@@UAEXHKKPAD@Z 1006df60 f   NSDenpDlg.obj
 0001:0006d020       ?DispBaseKmk@CNSDenpDlg@@QAEXHAAV?$CStringT@DV?$StrTraitMFC_DLL@DV?$ChTraitsCRT@D@ATL@@@@@ATL@@@Z 1006e020 f   NSDenpDlg.obj
 0001:0006d130       ?OnVScroll@CNSDenpDlg@@IAEXIIPAVCScrollBar@@@Z 1006e130 f   NSDenpDlg.obj
 0001:0006d1d0       ?ScrollbarMsgFunc@CNSDenpDlg@@MAEHIIJ@Z 1006e1d0 f   NSDenpDlg.obj
 0001:0006d1f0       ?DispLineInfo@CNSDenpDlg@@UAEXH@Z 1006e1f0 f   NSDenpDlg.obj
 0001:0006d2c8       ??_ECNSDenpDlg@@WKI@AEPAXI@Z 1006e2c8 f i NSDenpDlg.obj
 0001:0006d2e0       ??0CScanKey@@QAE@PAVCWnd@@@Z 1006e2e0 f   ScanKey.obj
 0001:0006d900       ??_GCScanKey@@UAEPAXI@Z    1006e900 f i ScanKey.obj
 0001:0006d900       ??_ECScanKey@@UAEPAXI@Z    1006e900 f i * CIL library *:* CIL module *
 0001:0006d940       ?DoDataExchange@CScanKey@@MAEXPAVCDataExchange@@@Z 1006e940 f   ScanKey.obj
 0001:0006dc80       ?PostNcDestroy@CScanKey@@MAEXXZ 1006ec80 f   ScanKey.obj
 0001:0006dc90       ?SetSelectFix8@CScanKey@@KGHPAU_SelTable@@PAU_SelSetProcPar@@HPAVCWnd@@@Z 1006ec90 f   ScanKey.obj
 0001:0006dcf0       ?SetSelectSel32@CScanKey@@KGHPAU_SelTable@@PAU_SelSetProcPar@@HPAVCWnd@@@Z 1006ecf0 f   ScanKey.obj
 0001:0006df50       ?select_back_col@CScanKey@@IAEXH@Z 1006ef50 f   ScanKey.obj
 0001:0006e320       ?cmntbox@CScanKey@@IAEXH@Z 1006f320 f   ScanKey.obj
 0001:0006e410       ?selbox@CScanKey@@IAEXH@Z  1006f410 f   ScanKey.obj
 0001:0006e630       ?_box_disp@CScanKey@@IAEXHH@Z 1006f630 f   ScanKey.obj
 0001:0006e710       ?GetMessageMap@CScanKey@@MBEPBUAFX_MSGMAP@@XZ 1006f710 f   ScanKey.obj
 0001:0006e770       ?OnInitDialog@CScanKey@@MAEHXZ 1006f770 f   ScanKey.obj
 0001:0006ec60       ?set_syselinz@CScanKey@@QAEXXZ 1006fc60 f   ScanKey.obj
 0001:0006ee10       ?SelectedIcsselctrl@CScanKey@@QAEXFJH@Z 1006fe10 f   ScanKey.obj
 0001:0006f140       ?bmon_select_dsp@CScanKey@@IAEXHPAU_ItemData@@H@Z 10070140 f   ScanKey.obj
 0001:0006f270       ?keyline_dataset@CScanKey@@QAEXPAU_SCAN_ITEM@@@Z 10070270 f   ScanKey.obj
 0001:0006fbb0       ?keyline_inz@CScanKey@@QAEXXZ 10070bb0 f   ScanKey.obj
 0001:00070180       ?keyline_dsp@CScanKey@@IAEXPAU_InpCtl@@PAU_SKEY_LINE@@@Z 10071180 f   ScanKey.obj
 0001:00071180       ?knam_set@CScanKey@@IAEXPAU_ItemData@@@Z 10072180 f   ScanKey.obj
 0001:00071250       ?RetroFocus@CScanKey@@IAEJIJ@Z 10072250 f   ScanKey.obj
 0001:00071270       ?_set_focus@CScanKey@@IAEXH@Z 10072270 f   ScanKey.obj
 0001:00071300       ?_disp_caution@CScanKey@@IAEXH@Z 10072300 f   ScanKey.obj
 0001:00071370       ?disp_change@CScanKey@@IAEXXZ 10072370 f   ScanKey.obj
 0001:000713c0       ?set_nowpn@CScanKey@@IAEHH@Z 100723c0 f   ScanKey.obj
 0001:00071730       ?is_mdfy_imgtky@CScanKey@@QAEHXZ 10072730 f   ScanKey.obj
 0001:00071760       ?disp_imgtkyedit@CScanKey@@IAEXH@Z 10072760 f   ScanKey.obj
 0001:00071920       ?dsp_etc@CScanKey@@IAEXHH@Z 10072920 f   ScanKey.obj
 0001:00071b00       ?inpctlline_inz@CScanKey@@IAEXPAU_InpCtl@@@Z 10072b00 f   ScanKey.obj
 0001:00072160       ?GetEventSinkMap@CScanKey@@MBEPBUAFX_EVENTSINKMAP@@XZ 10073160 f   ScanKey.obj
 0001:00072170       ?OnSetFocusScnDBedt@CScanKey@@IAEXI@Z 10073170 f   ScanKey.obj
 0001:00072670       ?OnKillFocusScnDBedt@CScanKey@@IAEXIJ@Z 10073670 f   ScanKey.obj
 0001:00072c20       ?OnTerminationScnDBedt@CScanKey@@IAEXIJJJ@Z 10073c20 f   ScanKey.obj
 0001:000732c0       ?OnImeEndCompositionScnDBedt@CScanKey@@IAEXIFPBD0@Z 100742c0 f   ScanKey.obj
 0001:000734d0       ?OnKanaTerminationScnDBedt@CScanKey@@IAEXIPBD@Z 100744d0 f   ScanKey.obj
 0001:000735a0       ?SeqInp@CScanKey@@IAEJHPAU_ItemData@@JJJ@Z 100745a0 f   ScanKey.obj
 0001:00073720       ?CheckDataIcsinputDate@CScanKey@@IAEJHJ@Z 10074720 f   ScanKey.obj
 0001:00073a50       ?DateInp@CScanKey@@IAEJHPAU_ItemData@@JJJ@Z 10074a50 f   ScanKey.obj
 0001:00073c50       ?DenpInp@CScanKey@@IAEJHPAU_ItemData@@JJJ@Z 10074c50 f   ScanKey.obj
 0001:00073d40       ?ScnbmonFocusSub@CScanKey@@IAEXH@Z 10074d40 f   ScanKey.obj
 0001:00073e10       ?BmonInp@CScanKey@@IAEJHPAU_ItemData@@JJJ@Z 10074e10 f   ScanKey.obj
 0001:000741e0       ?KojiInp@CScanKey@@IAEJHPAU_ItemData@@JJJ@Z 100751e0 f   ScanKey.obj
 0001:000745c0       ?OnTerminationScnDebt@CScanKey@@IAEXJJJ@Z 100755c0 f   ScanKey.obj
 0001:00074610       ?OnTerminationScnCred@CScanKey@@IAEXJJJ@Z 10075610 f   ScanKey.obj
 0001:00074660       ?OnTerminationScnDBcr@CScanKey@@IAEXJJJ@Z 10075660 f   ScanKey.obj
 0001:000746b0       ?ItemDataCheck@CScanKey@@IAEJHJPBDH@Z 100756b0 f   ScanKey.obj
 0001:000747a0       ?ItemInp@CScanKey@@IAEJHPAU_ItemData@@JJJ@Z 100757a0 f   ScanKey.obj
 0001:00074990       ?OnKillFocusScncbr2@CScanKey@@IAEXJ@Z 10075990 f   ScanKey.obj
 0001:000749d0       ?TerminationBrn@CScanKey@@IAEXHJJJ@Z 100759d0 f   ScanKey.obj
 0001:00074a40       ?BrInp@CScanKey@@IAEJHPAU_ItemData@@JJJ@Z 10075a40 f   ScanKey.obj
 0001:00074d70       ?brnsel_set@CScanKey@@IAEHHH@Z 10075d70 f   ScanKey.obj
 0001:00074fc0       ?ValInp@CScanKey@@IAEJHPAU_ItemData@@JJJ@Z 10075fc0 f   ScanKey.obj
 0001:00075170       ?tky_select_dsp@CScanKey@@IAEXPAVCDBipTKREC@@H@Z 10076170 f   ScanKey.obj
 0001:00075260       ?OnTerminationScntky@CScanKey@@IAEXJJJ@Z 10076260 f   ScanKey.obj
 0001:000754c0       ?SnumInp@CScanKey@@IAEJHPAU_ItemData@@JJJ@Z 100764c0 f   ScanKey.obj
 0001:00075650       ?CheckDataIcsinputTgDate@CScanKey@@IAEJHJ@Z 10076650 f   ScanKey.obj
 0001:00075860       ?TgdateInp@CScanKey@@IAEJHPAU_ItemData@@JJJ@Z 10076860 f   ScanKey.obj
 0001:000759e0       ?OnSelchangeTkycombo@CScanKey@@IAEXXZ 100769e0 f   ScanKey.obj
 0001:00075aa0       ?OnSelchangeScnsyzsw@CScanKey@@IAEXXZ 10076aa0 f   ScanKey.obj
 0001:00075b20       ?OnSelchangeScnskbn@CScanKey@@IAEXXZ 10076b20 f   ScanKey.obj
 0001:00075ba0       ?OnSelchangeScnzritu@CScanKey@@IAEXXZ 10076ba0 f   ScanKey.obj
 0001:00075c20       ?OnSelchangeScnurisire@CScanKey@@IAEXXZ 10076c20 f   ScanKey.obj
 0001:00075cc0       ?set_nonICSpn@CScanKey@@IAEHPAUtagMSG@@@Z 10076cc0 f   ScanKey.obj
 0001:00076450       ?PreTranslateMessage@CScanKey@@UAEHPAUtagMSG@@@Z 10077450 f   ScanKey.obj
 0001:00076d70       ?OnTerminationScnskbn@CScanKey@@IAEJJ@Z 10077d70 f   ScanKey.obj
 0001:000771a0       ?OnTerminationScnurisire@CScanKey@@IAEJJ@Z 100781a0 f   ScanKey.obj
 0001:000775d0       ?OnOK@CScanKey@@MAEXXZ     100785d0 f   ScanKey.obj
 0001:00077630       ?OnTkyonly@CScanKey@@IAEXXZ 10078630 f   ScanKey.obj
 0001:00077690       ?NotCheckSet@CScanKey@@IAEXHH@Z 10078690 f   ScanKey.obj
 0001:000777e0       ?OnTermComboHusen@CScanKey@@IAEJJ@Z 100787e0 f   ScanKey.obj
 0001:00077c30       ?OnTermComboNoInp@CScanKey@@IAEJJ@Z 10078c30 f   ScanKey.obj
 0001:00078080       ?IsNotChkbox@CScanKey@@IAEHPAUHWND__@@@Z 10079080 f   ScanKey.obj
 0001:000780d0       ?Get_KeyMoveTbl@CScanKey@@IAEPAU_KeyMoveTbl@@H@Z 100790d0 f   ScanKey.obj
 0001:00078120       ?term_focus@CScanKey@@IAEJHJ@Z 10079120 f   ScanKey.obj
 0001:000785c0       ?OnSelchangeDisporder@CScanKey@@IAEXXZ 100795c0 f   ScanKey.obj
 0001:000785f0       ?OnSelchangeDataUser@CScanKey@@IAEXXZ 100795f0 f   ScanKey.obj
 0001:00078620       ?OnSelchangeComboStype@CScanKey@@IAEXXZ 10079620 f   ScanKey.obj
 0001:00078650       ?OnSelchangeScnhusen@CScanKey@@IAEXXZ 10079650 f   ScanKey.obj
 0001:000786b0       ?OnSelchangeScnnoinpbrn@CScanKey@@IAEXXZ 100796b0 f   ScanKey.obj
 0001:000786e0       ?OnSize@CScanKey@@IAEXIHH@Z 100796e0 f   ScanKey.obj
 0001:000787c0       ?tky_select@CScanKey@@IAEHPAVCDBipTKREC@@PAD@Z 100797c0 f   ScanKey.obj
 0001:000788c0       ?bmncode_todata@CScanKey@@IAEHPAHHH@Z 100798c0 f   ScanKey.obj
 0001:000789c0       ?_dsp_etc@CScanKey@@IAEHPAVCWnd@@PAU_ItemData@@PAU_LINE_CND@@PAU_InpCtl@@NHH@Z 100799c0 f   ScanKey.obj
 0001:00078b70       ?fix8disp@CScanKey@@QAEXH@Z 10079b70 f   ScanKey.obj
 0001:00078bc0       ?enable_fix8@CScanKey@@QAEXH@Z 10079bc0 f   ScanKey.obj
 0001:00078c90       ?enable_fixval@CScanKey@@QAEXH@Z 10079c90 f   ScanKey.obj
 0001:00078e20       ?valtitle@CScanKey@@QAEXH@Z 10079e20 f   ScanKey.obj
 0001:00078f50       ?OnCheckDbm@CScanKey@@IAEXXZ 10079f50 f   ScanKey.obj
 0001:00079000       ?OnCheckCbm@CScanKey@@IAEXXZ 1007a000 f   ScanKey.obj
 0001:000790b0       ?OnCheckDkj@CScanKey@@IAEXXZ 1007a0b0 f   ScanKey.obj
 0001:00079160       ?OnCheckCkj@CScanKey@@IAEXXZ 1007a160 f   ScanKey.obj
 0001:00079210       ?OnCheckDbr@CScanKey@@IAEXXZ 1007a210 f   ScanKey.obj
 0001:000792c0       ?OnCheckCbr@CScanKey@@IAEXXZ 1007a2c0 f   ScanKey.obj
 0001:00079370       ?ChangeEnableDcbr@CScanKey@@IAEXXZ 1007a370 f   ScanKey.obj
 0001:00079400       ?OnSelectedIcsselctrl1@CScanKey@@IAEXFJ@Z 1007a400 f   ScanKey.obj
 0001:00079420       ?OnSelectedIcsselctrl2@CScanKey@@IAEXFJ@Z 1007a420 f   ScanKey.obj
 0001:00079440       ?OnAllkeydel@CScanKey@@IAEXXZ 1007a440 f   ScanKey.obj
 0001:00079467       ??_ECScanKey@@WKI@AEPAXI@Z 1007a467 f i ScanKey.obj
 0001:00079480       ??_GCCheckListBox@@UAEPAXI@Z 1007a480 f i ScanKey.obj
 0001:00079480       ??_ECCheckListBox@@UAEPAXI@Z 1007a480 f i * CIL library *:* CIL module *
 0001:000794c0       ??0SELDLG@@QAE@PAVCWnd@@@Z 1007a4c0 f   SELDLG.obj
 0001:000795e0       ??_GSELDLG@@UAEPAXI@Z      1007a5e0 f i SELDLG.obj
 0001:000795e0       ??_ESELDLG@@UAEPAXI@Z      1007a5e0 f i * CIL library *:* CIL module *
 0001:000796b0       ?DoDataExchange@SELDLG@@MAEXPAVCDataExchange@@@Z 1007a6b0 f   SELDLG.obj
 0001:000796e0       ?GetMessageMap@SELDLG@@MBEPBUAFX_MSGMAP@@XZ 1007a6e0 f   SELDLG.obj
 0001:00079740       ?GetEventSinkMap@SELDLG@@MBEPBUAFX_EVENTSINKMAP@@XZ 1007a740 f   SELDLG.obj
 0001:00079750       ?OnDblclkSellist@SELDLG@@IAEXXZ 1007a750 f   SELDLG.obj
 0001:00079770       ?PostNcDestroy@SELDLG@@MAEXXZ 1007a770 f   SELDLG.obj
 0001:00079790       ?SetDlgData@SELDLG@@QAEXXZ 1007a790 f   SELDLG.obj
 0001:00079a80       ?OnOK@SELDLG@@MAEXXZ       1007aa80 f   SELDLG.obj
 0001:00079b00       ?OnCancel@SELDLG@@MAEXXZ   1007ab00 f   SELDLG.obj
 0001:00079b50       ?OnKillfocusSellist@SELDLG@@IAEXXZ 1007ab50 f   SELDLG.obj
 0001:00079b80       ?OnVKeyToItem@SELDLG@@IAEHIPAVCListBox@@I@Z 1007ab80 f   SELDLG.obj
 0001:00079bc0       ?OnSetFont@SELDLG@@UAEXPAVCFont@@@Z 1007abc0 f   SELDLG.obj
 0001:00079bd0       ?PreTranslateMessage@SELDLG@@UAEHPAUtagMSG@@@Z 1007abd0 f   SELDLG.obj
 0001:00079c00       ??_ESELDLG@@WKI@AEPAXI@Z   1007ac00 f i SELDLG.obj
 0001:00079c10       ??0CSelectSub@@QAE@XZ      1007ac10 f   select_sub.obj
 0001:0007a200       ??1CSelectSub@@QAE@XZ      1007b200 f   select_sub.obj
 0001:0007a4c0       ?InitSub@CSelectSub@@QAEHPAVCDBZmSub@@PAVCWnd@@P6GHPAU_SelTable@@PAU_SelSetProcPar@@H1@Z4@Z 1007b4c0 f   select_sub.obj
 0001:0007a660       ?_init_kamoku@CSelectSub@@IAEXH@Z 1007b660 f   select_sub.obj
 0001:0007abb0       ?_init_bumon@CSelectSub@@IAEXXZ 1007bbb0 f   select_sub.obj
 0001:0007ac40       ?_init_hjiyu@CSelectSub@@IAEHXZ 1007bc40 f   select_sub.obj
 0001:0007b080       ??1_KSH_NAMDTA@@QAE@XZ     1007c080 f i select_sub.obj
 0001:0007b090       ?_init_koji@CSelectSub@@IAEHXZ 1007c090 f   select_sub.obj
 0001:0007b280       ?_init_npsub@CSelectSub@@IAEHH@Z 1007c280 f   select_sub.obj
 0001:0007b5c0       ?npdata_set@CSelectSub@@IAEXXZ 1007c5c0 f   select_sub.obj
 0001:0007b820       ?nbtori_set@CSelectSub@@IAEXXZ 1007c820 f   select_sub.obj
 0001:0007b9f0       ?UpdateSelectData@CSelectSub@@IAEHXZ 1007c9f0 f   select_sub.obj
 0001:0007bac0       ?_InputItemCheck@CSelectSub@@QAEHAAU_KamokuData@@0HH@Z 1007cac0 f   select_sub.obj
 0001:0007bff0       ?_GetSelResult@CSelectSub@@QAEHPAU_SelResult@@PAD@Z 1007cff0 f   select_sub.obj
 0001:0007cd70       ?_SelectJob@CSelectSub@@QAEHPAU_SelPar@@HPAU_SelParEx@@@Z 1007dd70 f   select_sub.obj
 0001:0007da50       ??4_SelPar@@QAEAAU0@ABU0@@Z 1007ea50 f i select_sub.obj
 0001:0007db80       ?_SelectJob2@CSelectSub@@QAEHPAU_SelectParam@@H@Z 1007eb80 f   select_sub.obj
 0001:0007de90       ?_SelectUpdate@CSelectSub@@QAEHXZ 1007ee90 f   select_sub.obj
 0001:0007e070       ?_BmonSelect@CSelectSub@@QAEHHH@Z 1007f070 f   select_sub.obj
 0001:0007e1f0       ?_BmonSelectSub@CSelectSub@@QAEXH@Z 1007f1f0 f   select_sub.obj
 0001:0007e420       ?_KojiSelect@CSelectSub@@QAEHHH@Z 1007f420 f   select_sub.obj
 0001:0007e530       ?_KojiSelectSub@CSelectSub@@QAEXH@Z 1007f530 f   select_sub.obj
 0001:0007e7a0       ?_koji_search@CSelectSub@@QAEHXZ 1007f7a0 f   select_sub.obj
 0001:0007e900       ?_Kojicode_KanChk@CSelectSub@@QAEHV?$CStringT@DV?$StrTraitMFC_DLL@DV?$ChTraitsCRT@D@ATL@@@@@ATL@@0@Z 1007f900 f   select_sub.obj
 0001:0007eab0       ?_KamokuSelect@CSelectSub@@QAEHH@Z 1007fab0 f   select_sub.obj
 0001:0007ed50       ?SelDspRst@CSelectSub@@IAEXXZ 1007fd50 f   select_sub.obj
 0001:0007efc0       ?tekiyo_update@CSelectSub@@QAEXXZ 1007ffc0 f   select_sub.obj
 0001:0007f280       ?resetpag@CSelectSub@@IAEHH@Z 10080280 f   select_sub.obj
 0001:0007f5b0       ?skip_resetpag@CSelectSub@@IAEHAAHH@Z 100805b0 f   select_sub.obj
 0001:0007f690       ?fixcreat@CSelectSub@@IAEXPAH@Z 10080690 f   select_sub.obj
 0001:0007f7b0       ?km_dsp@CSelectSub@@IAEHPAH@Z 100807b0 f   select_sub.obj
 0001:0007f950       ?km_kana_check@@YAXPADH@Z  10080950 f   select_sub.obj
 0001:0007f9d0       ?kmk_50search@CSelectSub@@IAEHPADH@Z 100809d0 f   select_sub.obj
 0001:0007fc10       ?kmk_inpcodesearch@CSelectSub@@IAEHJH@Z 10080c10 f   select_sub.obj
 0001:0007fea0       ?kn50dsp@CSelectSub@@IAEXPAU_KMKANA_DTA@@H@Z 10080ea0 f   select_sub.obj
 0001:00080060       ?get_hyojiknam@CSelectSub@@IAEPADHHPAU_DBKNREC@@@Z 10081060 f   select_sub.obj
 0001:00080280       ?brntky_sch@CSelectSub@@IAEHPAU_BRNTKY_PAR@@PAU_SelTable@@HAAV?$CStringT@DV?$StrTraitMFC_DLL@DV?$ChTraitsCRT@D@ATL@@@@@ATL@@PADH@Z 10081280 f   select_sub.obj
 0001:00080480       ?_brntky_dsp@CSelectSub@@IAEXPAU_BRNTKY_PAR@@PAU_SelTable@@H@Z 10081480 f   select_sub.obj
 0001:00080550       ?brntky_page@CSelectSub@@IAEHPAU_BRNTKY_PAR@@PAU_SelTable@@H@Z 10081550 f   select_sub.obj
 0001:000805d0       ?brntky_get@CSelectSub@@IAEHPAHPAV?$CStringT@DV?$StrTraitMFC_DLL@DV?$ChTraitsCRT@D@ATL@@@@@ATL@@0PAU_BRNTKY_PAR@@H@Z 100815d0 f   select_sub.obj
 0001:00080650       ?SelTkyDsp@CSelectSub@@IAEHH@Z 10081650 f   select_sub.obj
 0001:000809c0       ?rentdsp@CSelectSub@@IAEXHH@Z 100819c0 f   select_sub.obj
 0001:000810c0       ?tky_select50_dsp@CSelectSub@@IAEHPADH@Z 100820c0 f   select_sub.obj
 0001:00081210       ?tkrsrch@CSelectSub@@IAEHPAD@Z 10082210 f   select_sub.obj
 0001:00081720       ?make_50tky@CSelectSub@@IAEHXZ 10082720 f   select_sub.obj
 0001:000817c0       ?tky50_reload@CSelectSub@@IAEXXZ 100827c0 f   select_sub.obj
 0001:000818d0       ?tky50disp@CSelectSub@@IAEXHH@Z 100828d0 f   select_sub.obj
 0001:00081ab0       ?rentkydsp@CSelectSub@@IAEHXZ 10082ab0 f   select_sub.obj
 0001:00081b30       ?rentky_srdsp@CSelectSub@@IAEHV?$CStringT@DV?$StrTraitMFC_DLL@DV?$ChTraitsCRT@D@ATL@@@@@ATL@@0@Z 10082b30 f   select_sub.obj
 0001:00081c90       ?_rentky_str@CSelectSub@@IAEXV?$CStringT@DV?$StrTraitMFC_DLL@DV?$ChTraitsCRT@D@ATL@@@@@ATL@@0@Z 10082c90 f   select_sub.obj
 0001:00081e20       ?RTpmax_Get@CSelectSub@@IAEHXZ 10082e20 f   select_sub.obj
 0001:00081ea0       ?tky_atswk_dsp@CSelectSub@@IAEHV?$CStringT@DV?$StrTraitMFC_DLL@DV?$ChTraitsCRT@D@ATL@@@@@ATL@@0H@Z 10082ea0 f   select_sub.obj
 0001:00081fb0       ?make_autotky@CSelectSub@@IAEHH@Z 10082fb0 f   select_sub.obj
 0001:00082030       ?tkauto_dsp@CSelectSub@@IAEXH@Z 10083030 f   select_sub.obj
 0001:000825b0       ?DB_TekiyoNoRead@CSelectSub@@IAEHH@Z 100835b0 f   select_sub.obj
 0001:00082610       ?DB_KanaTekiyoNoRead@CSelectSub@@IAEHH@Z 10083610 f   select_sub.obj
 0001:00082640       ?_HjiyuSelect@CSelectSub@@QAEHHH@Z 10083640 f   select_sub.obj
 0001:000827c0       ?_HjiyuSelectSub@CSelectSub@@QAEXHH@Z 100837c0 f   select_sub.obj
 0001:00082aa0       ?ScanKHKbnMake@CSelectSub@@QAEHXZ 10083aa0 f   select_sub.obj
 0001:000831d0       ?is_npfuridata@CSelectSub@@QAEHPBD0@Z 100841d0 f   select_sub.obj
 0001:00083280       ?_NPfuriSelect@CSelectSub@@QAEHHH@Z 10084280 f   select_sub.obj
 0001:00083590       ?_SyusSelect@CSelectSub@@IAEHH@Z 10084590 f   select_sub.obj
 0001:00083700       ?reset_syus@CSelectSub@@IAEHH@Z 10084700 f   select_sub.obj
 0001:00083890       ?Syus_50search@CSelectSub@@IAEHPAD@Z 10084890 f   select_sub.obj
 0001:00083a90       ?_NP_InputItemCheck@CSelectSub@@QAEHAAU_KamokuData@@0HH@Z 10084a90 f   select_sub.obj
 0001:00083f30       ?_KamokuRestrict@CSelectSub@@QAEXK@Z 10084f30 f   select_sub.obj
 0001:00084130       ?_NpKamokuRestrict@CSelectSub@@QAEXKK@Z 10085130 f   select_sub.obj
 0001:00084300       ?restrict_resetpage@CSelectSub@@QAEHXZ 10085300 f   select_sub.obj
 0001:00084370       ?_chk_kamokuctg@CSelectSub@@QAEHH@Z 10085370 f   select_sub.obj
 0001:00084470       ?NP_restrict_resetpage@CSelectSub@@QAEHKK@Z 10085470 f   select_sub.obj
 0001:000845b0       ?check_kamokurestrict@CSelectSub@@QAEHH@Z 100855b0 f   select_sub.obj
 0001:00084630       ?check_kamokurestrict@CSelectSub@@QAEHPAU_DBKNREC@@@Z 10085630 f   select_sub.obj
 0001:00084690       ?_check_kamokurestrict@CSelectSub@@QAEHHPAU_DBKNREC@@@Z 10085690 f   select_sub.obj
 0001:000847f0       ?_check_npkamokurestrict@CSelectSub@@QAEHPAU_DBKNREC@@@Z 100857f0 f   select_sub.obj
 0001:00084850       ??0CSelectData@@QAE@XZ     10085850 f   select_sub.obj
 0001:000848d0       ??1CSelectData@@QAE@XZ     100858d0 f   select_sub.obj
 0001:00084900       ?Init@CSelectData@@QAEHPAVCDBZmSub@@PAVCWnd@@P6GHPAU_SelTable@@PAU_SelSetProcPar@@H1@Z4@Z 10085900 f   select_sub.obj
 0001:00084920       ?Init@CSelectData@@QAEHPAVCDBNpSub@@PAVCWnd@@P6GHPAU_SelTable@@PAU_SelSetProcPar@@H1@Z4@Z 10085920 f   select_sub.obj
 0001:00084aa0       ?Close@CSelectData@@QAEXXZ 10085aa0 f   select_sub.obj
 0001:00084b70       ?SetTekiyoMode@CSelectData@@QAEXH@Z 10085b70 f   select_sub.obj
 0001:00084b90       ?SetKmDispMode@CSelectData@@QAEXH@Z 10085b90 f   select_sub.obj
 0001:00084bb0       ?SetBrnTkyMode@CSelectData@@QAEXH@Z 10085bb0 f   select_sub.obj
 0001:00084bd0       ?SetKanaDspMode@CSelectData@@QAEXH@Z 10085bd0 f   select_sub.obj
 0001:00084bf0       ?SetKamokuPageHold@CSelectData@@QAEXH@Z 10085bf0 f   select_sub.obj
 0001:00084c00       ?GetTekiyoMode@CSelectData@@QAEHXZ 10085c00 f   select_sub.obj
 0001:00084c10       ?GetKmDispMode@CSelectData@@QAEHXZ 10085c10 f   select_sub.obj
 0001:00084c20       ?GetBrnTkyMode@CSelectData@@QAEHXZ 10085c20 f   select_sub.obj
 0001:00084c30       ?GetKanaDspMode@CSelectData@@QAEHXZ 10085c30 f   select_sub.obj
 0001:00084c40       ?GetKamokuPageHold@CSelectData@@QAEHXZ 10085c40 f   select_sub.obj
 0001:00084c50       ?GetBrnTkyPar@CSelectData@@QAE?AU_BRNTKY_PAR@@XZ 10085c50 f   select_sub.obj
 0001:00084ce0       ?SelectJob@CSelectData@@QAEHPAU_SelPar@@H@Z 10085ce0 f   select_sub.obj
 0001:00084d00       ?SelectJob@CSelectData@@QAEHPAU_SelPar@@HPAU_SelParEx@@@Z 10085d00 f   select_sub.obj
 0001:00084d10       ?SelectUpdate@CSelectData@@QAEHXZ 10085d10 f   select_sub.obj
 0001:00084d20       ?GetNowFix8Select@CSelectData@@QAEPAU_SelTable@@XZ 10085d20 f   select_sub.obj
 0001:00084d30       ?GetNowSel32Select@CSelectData@@QAEPAU_SelTable@@XZ 10085d30 f   select_sub.obj
 0001:00084d40       ?GetSel32TextColor@CSelectData@@QAEKXZ 10085d40 f   select_sub.obj
 0001:00084d60       ?GetSel32BackColor@CSelectData@@QAEKXZ 10085d60 f   select_sub.obj
 0001:00084d80       ?InputItemCheck@CSelectData@@QAEHAAU_KamokuData@@0HH@Z 10085d80 f   select_sub.obj
 0001:00084d90       ?GetSelResult@CSelectData@@QAEHPAU_SelResult@@PAD@Z 10085d90 f   select_sub.obj
 0001:00084da0       ?IsHenJiyuCodeRegisted@CSelectData@@QAEHH@Z 10085da0 f   select_sub.obj
 0001:00084e30       ?GetJiyuMeisyo@CSelectData@@QAEHEPAD@Z 10085e30 f   select_sub.obj
 0001:00084f30       ?ScanKHKbnMake@CSelectData@@QAEHXZ 10085f30 f   select_sub.obj
 0001:00084f40       ?GetScanKHKbn@CSelectData@@QAEHHPAU_KSH_SCAN@@@Z 10085f40 f   select_sub.obj
 0001:00084fa0       ?GetHjiyuCount@CSelectData@@QAEHH@Z 10085fa0 f   select_sub.obj
 0001:00084fd0       ?GetHjiyuData@CSelectData@@QAEPBU_KSH_NAMDTA@@HH@Z 10085fd0 f   select_sub.obj
 0001:00085030       ?GetKojiName@CSelectData@@QAEHAAV?$CStringT@DV?$StrTraitMFC_DLL@DV?$ChTraitsCRT@D@ATL@@@@@ATL@@0H@Z 10086030 f   select_sub.obj
 0001:000851b0       ?Kojicode_Ok@CSelectData@@QAEHAAV?$CStringT@DV?$StrTraitMFC_DLL@DV?$ChTraitsCRT@D@ATL@@@@@ATL@@@Z 100861b0 f   select_sub.obj
 0001:00085320       ?tekiyo_update@CSelectData@@QAEXXZ 10086320 f   select_sub.obj
 0001:00085330       ?IsNPfuridata@CSelectData@@QAEHPBD0@Z 10086330 f   select_sub.obj
 0001:00085340       ?GetNPfuriStr@CSelectData@@QAEHHAAV?$CStringT@DV?$StrTraitMFC_DLL@DV?$ChTraitsCRT@D@ATL@@@@@ATL@@@Z 10086340 f   select_sub.obj
 0001:000853b0       ?IsNPfuricode@CSelectData@@QAEHH@Z 100863b0 f   select_sub.obj
 0001:00085410       ?SetWindow@CSelectData@@QAEXPAVCWnd@@@Z 10086410 f   select_sub.obj
 0001:00085430       ?NPfuriHani@CSelectData@@QAEXAAK0@Z 10086430 f   select_sub.obj
 0001:00085450       ?GetNPfuriCount@CSelectData@@QAEHXZ 10086450 f   select_sub.obj
 0001:00085460       ?GetNPfuriData@CSelectData@@QAEPBU_NP_FURIDTA@@H@Z 10086460 f   select_sub.obj
 0001:000854a0       ?KamokuRestrict@CSelectData@@QAEXK@Z 100864a0 f   select_sub.obj
 0001:000854b0       ?NP_InputItemCheck@CSelectData@@QAEHAAU_KamokuData@@0HH@Z 100864b0 f   select_sub.obj
 0001:000854c0       ?NpKamokuRestrict@CSelectData@@QAEXKK@Z 100864c0 f   select_sub.obj
 0001:000854d0       ?Kojicode_NoInp@CSelectData@@QAEHV?$CStringT@DV?$StrTraitMFC_DLL@DV?$ChTraitsCRT@D@ATL@@@@@ATL@@0@Z 100864d0 f   select_sub.obj
 0001:00085640       ?Kojicode_KanChk@CSelectData@@QAEHV?$CStringT@DV?$StrTraitMFC_DLL@DV?$ChTraitsCRT@D@ATL@@@@@ATL@@0@Z 10086640 f   select_sub.obj
 0001:000856d0       ?BrnTekClear@CSelectData@@QAEHXZ 100866d0 f   select_sub.obj
 0001:00085750       ?GetNaibuString@CSelectData@@QAEHHHAAV?$CStringT@DV?$StrTraitMFC_DLL@DV?$ChTraitsCRT@D@ATL@@@@@ATL@@@Z 10086750 f   select_sub.obj
 0001:000857d0       ?IsNaibuData@CSelectData@@QAEHPBD0@Z 100867d0 f   select_sub.obj
 0001:00085870       ?SetImgMng@CSelectData@@QAEXPAVCImgMng@@@Z 10086870 f   select_sub.obj
 0001:00085890       ?SetSelOptMode@CSelectData@@QAEXK@Z 10086890 f   select_sub.obj
 0001:000858b0       ?GetSelOptMode@CSelectData@@QAEKXZ 100868b0 f   select_sub.obj
 0001:000858c0       ?SetBrnSelDispMode@CSelectData@@QAEXH@Z 100868c0 f   select_sub.obj
 0001:000858f0       ?_init_kamoku_oder@CSelectSub@@IAEXHKK@Z 100868f0 f   select_sub.obj
 0001:00085bb0       ?OrderKamokuRestrict@CSelectData@@QAEXH@Z 10086bb0 f   select_sub.obj
 0001:00085d30       ?SetOrder@CSelectData@@QAEXHH@Z 10086d30 f   select_sub.obj
 0001:00085d60       ?ResetTkallPage@CSelectData@@QAEXXZ 10086d60 f   select_sub.obj
 0001:00085d70       ?SetAITkmkClass@CSelectData@@QAEXPAVAnalyzeAJ@@@Z 10086d70 f   select_sub.obj
 0001:00085d90       ?AITKkmkCount@CSelectData@@QAEHV?$CStringT@DV?$StrTraitMFC_DLL@DV?$ChTraitsCRT@D@ATL@@@@@ATL@@H@Z 10086d90 f   select_sub.obj
 0001:00085e00       ?BankAITKkmkCount@CSelectData@@QAEHPAHHV?$CStringT@DV?$StrTraitMFC_DLL@DV?$ChTraitsCRT@D@ATL@@@@@ATL@@H@Z 10086e00 f   select_sub.obj
 0001:00085e70       ?SelectJob@CSelectData@@QAEHPAU_SelectParam@@H@Z 10086e70 f   select_sub.obj
 0001:00085e80       ?RenewInvno@CSelectData@@QAEXXZ 10086e80 f   select_sub.obj
 0001:00085ed0       ?_init_kengyokmk_old@CSelectSub@@IAEXXZ 10086ed0 f   select_sub.obj
 0001:000860f0       ?_NaibuSelectSub@CSelectSub@@QAEXH@Z 100870f0 f   select_sub.obj
 0001:00086350       ?_SlipTkySelect@CSelectSub@@IAEHHH@Z 10087350 f   select_sub.obj
 0001:000863d0       ?slip_tky_dsp@CSelectSub@@IAEHHH@Z 100873d0 f   select_sub.obj
 0001:000866d0       ?AITKkmkCount@CSelectSub@@QAEHV?$CStringT@DV?$StrTraitMFC_DLL@DV?$ChTraitsCRT@D@ATL@@@@@ATL@@H@Z 100876d0 f   select_sub.obj
 0001:00086890       ?BankAITKkmkCount@CSelectSub@@QAEHPAHHV?$CStringT@DV?$StrTraitMFC_DLL@DV?$ChTraitsCRT@D@ATL@@@@@ATL@@H@Z 10087890 f   select_sub.obj
 0001:00086a60       ?_AITKkmkSelect@CSelectSub@@QAEHHH@Z 10087a60 f   select_sub.obj
 0001:00086b90       ?_AITKkmkSelectSub@CSelectSub@@QAEXH@Z 10087b90 f   select_sub.obj
 0001:00086dc0       ?_init_invno@CSelectSub@@IAEHXZ 10087dc0 f   select_sub.obj
 0001:00086ea0       ?_InvNoSelect@CSelectSub@@QAEHHHH@Z 10087ea0 f   select_sub.obj
 0001:00087390       ?_InvNoSelectSub@CSelectSub@@QAEXPAV?$CArray@U_INVOICE_INFO@@ABU1@@@H@Z 10088390 f   select_sub.obj
 0001:000874b0       ?push_back@?$deque@V?$CStringT@DV?$StrTraitMFC_DLL@DV?$ChTraitsCRT@D@ATL@@@@@ATL@@V?$allocator@V?$CStringT@DV?$StrTraitMFC_DLL@DV?$ChTraitsCRT@D@ATL@@@@@ATL@@@std@@@std@@QAEXABV?$CStringT@DV?$StrTraitMFC_DLL@DV?$ChTraitsCRT@D@ATL@@@@@ATL@@@Z 100884b0 f i select_sub.obj
 0001:00087540       ??1?$deque@V?$CStringT@DV?$StrTraitMFC_DLL@DV?$ChTraitsCRT@D@ATL@@@@@ATL@@V?$allocator@V?$CStringT@DV?$StrTraitMFC_DLL@DV?$ChTraitsCRT@D@ATL@@@@@ATL@@@std@@@std@@QAE@XZ 10088540 f i select_sub.obj
 0001:00087560       ?_Tidy@?$deque@V?$CStringT@DV?$StrTraitMFC_DLL@DV?$ChTraitsCRT@D@ATL@@@@@ATL@@V?$allocator@V?$CStringT@DV?$StrTraitMFC_DLL@DV?$ChTraitsCRT@D@ATL@@@@@ATL@@@std@@@std@@IAEXXZ 10088560 f i select_sub.obj
 0001:00087620       ?_Growmap@?$deque@V?$CStringT@DV?$StrTraitMFC_DLL@DV?$ChTraitsCRT@D@ATL@@@@@ATL@@V?$allocator@V?$CStringT@DV?$StrTraitMFC_DLL@DV?$ChTraitsCRT@D@ATL@@@@@ATL@@@std@@@std@@IAEXI@Z 10088620 f i select_sub.obj
 0001:000877c0       ?_Xlen@?$deque@V?$CStringT@DV?$StrTraitMFC_DLL@DV?$ChTraitsCRT@D@ATL@@@@@ATL@@V?$allocator@V?$CStringT@DV?$StrTraitMFC_DLL@DV?$ChTraitsCRT@D@ATL@@@@@ATL@@@std@@@std@@IBEXXZ 100887c0 f i select_sub.obj
 0001:000877d0       ?Copy@?$CArray@U_INVOICE_INFO@@ABU1@@@QAEXABV1@@Z 100887d0 f i select_sub.obj
 0001:00087830       ??1?$CArray@U_DBTKREC@@AAU1@@@UAE@XZ 10088830 f i select_sub.obj
 0001:00087850       ??1?$CArray@U_KSH_NAMDTA@@AAU1@@@UAE@XZ 10088850 f i select_sub.obj
 0001:000878a0       ?Serialize@?$CArray@U_KSH_NAMDTA@@AAU1@@@UAEXAAVCArchive@@@Z 100888a0 f i select_sub.obj
 0001:00087980       ?Add@?$CArray@U_KSH_SCAN@@AAU1@@@QAEHAAU_KSH_SCAN@@@Z 10088980 f i select_sub.obj
 0001:000879d0       ??1?$CArray@U_KSH_SCAN@@AAU1@@@UAE@XZ 100889d0 f i select_sub.obj
 0001:000879f0       ?Serialize@?$CArray@U_KSH_SCAN@@AAU1@@@UAEXAAVCArchive@@@Z 100889f0 f i select_sub.obj
 0001:00087ac0       ??1?$CArray@U_NP_FURIDTA@@AAU1@@@UAE@XZ 10088ac0 f i select_sub.obj
 0001:00087ae0       ?Serialize@?$CArray@U_NP_FURIDTA@@AAU1@@@UAEXAAVCArchive@@@Z 10088ae0 f i select_sub.obj
 0001:00087bb0       ??1?$CArray@UKJICHK@@AAU1@@@UAE@XZ 10088bb0 f i select_sub.obj
 0001:00087c00       ?Serialize@?$CArray@UKJICHK@@AAU1@@@UAEXAAVCArchive@@@Z 10088c00 f i select_sub.obj
 0001:00087ce0       ??1?$CArray@U_NBTORI_DTA@@AAU1@@@UAE@XZ 10088ce0 f i select_sub.obj
 0001:00087d00       ?Serialize@?$CArray@U_NBTORI_DTA@@AAU1@@@UAEXAAVCArchive@@@Z 10088d00 f i select_sub.obj
 0001:00087dd0       ??1?$CArray@U_KMKANA_DTA@@AAU1@@@UAE@XZ 10088dd0 f i select_sub.obj
 0001:00087df0       ?Serialize@?$CArray@U_KMKPG_SEL@@AAU1@@@UAEXAAVCArchive@@@Z 10088df0 f i select_sub.obj
 0001:00087df0       ?Serialize@?$CArray@U_KMKANA_DTA@@AAU1@@@UAEXAAVCArchive@@@Z 10088df0 f i select_sub.obj
 0001:00087ed0       ??1?$CArray@U_KMKPG_SEL@@AAU1@@@UAE@XZ 10088ed0 f i select_sub.obj
 0001:00087ef0       ??_E?$CArray@U_DBTKREC@@AAU1@@@UAEPAXI@Z 10088ef0 f i * CIL library *:* CIL module *
 0001:00087ef0       ??_G?$CArray@U_DBTKREC@@AAU1@@@UAEPAXI@Z 10088ef0 f i select_sub.obj
 0001:00087f40       ??_E?$CArray@U_KSH_NAMDTA@@AAU1@@@UAEPAXI@Z 10088f40 f i * CIL library *:* CIL module *
 0001:00087f40       ??_G?$CArray@U_KSH_NAMDTA@@AAU1@@@UAEPAXI@Z 10088f40 f i select_sub.obj
 0001:00087f80       ??_E?$CArray@U_KSH_SCAN@@AAU1@@@UAEPAXI@Z 10088f80 f i * CIL library *:* CIL module *
 0001:00087f80       ??_G?$CArray@U_KSH_SCAN@@AAU1@@@UAEPAXI@Z 10088f80 f i select_sub.obj
 0001:00087fd0       ??_E?$CArray@U_NP_FURIDTA@@AAU1@@@UAEPAXI@Z 10088fd0 f i * CIL library *:* CIL module *
 0001:00087fd0       ??_G?$CArray@U_NP_FURIDTA@@AAU1@@@UAEPAXI@Z 10088fd0 f i select_sub.obj
 0001:00088020       ??_E?$CArray@UKJICHK@@AAU1@@@UAEPAXI@Z 10089020 f i * CIL library *:* CIL module *
 0001:00088020       ??_G?$CArray@UKJICHK@@AAU1@@@UAEPAXI@Z 10089020 f i select_sub.obj
 0001:00088060       ??_E?$CArray@U_NBTORI_DTA@@AAU1@@@UAEPAXI@Z 10089060 f i * CIL library *:* CIL module *
 0001:00088060       ??_G?$CArray@U_NBTORI_DTA@@AAU1@@@UAEPAXI@Z 10089060 f i select_sub.obj
 0001:000880b0       ??_E?$CArray@U_KMKANA_DTA@@AAU1@@@UAEPAXI@Z 100890b0 f i * CIL library *:* CIL module *
 0001:000880b0       ??_G?$CArray@U_KMKANA_DTA@@AAU1@@@UAEPAXI@Z 100890b0 f i select_sub.obj
 0001:00088100       ??_E?$CArray@U_KMKPG_SEL@@AAU1@@@UAEPAXI@Z 10089100 f i * CIL library *:* CIL module *
 0001:00088100       ??_G?$CArray@U_KMKPG_SEL@@AAU1@@@UAEPAXI@Z 10089100 f i select_sub.obj
 0001:00088150       ?SetSize@?$CArray@U_KSH_NAMDTA@@AAU1@@@QAEXHH@Z 10089150 f i select_sub.obj
 0001:00088380       ?SetSize@?$CArray@U_KSH_SCAN@@AAU1@@@QAEXHH@Z 10089380 f i select_sub.obj
 0001:000884d0       ?SetSize@?$CArray@U_NP_FURIDTA@@AAU1@@@QAEXHH@Z 100894d0 f i select_sub.obj
 0001:00088620       ?SetSize@?$CArray@U_NBTORI_DTA@@AAU1@@@QAEXHH@Z 10089620 f i select_sub.obj
 0001:00088770       ?SetSize@?$CArray@U_KMKANA_DTA@@AAU1@@@QAEXHH@Z 10089770 f i select_sub.obj
 0001:00088770       ?SetSize@?$CArray@U_KMKPG_SEL@@AAU1@@@QAEXHH@Z 10089770 f i select_sub.obj
 0001:000888d0       ??_G?$CArray@U_INVOICE_INFO@@ABU1@@@UAEPAXI@Z 100898d0 f i select_sub.obj
 0001:000888d0       ??_E?$CArray@U_INVOICE_INFO@@ABU1@@@UAEPAXI@Z 100898d0 f i * CIL library *:* CIL module *
 0001:00088920       ?Serialize@?$CArray@U_INVOICE_INFO@@ABU1@@@UAEXAAVCArchive@@@Z 10089920 f i select_sub.obj
 0001:000889f0       ??1?$CArray@U_INVOICE_INFO@@ABU1@@@UAE@XZ 100899f0 f i select_sub.obj
 0001:00088a10       ?GetRuntimeClass@CSelGuideCtrl@@UBEPAUCRuntimeClass@@XZ 10089a10 f   SelGuideCtrl.obj
 0001:00088a20       ??_ECSelGuideCtrl@@UAEPAXI@Z 10089a20 f i * CIL library *:* CIL module *
 0001:00088a20       ??_GCSelGuideCtrl@@UAEPAXI@Z 10089a20 f i SelGuideCtrl.obj
 0001:00088a70       ??1CSelGuideCtrl@@UAE@XZ   10089a70 f   SelGuideCtrl.obj
 0001:00088a80       ?RegisterWindowClass@CSelGuideCtrl@@QAEHXZ 10089a80 f   SelGuideCtrl.obj
 0001:00088b30       ?GetMessageMap@CSelGuideCtrl@@MBEPBUAFX_MSGMAP@@XZ 10089b30 f   SelGuideCtrl.obj
 0001:00088b40       ?OnPaint@CSelGuideCtrl@@QAEXXZ 10089b40 f   SelGuideCtrl.obj
 0001:00088ee0       ?OnLButtonDown@CSelGuideCtrl@@QAEXIVCPoint@@@Z 10089ee0 f   SelGuideCtrl.obj
 0001:000890b0       ?OnTimer@CSelGuideCtrl@@QAEXI@Z 1008a0b0 f   SelGuideCtrl.obj
 0001:00089220       ?OnSize@CSelGuideCtrl@@QAEXIHH@Z 1008a220 f   SelGuideCtrl.obj
 0001:00089280       ?OnLButtonUp@CSelGuideCtrl@@QAEXIVCPoint@@@Z 1008a280 f   SelGuideCtrl.obj
 0001:000893a0       ?OnMouseActivate@CSelGuideCtrl@@QAEHPAVCWnd@@II@Z 1008a3a0 f   SelGuideCtrl.obj
 0001:000895a0       ??0CSkbnIn@@QAE@PAVCWnd@@HH_N11HH@Z 1008a5a0 f   SkbnIn.obj
 0001:00089920       ??_ECSkbnIn@@UAEPAXI@Z     1008a920 f i * CIL library *:* CIL module *
 0001:00089920       ??_GCSkbnIn@@UAEPAXI@Z     1008a920 f i SkbnIn.obj
 0001:00089a30       ?DoDataExchange@CSkbnIn@@MAEXPAVCDataExchange@@@Z 1008aa30 f   SkbnIn.obj
 0001:00089b00       ?GetMessageMap@CSkbnIn@@MBEPBUAFX_MSGMAP@@XZ 1008ab00 f   SkbnIn.obj
 0001:00089b60       ?RetroFocus@CSkbnIn@@IAEJIJ@Z 1008ab60 f   SkbnIn.obj
 0001:00089ba0       ?CheckSyzPn@CSkbnIn@@QAEHH@Z 1008aba0 f   SkbnIn.obj
 0001:00089e80       ?dc_kmdefcheck@CSkbnIn@@IAEHH@Z 1008ae80 f   SkbnIn.obj
 0001:00089fa0       ?sydata_set@CSkbnIn@@IAEHPAH@Z 1008afa0 f   SkbnIn.obj
 0001:0008ad90       ?kbn_select_make@CSkbnIn@@IAEXPAU_SY_MSG_TBL@@H@Z 1008bd90 f   SkbnIn.obj
 0001:0008b100       ?SetSkbnSelNo@CSkbnIn@@QAEHH@Z 1008c100 f   SkbnIn.obj
 0001:0008b6d0       ?get_nextpn@CSkbnIn@@IAEHHH@Z 1008c6d0 f   SkbnIn.obj
 0001:0008b730       ?get_prevpn@CSkbnIn@@IAEHH@Z 1008c730 f   SkbnIn.obj
 0001:0008b790       ?to_parent@CSkbnIn@@IAEXPAVCWnd@@J@Z 1008c790 f   SkbnIn.obj
 0001:0008b7e0       ?OnInitDialog@CSkbnIn@@MAEHXZ 1008c7e0 f   SkbnIn.obj
 0001:0008bb90       ?MoveCtrl@CSkbnIn@@IAEXXZ  1008cb90 f   SkbnIn.obj
 0001:0008bec0       ?GetEventSinkMap@CSkbnIn@@MBEPBUAFX_EVENTSINKMAP@@XZ 1008cec0 f   SkbnIn.obj
 0001:0008bed0       ?OnSetFocusIcsdbedtctrl@CSkbnIn@@IAEXI@Z 1008ced0 f   SkbnIn.obj
 0001:0008c050       ?OnKillFocusIcsdbedtctrl@CSkbnIn@@IAEXIJ@Z 1008d050 f   SkbnIn.obj
 0001:0008c280       ?OnTerminationIcsdbedtctrl@CSkbnIn@@IAEXIJJJ@Z 1008d280 f   SkbnIn.obj
 0001:0008c390       ?OnTerminationDBEdt1@CSkbnIn@@IAEHJJJ@Z 1008d390 f   SkbnIn.obj
 0001:0008c640       ?OnTerminationDBEdt2@CSkbnIn@@IAEHJJJ@Z 1008d640 f   SkbnIn.obj
 0001:0008c940       ?OnTerminationDBEdt3@CSkbnIn@@IAEHJJJ@Z 1008d940 f   SkbnIn.obj
 0001:0008cc30       ?OnTerminationDBEdt4@CSkbnIn@@IAEHJJJ@Z 1008dc30 f   SkbnIn.obj
 0001:0008cf10       ?set_nextpos@CSkbnIn@@QAEXXZ 1008df10 f   SkbnIn.obj
 0001:0008d490       ?OnTerminationDBEdt5@CSkbnIn@@IAEHJJJ@Z 1008e490 f   SkbnIn.obj
 0001:0008d770       ?OnTerminationDBEdt6@CSkbnIn@@IAEHJJJ@Z 1008e770 f   SkbnIn.obj
 0001:0008db50       ?OnTerminationDBEdtToku@CSkbnIn@@IAEHJJJ@Z 1008eb50 f   SkbnIn.obj
 0001:0008de30       ?PreTranslateMessage@CSkbnIn@@UAEHPAUtagMSG@@@Z 1008ee30 f   SkbnIn.obj
 0001:0008df60       ?DlgRectCheck@CSkbnIn@@QAEXAAH0PAVCRect@@PAH@Z 1008ef60 f   SkbnIn.obj
 0001:0008e0b0       ?MoveInvCtrl@CSkbnIn@@AAEX_N@Z 1008f0b0 f   SkbnIn.obj
 0001:0008e2f0       ?OnTerminationDBEdtInv@CSkbnIn@@IAEHJJJ@Z 1008f2f0 f   SkbnIn.obj
 0001:0008e9b0       ?OnTerminationCheckMenzei@CSkbnIn@@IAEHK@Z 1008f9b0 f   SkbnIn.obj
 0001:0008eb20       ?SetMenzeiCheck@CSkbnIn@@AAEXXZ 1008fb20 f   SkbnIn.obj
 0001:0008eb60       ?OnBnClickedMenzei@CSkbnIn@@QAEXXZ 1008fb60 f   SkbnIn.obj
 0001:0008eb70       ?MenCheckButtonJob@CSkbnIn@@QAEXJ@Z 1008fb70 f   SkbnIn.obj
 0001:0008eca0       ?MenWariDBEdit@CSkbnIn@@QAEXH@Z 1008fca0 f   SkbnIn.obj
 0001:0008ee10       ?OnTerminationDBEdtMen@CSkbnIn@@QAEHJJJ@Z 1008fe10 f   SkbnIn.obj
 0001:0008f0a0       ?OnSetfocusCheckMenzei@CSkbnIn@@QAEXXZ 100900a0 f   SkbnIn.obj
 0001:0008f0e0       ?ImeEndCompositionIcsdbedtctrl@CSkbnIn@@IAEXIFPBD0@Z 100900e0 f   SkbnIn.obj
 0001:0008f280       ?OnMyMessage@CSkbnIn@@QAEJIJ@Z 10090280 f   SkbnIn.obj
 0001:0008f330       ??1CInvnoMng@@QAE@XZ       10090330 f   SkbnIn.obj
 0001:0008f350       ?FukuKanaSearch@CInvnoMng@@QAEHPAUtagMSG@@@Z 10090350 f   SkbnIn.obj
 0001:0008f560       ?KanaCheckVK_BACK@CInvnoMng@@QAEHPAUtagMSG@@@Z 10090560 f   SkbnIn.obj
 0001:0008f690       ?InvNoSearch@CInvnoMng@@QAEHPAD@Z 10090690 f   SkbnIn.obj
 0001:0008f920       ?CancelIME@CInvnoMng@@QAEHXZ 10090920 f   SkbnIn.obj
 0001:0008f976       ??_ECSkbnIn@@WKI@AEPAXI@Z  10090976 f i SkbnIn.obj
 0001:0008f990       ?Init@CComCriticalSection@ATL@@QAEJXZ 10090990 f i stdafx.obj
 0001:0008f9c0       ??4IFPk@@QAEAAV0@ABV0@@Z   100909c0 f i stdafx.obj
 0001:0008f9e0       ??4IFPk@@QAEAAV0@$$QAV0@@Z 100909e0 f i stdafx.obj
 0001:0008fa50       ??4TgPackData@@QAEAAV0@ABV0@@Z 10090a50 f i stdafx.obj
 0001:0008fa80       ??4TgPackData@@QAEAAV0@$$QAV0@@Z 10090a80 f i stdafx.obj
 0001:0008fad0       ??4CVolDateDB@@QAEAAV0@ABV0@@Z 10090ad0 f i stdafx.obj
 0001:0008faf0       ??4CArith@@QAEAAV0@ABV0@@Z 10090af0 f i stdafx.obj
 0001:0008fb10       ??4CArith@@QAEAAV0@$$QAV0@@Z 10090b10 f i stdafx.obj
 0001:0008fb50       ??4CArithEx@@QAEAAV0@ABV0@@Z 10090b50 f i stdafx.obj
 0001:0008fb70       ??4CArithEx@@QAEAAV0@$$QAV0@@Z 10090b70 f i stdafx.obj
 0001:0008fbc0       ??1COAccess@@UAE@XZ        10090bc0 f i stdafx.obj
 0001:0008fbd0       ??_FCOAccess@@QAEXXZ       10090bd0 f i stdafx.obj
 0001:0008fbe0       ??1Cusertbl2@@UAE@XZ       10090be0 f i stdafx.obj
 0001:0008fc80       ??_FCusertbl2@@QAEXXZ      10090c80 f i stdafx.obj
 0001:0008fc90       ??_FCO_Conn@@QAEXXZ        10090c90 f i stdafx.obj
 0001:0008fca0       ??1CMasterId@@UAE@XZ       10090ca0 f i stdafx.obj
 0001:0008fcf0       ??_FCMasterId@@QAEXXZ      10090cf0 f i stdafx.obj
 0001:0008fd00       ??0ICSMCTL@@QAE@ABV0@@Z    10090d00 f i stdafx.obj
 0001:0008fdd0       ??4ICSMCTL@@QAEAAV0@ABV0@@Z 10090dd0 f i stdafx.obj
 0001:0008fe70       ??4COUNLOCK_TABLE2@@QAEAAV0@ABV0@@Z 10090e70 f i stdafx.obj
 0001:0008fe90       ??4COUNLOCK_TABLE2@@QAEAAV0@$$QAV0@@Z 10090e90 f i stdafx.obj
 0001:0008fee0       ??4COLOCK_TABLE2@@QAEAAV0@ABV0@@Z 10090ee0 f i stdafx.obj
 0001:0008ff40       ??1CoptionRec@@UAE@XZ      10090f40 f i stdafx.obj
 0001:0008ff80       ??_FCoptionRec@@QAEXXZ     10090f80 f i stdafx.obj
 0001:0008ff90       ??0CDinpINI@@QAE@ABV0@@Z   10090f90 f i stdafx.obj
 0001:0008fff0       ??4CDinpINI@@QAEAAV0@ABV0@@Z 10090ff0 f i stdafx.obj
 0001:00090050       ??0CBrnTky@@QAE@ABV0@@Z    10091050 f i stdafx.obj
 0001:00090070       ??4CHjiyuInp@@QAEAAV0@ABV0@@Z 10091070 f i stdafx.obj
 0001:00090070       ??4CSyzInp@@QAEAAV0@ABV0@@Z 10091070 f i stdafx.obj
 0001:00090070       ??4CHusenInp@@QAEAAV0@ABV0@@Z 10091070 f i stdafx.obj
 0001:00090070       ??4CSyzInpLite@@QAEAAV0@ABV0@@Z 10091070 f i stdafx.obj
 0001:00090070       ??4CBrnTky@@QAEAAV0@ABV0@@Z 10091070 f i stdafx.obj
 0001:00090090       ??0CSyzInp@@QAE@ABV0@@Z    10091090 f i stdafx.obj
 0001:000900b0       ??_ECSyzInp@@UAEPAXI@Z     100910b0 f i stdafx.obj
 0001:00090190       ??0CSyzInpLite@@QAE@ABV0@@Z 10091190 f i stdafx.obj
 0001:000901b0       ??_ECSyzInpLite@@UAEPAXI@Z 100911b0 f i stdafx.obj
 0001:00090250       ??0CHusenInp@@QAE@ABV0@@Z  10091250 f i stdafx.obj
 0001:00090270       ??0CHjiyuInp@@QAE@ABV0@@Z  10091270 f i stdafx.obj
 0001:00090290       ??0CDataZeiCalq@@QAE@ABV0@@Z 10091290 f i stdafx.obj
 0001:000902c0       ??4CSWKDataSub@@QAEAAV0@ABV0@@Z 100912c0 f i stdafx.obj
 0001:000902c0       ??4CDataZeiCalq@@QAEAAV0@ABV0@@Z 100912c0 f i stdafx.obj
 0001:00090300       ??0CSWKDataSub@@QAE@ABV0@@Z 10091300 f i stdafx.obj
 0001:00090330       ??0CSWKselDlg@@QAE@PAVCWnd@@H@Z 10091330 f   SWKselDlg.obj
 0001:00090410       ??_GCSWKselDlg@@UAEPAXI@Z  10091410 f i SWKselDlg.obj
 0001:00090410       ??_ECSWKselDlg@@UAEPAXI@Z  10091410 f i * CIL library *:* CIL module *
 0001:000904d0       ??1CSWKselDlg@@UAE@XZ      100914d0 f i SWKselDlg.obj
 0001:00090560       ??0_SWK_REGSEL@@QAE@XZ     10091560 f i SWKselDlg.obj
 0001:00090580       ?GetMessageMap@CSWKselDlg@@MBEPBUAFX_MSGMAP@@XZ 10091580 f   SWKselDlg.obj
 0001:00090660       ?OnInitDialog@CSWKselDlg@@MAEHXZ 10091660 f   SWKselDlg.obj
 0001:000907a0       ?SetRadioString@CSWKselDlg@@IAEXH@Z 100917a0 f   SWKselDlg.obj
 0001:000909d0       ?OnOK@CSWKselDlg@@MAEXXZ   100919d0 f   SWKselDlg.obj
 0001:00090cbc       ??_ECSWKselDlg@@WKI@AEPAXI@Z 10091cbc f i SWKselDlg.obj
 0001:00090cd0       ??_ECSwlistSelDlg@@UAEPAXI@Z 10091cd0 f i * CIL library *:* CIL module *
 0001:00090cd0       ??_GCSwlistSelDlg@@UAEPAXI@Z 10091cd0 f i SwlistSelDlg.obj
 0001:00090d40       ??1CSwlistSelDlg@@UAE@XZ   10091d40 f i SwlistSelDlg.obj
 0001:00090d70       ?DoDataExchange@CSwlistSelDlg@@MAEXPAVCDataExchange@@@Z 10091d70 f   SwlistSelDlg.obj
 0001:00090dc0       ?GetMessageMap@CSwlistSelDlg@@MBEPBUAFX_MSGMAP@@XZ 10091dc0 f   SwlistSelDlg.obj
 0001:00090e20       ?OnInitDialog@CSwlistSelDlg@@MAEHXZ 10091e20 f   SwlistSelDlg.obj
 0001:00090e40       ?MakeSiwakeFrm@CSwlistSelDlg@@QAEXXZ 10091e40 f   SwlistSelDlg.obj
 0001:00091030       ??0tag_LINP_COLUMN@@QAE@XZ 10092030 f i SwlistSelDlg.obj
 0001:00091050       ??1tag_LINP_COLUMN@@QAE@XZ 10092050 f i SwlistSelDlg.obj
 0001:00091070       ?SiwakeInpSet@CSwlistSelDlg@@QAEHXZ 10092070 f   SwlistSelDlg.obj
 0001:00091450       ??0tag_LINP_DATA@@QAE@XZ   10092450 f i SwlistSelDlg.obj
 0001:00091460       ??1tag_LINP_DATA@@QAE@XZ   10092460 f i SwlistSelDlg.obj
 0001:00091470       ??4_SWKCOD_DATA@@QAEAAU0@ABU0@@Z 10092470 f i SwlistSelDlg.obj
 0001:000914b0       ?OnUser1_Msg@CSwlistSelDlg@@IAEJIJ@Z 100924b0 f   SwlistSelDlg.obj
 0001:000914e0       ?OnShowWindow@CSwlistSelDlg@@IAEXHI@Z 100924e0 f   SwlistSelDlg.obj
 0001:00091520       ?OnOK@CSwlistSelDlg@@MAEXXZ 10092520 f   SwlistSelDlg.obj
 0001:00091580       ?GetEventSinkMap@CSwlistSelDlg@@MBEPBUAFX_EVENTSINKMAP@@XZ 10092580 f   SwlistSelDlg.obj
 0001:00091590       ?OnKeyInIcslistinpctrl1@CSwlistSelDlg@@IAEXFFF@Z 10092590 f   SwlistSelDlg.obj
 0001:000915f0       ?OnLButtonDblClickIcslistinpctrl1@CSwlistSelDlg@@IAEXF@Z 100925f0 f   SwlistSelDlg.obj
 0001:00091613       ??_ECSwlistSelDlg@@WKI@AEPAXI@Z 10092613 f i SwlistSelDlg.obj
 0001:00091620       ??1CANAHYOITMdata@@QAE@XZ  10092620 f i SyogBrn.obj
 0001:00091640       ??_ECSyogBrn@@UAEPAXI@Z    10092640 f i * CIL library *:* CIL module *
 0001:00091640       ??_GCSyogBrn@@UAEPAXI@Z    10092640 f i SyogBrn.obj
 0001:00091670       ??1CSyogBrn@@UAE@XZ        10092670 f   SyogBrn.obj
 0001:00091700       ?syogbrn_iniz@CSyogBrn@@QAEHPAVCDBZmSub@@@Z 10092700 f   SyogBrn.obj
 0001:00091a10       ?syogbrn_free@CSyogBrn@@QAEXXZ 10092a10 f   SyogBrn.obj
 0001:00091ad0       ?MakeApSyogBrn@CSyogBrn@@IAEHPAUtag_BRN_TB@@H@Z 10092ad0 f   SyogBrn.obj
 0001:00091fe0       ??1?$CArray@VCANAHYOITMdata@@AAV1@@@UAE@XZ 10092fe0 f i SyogBrn.obj
 0001:00092050       ?Serialize@?$CArray@VCANAHYOITMdata@@AAV1@@@UAEXAAVCArchive@@@Z 10093050 f i SyogBrn.obj
 0001:00092120       ??_G?$CArray@VCANAHYOITMdata@@AAV1@@@UAEPAXI@Z 10093120 f i SyogBrn.obj
 0001:00092120       ??_E?$CArray@VCANAHYOITMdata@@AAV1@@@UAEPAXI@Z 10093120 f i * CIL library *:* CIL module *
 0001:00092160       ?SetSize@?$CArray@VCANAHYOITMdata@@AAV1@@@QAEXHH@Z 10093160 f i SyogBrn.obj
 0001:00092440       ?SetPara@CSyzInpSub@@QAEHPAVCDBZmSub@@PAVCDBSyohi@@PAVCWnd@@@Z 10093440 f   SyzInpSub.obj
 0001:00092640       ?DialogON@CSyzInpSub@@QAEHHVCRect@@HH@Z 10093640 f   SyzInpSub.obj
 0001:00092c90       ??0CSyzInp@@QAE@XZ         10093c90 f   SyzInpSub.obj
 0001:00092d30       ??1CSyzInp@@UAE@XZ         10093d30 f   SyzInpSub.obj
 0001:00092d80       ?SetDenpMode@CSyzInp@@QAEXXZ 10093d80 f   SyzInpSub.obj
 0001:00092d90       ?SetInvNoDispCount@CSyzInp@@QAEXH@Z 10093d90 f   SyzInpSub.obj
 0001:00092da0       ?SetDialogResize@CSyzInpLite@@QAEXH@Z 10093da0 f   SyzInpSub.obj
 0001:00092da0       ?SetDialogResize@CSyzInp@@QAEXH@Z 10093da0 f   SyzInpSub.obj
 0001:00092db0       ?SetPara@CSyzInp@@QAEHPAVCDBZmSub@@PAVCDBSyohi@@PAVCWnd@@@Z 10093db0 f   SyzInpSub.obj
 0001:00092dd0       ?RenewInvNo@CSyzInp@@QAEHXZ 10093dd0 f   SyzInpSub.obj
 0001:00092e40       ?CancelInvNoIME@CSyzInp@@QAEXXZ 10093e40 f   SyzInpSub.obj
 0001:00092eb0       ?DialogON@CSyzInp@@QAEHHVCRect@@HH@Z 10093eb0 f   SyzInpSub.obj
 0001:00092ee0       ?DialogOFF@CSyzInp@@QAEHXZ 10093ee0 f   SyzInpSub.obj
 0001:00092f20       ?IsDisplay@CSyzInp@@QAEHXZ 10093f20 f   SyzInpSub.obj
 0001:00092f30       ?GetCrntRect@CSyzInp@@QAEXAAVCSize@@@Z 10093f30 f   SyzInpSub.obj
 0001:00093050       ?GetCrntWindowRect@CSyzInp@@QAEXAAVCRect@@@Z 10094050 f   SyzInpSub.obj
 0001:00093080       ?SetSkbnSelNo@CSyzInp@@QAEHH@Z 10094080 f   SyzInpSub.obj
 0001:00093090       ?CheckSyzPn@CSyzInp@@QAEHH@Z 10094090 f   SyzInpSub.obj
 0001:000930a0       ?set_nextpos@CSyzInp@@QAEXXZ 100940a0 f   SyzInpSub.obj
 0001:000930b0       ?set_nowfocus@CSyzInp@@QAEXXZ 100940b0 f   SyzInpSub.obj
 0001:000930f0       ?GetSyzswkKbn@CSyzInp@@QAEKXZ 100940f0 f   SyzInpSub.obj
 0001:00093100       ?CheckInvno@CSyzInp@@QAEHXZ 10094100 f   SyzInpSub.obj
 0001:00093290       ?Copydbdata@@YAXPAVCDBDATA@@0@Z 10094290 f   SyzInpSub.obj
 0001:00093470       ?km_syattr@@YAHPAU_DBKNREC@@PAVCDBZmSub@@@Z 10094470 f   SyzInpSub.obj
 0001:000935b0       ?_sydata_initsub@@YAHPAVCDBZmSub@@PAVCDBSyohi@@PAVCDBDATA@@@Z 100945b0 f   SyzInpSub.obj
 0001:000939f0       ?SetSyzData@CSyzInpLiteSub@@QAEHPAVCDBDATA@@@Z 100949f0 f   SyzInpSub.obj
 0001:00093be0       ?SyGetMessage@CSyzInpLiteSub@@QAEHXZ 10094be0 f   SyzInpSub.obj
 0001:00093cd0       ?karisyz_check@CSyzInpLiteSub@@QAEHPAVCDBDATA@@@Z 10094cd0 f   SyzInpSub.obj
 0001:00093e10       ?SetPara@CSyzInpLiteSub@@QAEHPAVCDBZmSub@@PAVCWnd@@@Z 10094e10 f   SyzInpSub.obj
 0001:000941d0       ?SetParaNoDlg@CSyzInpLiteSub@@QAEHPAVCDBZmSub@@@Z 100951d0 f   SyzInpSub.obj
 0001:00094350       ?DialogON@CSyzInpLiteSub@@QAEHHVCRect@@HH@Z 10095350 f   SyzInpSub.obj
 0001:00094810       ??0CSyzInpLite@@QAE@XZ     10095810 f   SyzInpSub.obj
 0001:00094950       ??1CSyzInpLite@@UAE@XZ     10095950 f   SyzInpSub.obj
 0001:00094a50       ?SetPara@CSyzInpLite@@QAEHPAVCDBZmSub@@PAVCWnd@@@Z 10095a50 f   SyzInpSub.obj
 0001:00094a70       ?SetParaNoDlg@CSyzInpLite@@QAEHPAVCDBZmSub@@@Z 10095a70 f   SyzInpSub.obj
 0001:00094a90       ?SetSyzData@CSyzInpLite@@QAEHPAVCDBDATA@@@Z 10095a90 f   SyzInpSub.obj
 0001:00094ab0       ?UpdateSyzData@CSyzInpLite@@QAEHPAVCDBDATA@@@Z 10095ab0 f   SyzInpSub.obj
 0001:00094b50       ?TekiyoSyzData@CSyzInpLite@@QAEHH@Z 10095b50 f   SyzInpSub.obj
 0001:00094b80       ?TekiyoSyzData@CSyzInpLite@@QAEHPAU_SY_TKREC_@@@Z 10095b80 f   SyzInpSub.obj
 0001:00094bb0       ?DialogON@CSyzInpLite@@QAEHHVCRect@@HH@Z 10095bb0 f   SyzInpSub.obj
 0001:00094be0       ?DialogOFF@CSyzInpLite@@QAEHXZ 10095be0 f   SyzInpSub.obj
 0001:00094c20       ?IsDisplay@CSyzInpLite@@QAEHXZ 10095c20 f   SyzInpSub.obj
 0001:00094c40       ?GetCrntRect@CSyzInpLite@@QAEXAAVCSize@@@Z 10095c40 f   SyzInpSub.obj
 0001:00094d60       ?SetSkbnSelNo@CSyzInpLite@@QAEHH@Z 10095d60 f   SyzInpSub.obj
 0001:00094d80       ?set_nowfocus@CSyzInpLite@@QAEXXZ 10095d80 f   SyzInpSub.obj
 0001:00094db0       ?GetSyzLineText@CSyzInpLite@@QAE?AV?$CStringT@DV?$StrTraitMFC_DLL@DV?$ChTraitsCRT@D@ATL@@@@@ATL@@XZ 10095db0 f   SyzInpSub.obj
 0001:00094dd0       ?GetNowSyzData@CSyzInpLite@@QAEXPAVCDBDATA@@@Z 10095dd0 f   SyzInpSub.obj
 0001:00094df0       ?Close@CSyzInpLite@@QAEXXZ 10095df0 f   SyzInpSub.obj
 0001:00094e50       ?SetDispMode@CSyzInpLite@@QAEXH@Z 10095e50 f   SyzInpSub.obj
 0001:00094e70       ?ReloadData@CSyzInpLite@@QAEXXZ 10095e70 f   SyzInpSub.obj
 0001:00094f00       ?CheckInvno@CSyzInpLite@@QAEHXZ 10095f00 f   SyzInpSub.obj
 0001:00094f10       ??0CTkdicDlg@@QAE@PAVCWnd@@@Z 10095f10 f   TkdicDlg.obj
 0001:00095330       ??_ECTkdicDlg@@UAEPAXI@Z   10096330 f i * CIL library *:* CIL module *
 0001:00095330       ??_GCTkdicDlg@@UAEPAXI@Z   10096330 f i TkdicDlg.obj
 0001:00095370       ??1?$map@JU_CTKDATA_REC@CTkdicDlg@@U?$less@J@std@@V?$allocator@U?$pair@$$CBJU_CTKDATA_REC@CTkdicDlg@@@std@@@4@@std@@QAE@XZ 10096370 f i TkdicDlg.obj
 0001:000953e0       ??1CTkdicDlg@@UAE@XZ       100963e0 f   TkdicDlg.obj
 0001:00095580       ?DoDataExchange@CTkdicDlg@@MAEXPAVCDataExchange@@@Z 10096580 f   TkdicDlg.obj
 0001:00095690       ?WndShow@CTkdicDlg@@UAEXH@Z 10096690 f   TkdicDlg.obj
 0001:00095880       ?InitWork@CTkdicDlg@@UAEXNN@Z 10096880 f   TkdicDlg.obj
 0001:00095f20       ?IsEnableToolBar@CTkdicDlg@@UAEHH@Z 10096f20 f   TkdicDlg.obj
 0001:00095f90       ?TorokDisp@CTkdicDlg@@IAEXXZ 10096f90 f   TkdicDlg.obj
 0001:00096130       ?GetMessageMap@CTkdicDlg@@MBEPBUAFX_MSGMAP@@XZ 10097130 f   TkdicDlg.obj
 0001:00096140       ?OnInitDialog@CTkdicDlg@@MAEHXZ 10097140 f   TkdicDlg.obj
 0001:00096bc0       ?FontSize@CTkdicDlg@@IAEJIJ@Z 10097bc0 f   TkdicDlg.obj
 0001:00096c40       ?MakeTKdicFrm@CTkdicDlg@@IAEXXZ 10097c40 f   TkdicDlg.obj
 0001:00096fb0       ?SetItemStateTkyo@CTkdicDlg@@IAEXHH@Z 10097fb0 f   TkdicDlg.obj
 0001:000971b0       ?SetReportRecord@CTkdicDlg@@QAEXPAVICSReportRecord@@@Z 100981b0 f   TkdicDlg.obj
 0001:00097420       ?SetItemListTkyo@CTkdicDlg@@IAEXHH@Z 10098420 f   TkdicDlg.obj
 0001:00097970       ?MakeTkyoLine@CTkdicDlg@@IAEXH@Z 10098970 f   TkdicDlg.obj
 0001:00097e00       ??0_CTKDATA_REC@CTkdicDlg@@QAE@XZ 10098e00 f i TkdicDlg.obj
 0001:00097e70       ??1_CTKDATA_REC@CTkdicDlg@@QAE@XZ 10098e70 f i TkdicDlg.obj
 0001:00097ee0       ??1?$pair@JU_CTKDATA_REC@CTkdicDlg@@@std@@QAE@XZ 10098ee0 f i TkdicDlg.obj
 0001:00097ef0       ?OnLeftbutton@CTkdicDlg@@IAEXXZ 10098ef0 f   TkdicDlg.obj
 0001:00097f00       ?OnRightbutton@CTkdicDlg@@IAEXXZ 10098f00 f   TkdicDlg.obj
 0001:00097f10       ?OnAddbutton@CTkdicDlg@@IAEXXZ 10098f10 f   TkdicDlg.obj
 0001:00097f20       ?OnSubbutton@CTkdicDlg@@IAEXXZ 10098f20 f   TkdicDlg.obj
 0001:00097f30       ?OnHomebutton@CTkdicDlg@@IAEXXZ 10098f30 f   TkdicDlg.obj
 0001:00097f40       ?OnCtlColor@CTkdicDlg@@IAEPAUHBRUSH__@@PAVCDC@@PAVCWnd@@I@Z 10098f40 f   TkdicDlg.obj
 0001:00097fc0       ?OnButtonTorok@CTkdicDlg@@IAEXXZ 10098fc0 f   TkdicDlg.obj
 0001:00098560       ?GetEventSinkMap@CTkdicDlg@@MBEPBUAFX_EVENTSINKMAP@@XZ 10099560 f   TkdicDlg.obj
 0001:00098570       ?CheckUseTkcod@CTkdicDlg@@QAEHH@Z 10099570 f   TkdicDlg.obj
 0001:00098b00       ?DeleteTkrec@CTkdicDlg@@IAEXH@Z 10099b00 f   TkdicDlg.obj
 0001:00098ba0       ?Update_Tkrec@CTkdicDlg@@IAEXH@Z 10099ba0 f   TkdicDlg.obj
 0001:00098d80       ?OnKillFocusIcsdbedtctrl1@CTkdicDlg@@IAEXJ@Z 10099d80 f   TkdicDlg.obj
 0001:00098da0       ?get_kanadata@CTkdicDlg@@IAEXXZ 10099da0 f   TkdicDlg.obj
 0001:00098ed0       ?OnTerminationIcsdbedtctrl1@CTkdicDlg@@IAEXJJJ@Z 10099ed0 f   TkdicDlg.obj
 0001:00099090       ?OnKillFocusIcsdbedtNum@CTkdicDlg@@IAEXJ@Z 1009a090 f   TkdicDlg.obj
 0001:000990b0       ?OnTerminationIcsdbedtNum@CTkdicDlg@@IAEXJJJ@Z 1009a0b0 f   TkdicDlg.obj
 0001:00099240       ?TknoInp@CTkdicDlg@@IAEXH@Z 1009a240 f   TkdicDlg.obj
 0001:00099310       ?OnTKDICMessage@CTkdicDlg@@IAEJIJ@Z 1009a310 f   TkdicDlg.obj
 0001:000995d0       ?OnRetroFocus@CTkdicDlg@@IAEJIJ@Z 1009a5d0 f   TkdicDlg.obj
 0001:00099630       ?GetTableOfset@CTkdicDlg@@QAEHH@Z 1009a630 f   TkdicDlg.obj
 0001:000996c0       ?OnUser_1@CTkdicDlg@@IAEJIJ@Z 1009a6c0 f   TkdicDlg.obj
 0001:000999b0       ??1CTksrchDlg@@UAE@XZ      1009a9b0 f i TkdicDlg.obj
 0001:000999e0       ?SrchTKname@CTkdicDlg@@IAEHPADPAHH@Z 1009a9e0 f   TkdicDlg.obj
 0001:00099d20       ?AddTkrec_OtherReg@CTkdicDlg@@IAEHXZ 1009ad20 f   TkdicDlg.obj
 0001:0009a380       ?OnButtonDebkmk@CTkdicDlg@@IAEXXZ 1009b380 f   TkdicDlg.obj
 0001:0009a3d0       ?OnButtonCrekmk@CTkdicDlg@@IAEXXZ 1009b3d0 f   TkdicDlg.obj
 0001:0009a430       ?OnButtonDebcre@CTkdicDlg@@IAEXXZ 1009b430 f   TkdicDlg.obj
 0001:0009a490       ?OnButtonSwk@CTkdicDlg@@IAEXXZ 1009b490 f   TkdicDlg.obj
 0001:0009a5f0       ?OnNMReportEditsetfocusREPORT_TKDIC@CTkdicDlg@@QAEXPAUtagNMHDR@@PAJ@Z 1009b5f0 f   TkdicDlg.obj
 0001:0009af50       ?OnNMReportEditkillfocusREPORT_TKDIC@CTkdicDlg@@QAEXPAUtagNMHDR@@PAJ@Z 1009bf50 f   TkdicDlg.obj
 0001:0009b5a0       ?SetMapColor@CTkdicDlg@@QAEXXZ 1009c5a0 f   TkdicDlg.obj
 0001:0009b730       ?OnMyMessage@CTkdicDlg@@IAEJIJ@Z 1009c730 f   TkdicDlg.obj
 0001:0009b7d0       ?PreTranslateMessage@CTkdicDlg@@UAEHPAUtagMSG@@@Z 1009c7d0 f   TkdicDlg.obj
 0001:0009c110       ?LastDataGet@CTkdicDlg@@UAEXXZ 1009d110 f   TkdicDlg.obj
 0001:0009c120       ?OnButtonFuri@CTkdicDlg@@IAEXXZ 1009d120 f   TkdicDlg.obj
 0001:0009c2b0       ?Change_AllTKInfo@CTkdicDlg@@IAEHHHH@Z 1009d2b0 f   TkdicDlg.obj
 0001:0009c5a0       ?OnBnDel@CTkdicDlg@@IAEXXZ 1009d5a0 f   TkdicDlg.obj
 0001:0009cb40       ?DeleteTklnkjour@CTkdicDlg@@IAEHH@Z 1009db40 f   TkdicDlg.obj
 0001:0009cda0       ?OnBnIns@CTkdicDlg@@IAEXXZ 1009dda0 f   TkdicDlg.obj
 0001:0009cf70       ?OnNMReportEditkeydownREPORT_TKDIC@CTkdicDlg@@QAEXPAUtagNMHDR@@PAJ@Z 1009df70 f   TkdicDlg.obj
 0001:0009dd40       ?SetNexControl@CTkdicDlg@@QAEXHHH@Z 1009ed40 f   TkdicDlg.obj
 0001:0009df80       ?SetPrevControl@CTkdicDlg@@QAEXHHH@Z 1009ef80 f   TkdicDlg.obj
 0001:0009e0c0       ?map_struct_clear@CTkdicDlg@@QAEXPAU_CTKDATA_REC@1@@Z 1009f0c0 f   TkdicDlg.obj
 0001:0009e150       ?OnNMReportEditimeendREPORT_TKDIC@CTkdicDlg@@QAEXPAUtagNMHDR@@PAJ@Z 1009f150 f   TkdicDlg.obj
 0001:0009e3b0       ?UpdateTkrecEx@CTkdicDlg@@AAEHPAVCTKREC@@@Z 1009f3b0 f   TkdicDlg.obj
 0001:0009e6e0       ?kspTrim@CTkdicDlg@@AAEXAAV?$CStringT@DV?$StrTraitMFC_DLL@DV?$ChTraitsCRT@D@ATL@@@@@ATL@@@Z 1009f6e0 f   TkdicDlg.obj
 0001:0009e870       ?OnMenzeiMessage@CTkdicDlg@@IAEJIJ@Z 1009f870 f   TkdicDlg.obj
 0001:0009eae0       ?OnKubunMessage@CTkdicDlg@@IAEJIJ@Z 1009fae0 f   TkdicDlg.obj
 0001:0009ef40       ?SkbnMsg@CTkdicDlg@@AAEHAAV?$CStringT@DV?$StrTraitMFC_DLL@DV?$ChTraitsCRT@D@ATL@@@@@ATL@@EHH@Z 1009ff40 f   TkdicDlg.obj
 0001:0009f1f0       ?GetInvnoString@CTkdicDlg@@AAEHPADH@Z 100a01f0 f   TkdicDlg.obj
 0001:0009f1f0       ?GetInvnoString@CTkyVer2Dlg@@IAEHPADH@Z 100a01f0 f   TkyVer2Dlg.obj
 0001:0009f290       ?TerminationJob@CTkdicDlg@@AAEHHH@Z 100a0290 f   TkdicDlg.obj
 0001:0009f380       ?TerminationIcsdbedt8Invno@CTkdicDlg@@AAEXJJJ@Z 100a0380 f   TkdicDlg.obj
 0001:0009f800       ?OnKillFocusIcsdbedt8Invno@CTkdicDlg@@AAEXJ@Z 100a0800 f   TkdicDlg.obj
 0001:0009f830       ?CheckInvoiceNo@CTkdicDlg@@QAEHXZ 100a0830 f   TkdicDlg.obj
 0001:0009f9c0       ?OnInvnoMessage@CTkdicDlg@@AAEJIJ@Z 100a09c0 f   TkdicDlg.obj
 0001:0009fa30       ?_Erase@?$_Tree@V?$_Tmap_traits@JU_CTKDATA_REC@CTkdicDlg@@U?$less@J@std@@V?$allocator@U?$pair@$$CBJU_CTKDATA_REC@CTkdicDlg@@@std@@@4@$0A@@std@@@std@@IAEXPAU?$_Tree_node@U?$pair@$$CBJU_CTKDATA_REC@CTkdicDlg@@@std@@PAX@2@@Z 100a0a30 f i TkdicDlg.obj
 0001:0009fa80       ?_Buyheadnode@?$_Tree_comp_alloc@V?$_Tmap_traits@JU_CTKDATA_REC@CTkdicDlg@@U?$less@J@std@@V?$allocator@U?$pair@$$CBJU_CTKDATA_REC@CTkdicDlg@@@std@@@4@$0A@@std@@@std@@QAEPAU?$_Tree_node@U?$pair@$$CBJU_CTKDATA_REC@CTkdicDlg@@@std@@PAX@2@XZ 100a0a80 f i TkdicDlg.obj
 0001:0009faa0       ??$?0AAJAAU_CTKDATA_REC@CTkdicDlg@@$0A@@?$pair@JU_CTKDATA_REC@CTkdicDlg@@@std@@QAE@AAJAAU_CTKDATA_REC@CTkdicDlg@@@Z 100a0aa0 f i TkdicDlg.obj
 0001:0009fbc0       ??$_Buynode@U?$pair@JU_CTKDATA_REC@CTkdicDlg@@@std@@@?$_Tree_comp_alloc@V?$_Tmap_traits@JU_CTKDATA_REC@CTkdicDlg@@U?$less@J@std@@V?$allocator@U?$pair@$$CBJU_CTKDATA_REC@CTkdicDlg@@@std@@@4@$0A@@std@@@std@@QAEPAU?$_Tree_node@U?$pair@$$CBJU_CTKDATA_REC@CTkdicDlg@@@std@@PAX@1@$$QAU?$pair@JU_CTKDATA_REC@CTkdicDlg@@@1@@Z 100a0bc0 f i TkdicDlg.obj
 0001:0009fd00       ??$_Insert_nohint@AAU?$pair@$$CBJU_CTKDATA_REC@CTkdicDlg@@@std@@PAU?$_Tree_node@U?$pair@$$CBJU_CTKDATA_REC@CTkdicDlg@@@std@@PAX@2@@?$_Tree@V?$_Tmap_traits@JU_CTKDATA_REC@CTkdicDlg@@U?$less@J@std@@V?$allocator@U?$pair@$$CBJU_CTKDATA_REC@CTkdicDlg@@@std@@@4@$0A@@std@@@std@@IAE?AU?$pair@V?$_Tree_iterator@V?$_Tree_val@U?$_Tree_simple_types@U?$pair@$$CBJU_CTKDATA_REC@CTkdicDlg@@@std@@@std@@@std@@@std@@_N@1@_NAAU?$pair@$$CBJU_CTKDATA_REC@CTkdicDlg@@@1@PAU?$_Tree_node@U?$pair@$$CBJU_CTKDATA_REC@CTkdicDlg@@@std@@PAX@1@@Z 100a0d00 f i TkdicDlg.obj
 0001:0009fe70       ?_Freenode0@?$_Tree_comp_alloc@V?$_Tmap_traits@JU_CTKDATA_REC@CTkdicDlg@@U?$less@J@std@@V?$allocator@U?$pair@$$CBJU_CTKDATA_REC@CTkdicDlg@@@std@@@4@$0A@@std@@@std@@QAEXPAU?$_Tree_node@U?$pair@$$CBJU_CTKDATA_REC@CTkdicDlg@@@std@@PAX@2@@Z 100a0e70 f i TkdicDlg.obj
 0001:0009fe90       ?_Buynode0@?$_Tree_comp_alloc@V?$_Tmap_traits@JU_CTKDATA_REC@CTkdicDlg@@U?$less@J@std@@V?$allocator@U?$pair@$$CBJU_CTKDATA_REC@CTkdicDlg@@@std@@@4@$0A@@std@@@std@@QAEPAU?$_Tree_node@U?$pair@$$CBJU_CTKDATA_REC@CTkdicDlg@@@std@@PAX@2@XZ 100a0e90 f i TkdicDlg.obj
 0001:0009feb0       ?_Destroy_if_node@?$_Tree@V?$_Tmap_traits@JU_CTKDATA_REC@CTkdicDlg@@U?$less@J@std@@V?$allocator@U?$pair@$$CBJU_CTKDATA_REC@CTkdicDlg@@@std@@@4@$0A@@std@@@std@@IAEXPAU?$_Tree_node@U?$pair@$$CBJU_CTKDATA_REC@CTkdicDlg@@@std@@PAX@2@@Z 100a0eb0 f i TkdicDlg.obj
 0001:0009fed0       ??$_Insert_at@AAU?$pair@$$CBJU_CTKDATA_REC@CTkdicDlg@@@std@@PAU?$_Tree_node@U?$pair@$$CBJU_CTKDATA_REC@CTkdicDlg@@@std@@PAX@2@@?$_Tree@V?$_Tmap_traits@JU_CTKDATA_REC@CTkdicDlg@@U?$less@J@std@@V?$allocator@U?$pair@$$CBJU_CTKDATA_REC@CTkdicDlg@@@std@@@4@$0A@@std@@@std@@IAE?AV?$_Tree_iterator@V?$_Tree_val@U?$_Tree_simple_types@U?$pair@$$CBJU_CTKDATA_REC@CTkdicDlg@@@std@@@std@@@std@@@1@_NPAU?$_Tree_node@U?$pair@$$CBJU_CTKDATA_REC@CTkdicDlg@@@std@@PAX@1@AAU?$pair@$$CBJU_CTKDATA_REC@CTkdicDlg@@@1@1@Z 100a0ed0 f i TkdicDlg.obj
 0001:000a00f2       ??_ECTkdicDlg@@WKI@AEPAXI@Z 100a10f2 f i TkdicDlg.obj
 0001:000a0100       ?scnt_bytecnt@@YAHHPAD@Z   100a1100 f   TkEdit.obj
 0001:000a0170       ?bytecnt_scnt@@YAHHPAD@Z   100a1170 f   TkEdit.obj
 0001:000a01e0       ??0CTkEdit@@QAE@XZ         100a11e0 f   TkEdit.obj
 0001:000a02b0       ??_GCTkEdit@@UAEPAXI@Z     100a12b0 f i TkEdit.obj
 0001:000a02b0       ??_ECTkEdit@@UAEPAXI@Z     100a12b0 f i * CIL library *:* CIL module *
 0001:000a0300       ??1CTkEdit@@UAE@XZ         100a1300 f   TkEdit.obj
 0001:000a0310       ?OnInitial@CTkEdit@@QAEHHPADHHH@Z 100a1310 f   TkEdit.obj
 0001:000a03b0       ?InitCtrl@CTkEdit@@QAEHPAVCWnd@@PAII@Z 100a13b0 f   TkEdit.obj
 0001:000a04e0       ?LeftFunc@CTkEdit@@QAEXXZ  100a14e0 f   TkEdit.obj
 0001:000a05d0       ?RightFunc@CTkEdit@@QAEXXZ 100a15d0 f   TkEdit.obj
 0001:000a0680       ?AddFunc@CTkEdit@@QAEXXZ   100a1680 f   TkEdit.obj
 0001:000a0730       ?SubFunc@CTkEdit@@QAEXXZ   100a1730 f   TkEdit.obj
 0001:000a07c0       ?HomeFunc@CTkEdit@@QAEXXZ  100a17c0 f   TkEdit.obj
 0001:000a0860       ?indicator@CTkEdit@@IAEXXZ 100a1860 f   TkEdit.obj
 0001:000a0970       ?GetMessageMap@CTkEdit@@MBEPBUAFX_MSGMAP@@XZ 100a1970 f   TkEdit.obj
 0001:000a0980       ?OnKillFocus@CTkEdit@@IAEXPAVCWnd@@@Z 100a1980 f   TkEdit.obj
 0001:000a09d0       ?OnSetFocus@CTkEdit@@IAEXPAVCWnd@@@Z 100a19d0 f   TkEdit.obj
 0001:000a0a40       ?OnKeyDown@CTkEdit@@IAEXIII@Z 100a1a40 f   TkEdit.obj
 0001:000a0c50       ?OnKeyUp@CTkEdit@@IAEXIII@Z 100a1c50 f   TkEdit.obj
 0001:000a0e20       ?OnLButtonUp@CTkEdit@@IAEXIVCPoint@@@Z 100a1e20 f   TkEdit.obj
 0001:000a0f60       ?get_dictky@CTkEdit@@QAEXPADH@Z 100a1f60 f   TkEdit.obj
 0001:000a1020       ?PreTranslateMessage@CTkEdit@@UAEHPAUtagMSG@@@Z 100a2020 f   TkEdit.obj
 0001:000a10a0       ?GetSel@CTkEdit@@IAEXAAH0@Z 100a20a0 f   TkEdit.obj
 0001:000a1110       ?SetSel@CTkEdit@@IAEXHHH@Z 100a2110 f   TkEdit.obj
 0001:000a1170       ??_ECEdit@@UAEPAXI@Z       100a2170 f i * CIL library *:* CIL module *
 0001:000a1170       ??_GCEdit@@UAEPAXI@Z       100a2170 f i TkEdit.obj
 0001:000a11b0       ?num_chk@@YAHPADH@Z        100a21b0 f   TkkmkDlg.obj
 0001:000a1240       ??_ECTkkmkDlg@@UAEPAXI@Z   100a2240 f i * CIL library *:* CIL module *
 0001:000a1240       ??_GCTkkmkDlg@@UAEPAXI@Z   100a2240 f i TkkmkDlg.obj
 0001:000a12e0       ?DoDataExchange@CTkkmkDlg@@MAEXPAVCDataExchange@@@Z 100a22e0 f   TkkmkDlg.obj
 0001:000a1360       ?WndShow@CTkkmkDlg@@UAEXH@Z 100a2360 f   TkkmkDlg.obj
 0001:000a1400       ?FocusMove@CTkkmkDlg@@UAEXH@Z 100a2400 f   TkkmkDlg.obj
 0001:000a14a0       ?SetFirstPosition@CTkkmkDlg@@UAEXXZ 100a24a0 f   TkkmkDlg.obj
 0001:000a1500       ?InitWork@CTkkmkDlg@@UAEXNN@Z 100a2500 f   TkkmkDlg.obj
 0001:000a19a0       ?IsEnableToolBar@CTkkmkDlg@@UAEHH@Z 100a29a0 f   TkkmkDlg.obj
 0001:000a1a00       ?TorokDisp@CTkkmkDlg@@IAEXXZ 100a2a00 f   TkkmkDlg.obj
 0001:000a1a90       ?GetMessageMap@CTkkmkDlg@@MBEPBUAFX_MSGMAP@@XZ 100a2a90 f   TkkmkDlg.obj
 0001:000a1aa0       ?OnSize@CTkkmkDlg@@IAEXIHH@Z 100a2aa0 f   TkkmkDlg.obj
 0001:000a1ab0       ?OnInitDialog@CTkkmkDlg@@MAEHXZ 100a2ab0 f   TkkmkDlg.obj
 0001:000a1bf0       ?MakeTkrenFrm@CTkkmkDlg@@IAEXXZ 100a2bf0 f   TkkmkDlg.obj
 0001:000a1dd0       ?SetRensoList@CTkkmkDlg@@IAEXHH@Z 100a2dd0 f   TkkmkDlg.obj
 0001:000a2260       ?AddEmptyData@CTkkmkDlg@@IAEXXZ 100a3260 f   TkkmkDlg.obj
 0001:000a2390       ?KamokuRenPage@CTkkmkDlg@@IAEHH@Z 100a3390 f   TkkmkDlg.obj
 0001:000a24a0       ?OnRadioDebt@CTkkmkDlg@@IAEXXZ 100a34a0 f   TkkmkDlg.obj
 0001:000a24d0       ?OnRadioCred@CTkkmkDlg@@IAEXXZ 100a34d0 f   TkkmkDlg.obj
 0001:000a2500       ?GetEventSinkMap@CTkkmkDlg@@MBEPBUAFX_EVENTSINKMAP@@XZ 100a3500 f   TkkmkDlg.obj
 0001:000a2510       ?OnEditONIcslistinpctrl1@CTkkmkDlg@@IAEXFF@Z 100a3510 f   TkkmkDlg.obj
 0001:000a25c0       ?OnKeyInIcslistinpctrl1@CTkkmkDlg@@IAEXFFF@Z 100a35c0 f   TkkmkDlg.obj
 0001:000a2600       ?OnTerminationIcslistinpctrl1@CTkkmkDlg@@IAEXFFFFPAUIUnknown@@@Z 100a3600 f   TkkmkDlg.obj
 0001:000a2b30       ?DoubleRegChk@CTkkmkDlg@@IAEHHH@Z 100a3b30 f   TkkmkDlg.obj
 0001:000a2bf0       ?SetTkrenListData@CTkkmkDlg@@IAEXHHV?$CStringT@DV?$StrTraitMFC_DLL@DV?$ChTraitsCRT@D@ATL@@@@@ATL@@@Z 100a3bf0 f   TkkmkDlg.obj
 0001:000a2d70       ?SetTkrenRecord@CTkkmkDlg@@IAEXH@Z 100a3d70 f   TkkmkDlg.obj
 0001:000a2fb0       ?OnUser1_Msg@CTkkmkDlg@@IAEJIJ@Z 100a3fb0 f   TkkmkDlg.obj
 0001:000a3390       ?OnListInsDel@CTkkmkDlg@@IAEJIJ@Z 100a4390 f   TkkmkDlg.obj
 0001:000a33e0       ?AddTekiyoJob@CTkkmkDlg@@UAEXJ@Z 100a43e0 f   TkkmkDlg.obj
 0001:000a3510       ?AddTekiyoFunc@CTkkmkDlg@@IAEHPADHH@Z 100a4510 f   TkkmkDlg.obj
 0001:000a35d0       ?PreTranslateMessage@CTkkmkDlg@@UAEHPAUtagMSG@@@Z 100a45d0 f   TkkmkDlg.obj
 0001:000a3760       ?OnBnClickedButtonChg@CTkkmkDlg@@QAEXXZ 100a4760 f   TkkmkDlg.obj
 0001:000a3b50       ?OnDeltaposSpin1@CTkkmkDlg@@QAEXPAUtagNMHDR@@PAJ@Z 100a4b50 f   TkkmkDlg.obj
 0001:000a3c90       ?KillFocusIcsdbedtpage@CTkkmkDlg@@QAEXJ@Z 100a4c90 f   TkkmkDlg.obj
 0001:000a3ca0       ?TerminationIcsdbedtpage@CTkkmkDlg@@QAEXJJJ@Z 100a4ca0 f   TkkmkDlg.obj
 0001:000a3cb0       ?TermEditRenPage@CTkkmkDlg@@IAEJJJJ@Z 100a4cb0 f   TkkmkDlg.obj
 0001:000a3e70       ?OnEnKillfocusEdit@CTkkmkDlg@@QAEXXZ 100a4e70 f   TkkmkDlg.obj
 0001:000a3e80       ?TkrenListPosMark@CTkkmkDlg@@IAEXHH@Z 100a4e80 f   TkkmkDlg.obj
 0001:000a4020       ?RTRECcount@CTkkmkDlg@@IAEHXZ 100a5020 f   TkkmkDlg.obj
 0001:000a4212       ??_ECTkkmkDlg@@WKI@AEPAXI@Z 100a5212 f i TkkmkDlg.obj
 0001:000a4220       ??_GCSpinButtonCtrl@@UAEPAXI@Z 100a5220 f i TkkmkDlg.obj
 0001:000a4220       ??_ECSpinButtonCtrl@@UAEPAXI@Z 100a5220 f i * CIL library *:* CIL module *
 0001:000a4260       ??0CTkregDlg@@QAE@PAVCWnd@@@Z 100a5260 f   TkregDlg.obj
 0001:000a43c0       ??_GCTkregDlg@@UAEPAXI@Z   100a53c0 f i TkregDlg.obj
 0001:000a43c0       ??_ECTkregDlg@@UAEPAXI@Z   100a53c0 f i * CIL library *:* CIL module *
 0001:000a4440       ??_E?$CTypedPtrArray@VCObArray@@PAVCBaseDlg@@@@UAEPAXI@Z 100a5440 f i * CIL library *:* CIL module *
 0001:000a4440       ??_G?$CTypedPtrArray@VCObArray@@PAVCBaseDlg@@@@UAEPAXI@Z 100a5440 f i TkregDlg.obj
 0001:000a4480       ?DoDataExchange@CTkregDlg@@MAEXPAVCDataExchange@@@Z 100a5480 f   TkregDlg.obj
 0001:000a44b0       ?GetMessageMap@CTkregDlg@@MBEPBUAFX_MSGMAP@@XZ 100a54b0 f   TkregDlg.obj
 0001:000a44c0       ?OnSelchangeTab1@CTkregDlg@@IAEXPAUtagNMHDR@@PAJ@Z 100a54c0 f   TkregDlg.obj
 0001:000a4570       ?OnInitDialog@CTkregDlg@@MAEHXZ 100a5570 f   TkregDlg.obj
 0001:000a4cb0       ?OnMyTabChange@CTkregDlg@@IAEJIJ@Z 100a5cb0 f   TkregDlg.obj
 0001:000a4cf0       ?OnShowWindow@CTkregDlg@@IAEXHI@Z 100a5cf0 f   TkregDlg.obj
 0001:000a4d50       ?OnTekiAddJob@CTkregDlg@@IAEJIJ@Z 100a5d50 f   TkregDlg.obj
 0001:000a4db0       ?OnCommandTlbar@CTkregDlg@@IAEXI@Z 100a5db0 f   TkregDlg.obj
 0001:000a4e20       ?PreTranslateMessage@CTkregDlg@@UAEHPAUtagMSG@@@Z 100a5e20 f   TkregDlg.obj
 0001:000a4fe0       ?OnBnClickedBtnF8@CTkregDlg@@QAEXXZ 100a5fe0 f   TkregDlg.obj
 0001:000a5050       ?OnBnClickedBtnF9@CTkregDlg@@QAEXXZ 100a6050 f   TkregDlg.obj
 0001:000a5090       ?OnBnClickedBtnEnd@CTkregDlg@@QAEXXZ 100a6090 f   TkregDlg.obj
 0001:000a50c0       ?OnCancel@CTkregDlg@@MAEXXZ 100a60c0 f   TkregDlg.obj
 0001:000a50e0       ?GetDBupdateSgn@CTkregDlg@@IAEXXZ 100a60e0 f   TkregDlg.obj
 0001:000a5150       ?OnBnClickedBtnF3@CTkregDlg@@QAEXXZ 100a6150 f   TkregDlg.obj
 0001:000a5320       ?strec_searchjob@CTkregDlg@@IAEXXZ 100a6320 f   TkregDlg.obj
 0001:000a542c       ??_ECTkregDlg@@WKI@AEPAXI@Z 100a642c f i TkregDlg.obj
 0001:000a5440       ??0CTksrchDlg@@QAE@PAVCDBZmSub@@AAVCPoint@@HPAVCWnd@@@Z 100a6440 f   TksrchDlg.obj
 0001:000a5520       ??_GCTksrchDlg@@UAEPAXI@Z  100a6520 f i TksrchDlg.obj
 0001:000a5520       ??_ECTksrchDlg@@UAEPAXI@Z  100a6520 f i * CIL library *:* CIL module *
 0001:000a5580       ?DoDataExchange@CTksrchDlg@@MAEXPAVCDataExchange@@@Z 100a6580 f   TksrchDlg.obj
 0001:000a55c0       ?GetMessageMap@CTksrchDlg@@MBEPBUAFX_MSGMAP@@XZ 100a65c0 f   TksrchDlg.obj
 0001:000a5620       ?OnInitDialog@CTksrchDlg@@MAEHXZ 100a6620 f   TksrchDlg.obj
 0001:000a56e0       ?OnShowWindow@CTksrchDlg@@IAEXHI@Z 100a66e0 f   TksrchDlg.obj
 0001:000a5720       ?OnUser_1@CTksrchDlg@@IAEJIJ@Z 100a6720 f   TksrchDlg.obj
 0001:000a57b0       ?GetEventSinkMap@CTksrchDlg@@MBEPBUAFX_EVENTSINKMAP@@XZ 100a67b0 f   TksrchDlg.obj
 0001:000a57c0       ?OnTerminationIcsdbedtkana@CTksrchDlg@@IAEXJJJ@Z 100a67c0 f   TksrchDlg.obj
 0001:000a58a0       ?KanaTerminationSub@CTksrchDlg@@IAEXAAV?$CStringT@DV?$StrTraitMFC_DLL@DV?$ChTraitsCRT@D@ATL@@@@@ATL@@@Z 100a68a0 f   TksrchDlg.obj
 0001:000a5ad0       ?OnOK@CTksrchDlg@@MAEXXZ   100a6ad0 f   TksrchDlg.obj
 0001:000a5b20       ?PreTranslateMessage@CTksrchDlg@@UAEHPAUtagMSG@@@Z 100a6b20 f   TksrchDlg.obj
 0001:000a5bb0       ?OnLbnDblclkList1@CTksrchDlg@@QAEXXZ 100a6bb0 f   TksrchDlg.obj
 0001:000a5bb8       ??_ECTksrchDlg@@WKI@AEPAXI@Z 100a6bb8 f i TksrchDlg.obj
 0001:000a5bd0       ?init_swkdata@@YAXPAU_SWKCOD_DATA@@@Z 100a6bd0 f   TkswkDlg.obj
 0001:000a5c00       ?filter_swkdata@@YAXPAV?$CStringT@DV?$StrTraitMFC_DLL@DV?$ChTraitsCRT@D@ATL@@@@@ATL@@PAU_SWKCOD_DATA@@@Z 100a6c00 f   TkswkDlg.obj
 0001:000a5cc0       ??_ECTkswkDlg@@UAEPAXI@Z   100a6cc0 f i * CIL library *:* CIL module *
 0001:000a5cc0       ??_GCTkswkDlg@@UAEPAXI@Z   100a6cc0 f i TkswkDlg.obj
 0001:000a5d50       ?DoDataExchange@CTkswkDlg@@MAEXPAVCDataExchange@@@Z 100a6d50 f   TkswkDlg.obj
 0001:000a5db0       ?WndShow@CTkswkDlg@@UAEXH@Z 100a6db0 f   TkswkDlg.obj
 0001:000a5ef0       ?SWKselDisp@CTkswkDlg@@IAEXH@Z 100a6ef0 f   TkswkDlg.obj
 0001:000a6660       ?WndShow_Add@CTkswkDlg@@UAEXH@Z 100a7660 f   TkswkDlg.obj
 0001:000a66c0       ?FocusMove@CTkswkDlg@@UAEXH@Z 100a76c0 f   TkswkDlg.obj
 0001:000a67d0       ?SetFirstPosition@CTkswkDlg@@UAEXXZ 100a77d0 f   TkswkDlg.obj
 0001:000a6890       ?InitWork@CTkswkDlg@@UAEXNN@Z 100a7890 f   TkswkDlg.obj
 0001:000a69c0       ?IsEnableToolBar@CTkswkDlg@@UAEHH@Z 100a79c0 f   TkswkDlg.obj
 0001:000a6a20       ?GetMessageMap@CTkswkDlg@@MBEPBUAFX_MSGMAP@@XZ 100a7a20 f   TkswkDlg.obj
 0001:000a6a30       ?OnInitDialog@CTkswkDlg@@MAEHXZ 100a7a30 f   TkswkDlg.obj
 0001:000a6c10       ?MakeSiwakeFrm@CTkswkDlg@@IAEXXZ 100a7c10 f   TkswkDlg.obj
 0001:000a6e10       ?MakeTkrenFrm@CTkswkDlg@@IAEXXZ 100a7e10 f   TkswkDlg.obj
 0001:000a6ff0       ?TorokDisp@CTkswkDlg@@IAEXXZ 100a7ff0 f   TkswkDlg.obj
 0001:000a7080       ?BothDispSwtkyo@CTkswkDlg@@IAEHAAV?$CStringT@DV?$StrTraitMFC_DLL@DV?$ChTraitsCRT@D@ATL@@@@@ATL@@0@Z 100a8080 f   TkswkDlg.obj
 0001:000a7110       ?SiwakeInpSet@CTkswkDlg@@IAEHH@Z 100a8110 f   TkswkDlg.obj
 0001:000a72f0       ?SwkInpAllSetSub@CTkswkDlg@@IAEXXZ 100a82f0 f   TkswkDlg.obj
 0001:000a76d0       ?IsEnableAddNewSwkLine@CTkswkDlg@@IAEHXZ 100a86d0 f   TkswkDlg.obj
 0001:000a77b0       ?SetNewSwkLine@CTkswkDlg@@IAEXXZ 100a87b0 f   TkswkDlg.obj
 0001:000a7920       ?TkyoInpSet@CTkswkDlg@@IAEHH@Z 100a8920 f   TkswkDlg.obj
 0001:000a7c90       ?SetNewTkyoInput@CTkswkDlg@@IAEXH@Z 100a8c90 f   TkswkDlg.obj
 0001:000a7dc0       ?SetNowLineBkColor@CTkswkDlg@@IAEXHH@Z 100a8dc0 f   TkswkDlg.obj
 0001:000a8130       ??0_SWKCOD_DATA@@QAE@ABU0@@Z 100a9130 f i TkswkDlg.obj
 0001:000a81a0       ?SetTkyListData@CTkswkDlg@@IAEXHHV?$CStringT@DV?$StrTraitMFC_DLL@DV?$ChTraitsCRT@D@ATL@@@@@ATL@@@Z 100a91a0 f   TkswkDlg.obj
 0001:000a8480       ?ChangeSwtkData@CTkswkDlg@@IAEHHAAU_SWKCOD_DATA@@@Z 100a9480 f   TkswkDlg.obj
 0001:000a8a30       ?DeleteSwtkData@CTkswkDlg@@IAEXH@Z 100a9a30 f   TkswkDlg.obj
 0001:000a8f60       ?DoubleRegChk@CTkswkDlg@@IAEHHPAU_SWKCOD_DATA@@@Z 100a9f60 f   TkswkDlg.obj
 0001:000a9030       ?DoubleReg_SwkChk@CTkswkDlg@@IAEHU_SWKCOD_DATA@@H@Z 100aa030 f   TkswkDlg.obj
 0001:000a9190       ?TkrenListPosMark@CTkswkDlg@@IAEXH@Z 100aa190 f   TkswkDlg.obj
 0001:000a9320       ?OnUser1_Msg@CTkswkDlg@@IAEJIJ@Z 100aa320 f   TkswkDlg.obj
 0001:000a96b0       ?OnRetroFocus@CTkswkDlg@@IAEJIJ@Z 100aa6b0 f   TkswkDlg.obj
 0001:000a9780       ?GetEventSinkMap@CTkswkDlg@@MBEPBUAFX_EVENTSINKMAP@@XZ 100aa780 f   TkswkDlg.obj
 0001:000a9790       ?FocusedIcslinp8Swk@CTkswkDlg@@QAEXXZ 100aa790 f   TkswkDlg.obj
 0001:000a9820       ?EditONIcslinp8Swk@CTkswkDlg@@QAEXFF@Z 100aa820 f   TkswkDlg.obj
 0001:000a9a00       ?HomeButtonCondition@CTkswkDlg@@IAEXXZ 100aaa00 f   TkswkDlg.obj
 0001:000a9a40       ?TerminationIcslinp8Swk@CTkswkDlg@@QAEXFFFFPAUIUnknown@@@Z 100aaa40 f   TkswkDlg.obj
 0001:000aa850       ?KeyInIcslinp8Swk@CTkswkDlg@@QAEXFFF@Z 100ab850 f   TkswkDlg.obj
 0001:000aa950       ?SelChangeIcslinp8Swk@CTkswkDlg@@QAEXF@Z 100ab950 f   TkswkDlg.obj
 0001:000aa9d0       ?SetFocusIcsdbedtctrl1@CTkswkDlg@@QAEXXZ 100ab9d0 f   TkswkDlg.obj
 0001:000aab00       ?KillFocusIcsdbedtctrl1@CTkswkDlg@@QAEXJ@Z 100abb00 f   TkswkDlg.obj
 0001:000aab30       ?ImeEndCompositionIcsdbedtctrl1@CTkswkDlg@@QAEXFPBD0@Z 100abb30 f   TkswkDlg.obj
 0001:000ab040       ?TerminationIcsdbedtctrl1@CTkswkDlg@@QAEXJJJ@Z 100ac040 f   TkswkDlg.obj
 0001:000ab730       ?FocusedIcslinp8Tky@CTkswkDlg@@QAEXXZ 100ac730 f   TkswkDlg.obj
 0001:000ab7d0       ?EditONIcslinp8Tky@CTkswkDlg@@QAEXFF@Z 100ac7d0 f   TkswkDlg.obj
 0001:000ab890       ?EditOFFIcslinp8Tky@CTkswkDlg@@QAEXF@Z 100ac890 f   TkswkDlg.obj
 0001:000ab8e0       ?TerminationIcslinp8Tky@CTkswkDlg@@QAEXFFFFPAUIUnknown@@@Z 100ac8e0 f   TkswkDlg.obj
 0001:000abde0       ?KeyInIcslinp8Tky@CTkswkDlg@@QAEXFFF@Z 100acde0 f   TkswkDlg.obj
 0001:000abe20       ?GetSwkRegMsg@CTkswkDlg@@IAEXAAV?$CStringT@DV?$StrTraitMFC_DLL@DV?$ChTraitsCRT@D@ATL@@@@@ATL@@U_SWKCOD_DATA@@@Z 100ace20 f   TkswkDlg.obj
 0001:000abfc0       ?OnButtonCopy@CTkswkDlg@@IAEXXZ 100acfc0 f   TkswkDlg.obj
 0001:000ac050       ?TekiCopySub@CTkswkDlg@@IAEXJ@Z 100ad050 f   TkswkDlg.obj
 0001:000ac2d0       ?TkyCopyDB@CTkswkDlg@@IAEHHHH@Z 100ad2d0 f   TkswkDlg.obj
 0001:000ac600       ?AddTekiyoJob@CTkswkDlg@@UAEXJ@Z 100ad600 f   TkswkDlg.obj
 0001:000acc40       ?TkyoAddSub@CTkswkDlg@@IAEXPAU_SWKCOD_DATA@@H@Z 100adc40 f   TkswkDlg.obj
 0001:000ace10       ?OnListInsDel@CTkswkDlg@@IAEJIJ@Z 100ade10 f   TkswkDlg.obj
 0001:000ad170       ?Add@?$CArray@U_SWKCOD_DATA@@AAU1@@@QAEHAAU_SWKCOD_DATA@@@Z 100ae170 f i TkswkDlg.obj
 0001:000ad1d0       ??1?$CArray@U_SWKCOD_DATA@@AAU1@@@UAE@XZ 100ae1d0 f i TkswkDlg.obj
 0001:000ad230       ?Serialize@?$CArray@U_SWKCOD_DATA@@AAU1@@@UAEXAAVCArchive@@@Z 100ae230 f i TkswkDlg.obj
 0001:000ad300       ??_E?$CArray@U_SWKCOD_DATA@@AAU1@@@UAEPAXI@Z 100ae300 f i * CIL library *:* CIL module *
 0001:000ad300       ??_G?$CArray@U_SWKCOD_DATA@@AAU1@@@UAEPAXI@Z 100ae300 f i TkswkDlg.obj
 0001:000ad340       ?SetSize@?$CArray@U_SWKCOD_DATA@@AAU1@@@QAEXHH@Z 100ae340 f i TkswkDlg.obj
 0001:000ad5ce       ??_ECTkswkDlg@@WKI@AEPAXI@Z 100ae5ce f i TkswkDlg.obj
 0001:000ad5e0       ?GetRuntimeClass@CTkyEdaDlg@@UBEPAUCRuntimeClass@@XZ 100ae5e0 f   TkyEdaDlg.obj
 0001:000ad5f0       ??0CTkyEdaDlg@@QAE@PAVCWnd@@@Z 100ae5f0 f   TkyEdaDlg.obj
 0001:000ad6a0       ??_ECTkyEdaDlg@@UAEPAXI@Z  100ae6a0 f i * CIL library *:* CIL module *
 0001:000ad6a0       ??_GCTkyEdaDlg@@UAEPAXI@Z  100ae6a0 f i TkyEdaDlg.obj
 0001:000ad720       ??1CTkyEdaDlg@@UAE@XZ      100ae720 f   TkyEdaDlg.obj
 0001:000ad770       ?DoDataExchange@CTkyEdaDlg@@MAEXPAVCDataExchange@@@Z 100ae770 f   TkyEdaDlg.obj
 0001:000ad7a0       ?GetMessageMap@CTkyEdaDlg@@MBEPBUAFX_MSGMAP@@XZ 100ae7a0 f   TkyEdaDlg.obj
 0001:000ad800       ?OnInitDialog@CTkyEdaDlg@@UAEHXZ 100ae800 f   TkyEdaDlg.obj
 0001:000ada60       ?MakeEdaListInp@CTkyEdaDlg@@QAEXXZ 100aea60 f   TkyEdaDlg.obj
 0001:000addb0       ?MakeEdabanLine@CTkyEdaDlg@@QAEXPAVCEZREC@@@Z 100aedb0 f   TkyEdaDlg.obj
 0001:000ae1d0       ?InitEdabanCode@CTkyEdaDlg@@QAEXXZ 100af1d0 f   TkyEdaDlg.obj
 0001:000ae570       ?GetEventSinkMap@CTkyEdaDlg@@MBEPBUAFX_EVENTSINKMAP@@XZ 100af570 f   TkyEdaDlg.obj
 0001:000ae580       ?TerminationIcsdbedt8ctrl1@CTkyEdaDlg@@IAEXJJJ@Z 100af580 f   TkyEdaDlg.obj
 0001:000ae700       ?KillFocusIcsdbedt8ctrl1@CTkyEdaDlg@@QAEXJ@Z 100af700 f   TkyEdaDlg.obj
 0001:000ae710       ?TerminationIcsdbedt8ctrl2@CTkyEdaDlg@@IAEXJJJ@Z 100af710 f   TkyEdaDlg.obj
 0001:000ae850       ?PreTranslateMessage@CTkyEdaDlg@@MAEHPAUtagMSG@@@Z 100af850 f   TkyEdaDlg.obj
 0001:000ae880       ?OnOK@CTkyEdaDlg@@MAEXXZ   100af880 f   TkyEdaDlg.obj
 0001:000ae990       ?NewEdabanSearch@@YAHPAVCDBZmSub@@PBDHH@Z 100af990 f   TkyEdaDlg.obj
 0001:000aea30       ?KeyInIcslinp8ctrl1@CTkyEdaDlg@@QAEXFFF@Z 100afa30 f   TkyEdaDlg.obj
 0001:000aeac0       ?LButtonDblClickIcslinp8ctrl1@CTkyEdaDlg@@QAEXF@Z 100afac0 f   TkyEdaDlg.obj
 0001:000aec70       ?EdaInpCheck@CTkyEdaDlg@@QAEXXZ 100afc70 f   TkyEdaDlg.obj
 0001:000aee4c       ??_ECTkyEdaDlg@@WKI@AEPAXI@Z 100afe4c f i TkyEdaDlg.obj
 0001:000aee60       ?GetRuntimeClass@CTkySel@@UBEPAUCRuntimeClass@@XZ 100afe60 f   TkySel.obj
 0001:000aee70       ??_GCTkySel@@UAEPAXI@Z     100afe70 f i TkySel.obj
 0001:000aee70       ??_ECTkySel@@UAEPAXI@Z     100afe70 f i * CIL library *:* CIL module *
 0001:000aeeb0       ??1CTkySel@@UAE@XZ         100afeb0 f   TkySel.obj
 0001:000aef20       ?DoDataExchange@CTkySel@@MAEXPAVCDataExchange@@@Z 100aff20 f   TkySel.obj
 0001:000aefa0       ?GetMessageMap@CTkySel@@MBEPBUAFX_MSGMAP@@XZ 100affa0 f   TkySel.obj
 0001:000af000       ?OnInitDialog@CTkySel@@UAEHXZ 100b0000 f   TkySel.obj
 0001:000af1a0       ?OnLeftbutton@CTkySel@@QAEXXZ 100b01a0 f   TkySel.obj
 0001:000af1b0       ?OnRightbutton@CTkySel@@QAEXXZ 100b01b0 f   TkySel.obj
 0001:000af1c0       ?OnAddbutton@CTkySel@@QAEXXZ 100b01c0 f   TkySel.obj
 0001:000af1d0       ?OnSubbutton@CTkySel@@QAEXXZ 100b01d0 f   TkySel.obj
 0001:000af1e0       ?OnHomebutton@CTkySel@@QAEXXZ 100b01e0 f   TkySel.obj
 0001:000af1f0       ?OnOK@CTkySel@@MAEXXZ      100b01f0 f   TkySel.obj
 0001:000af230       ?OnCtlColor@CTkySel@@QAEPAUHBRUSH__@@PAVCDC@@PAVCWnd@@I@Z 100b0230 f   TkySel.obj
 0001:000af2a1       ??_ECTkySel@@WKI@AEPAXI@Z  100b02a1 f i TkySel.obj
 0001:000af2b0       ?GetRuntimeClass@CTkyVer2Dlg@@UBEPAUCRuntimeClass@@XZ 100b02b0 f   TkyVer2Dlg.obj
 0001:000af2c0       ??0CTkyVer2Dlg@@QAE@PAVCWnd@@@Z 100b02c0 f   TkyVer2Dlg.obj
 0001:000af4d0       ??_ECTkyVer2Dlg@@UAEPAXI@Z 100b04d0 f i * CIL library *:* CIL module *
 0001:000af4d0       ??_GCTkyVer2Dlg@@UAEPAXI@Z 100b04d0 f i TkyVer2Dlg.obj
 0001:000af510       ??1CTkyVer2Dlg@@UAE@XZ     100b0510 f   TkyVer2Dlg.obj
 0001:000af5a0       ?DoDataExchange@CTkyVer2Dlg@@MAEXPAVCDataExchange@@@Z 100b05a0 f   TkyVer2Dlg.obj
 0001:000af610       ?GetMessageMap@CTkyVer2Dlg@@MBEPBUAFX_MSGMAP@@XZ 100b0610 f   TkyVer2Dlg.obj
 0001:000af670       ?OnInitDialog@CTkyVer2Dlg@@UAEHXZ 100b0670 f   TkyVer2Dlg.obj
 0001:000b04b0       ?EdaCtrlWork@CTkyVer2Dlg@@IAEXH@Z 100b14b0 f   TkyVer2Dlg.obj
 0001:000b08d0       ?InvCtrlWork@CTkyVer2Dlg@@IAEXXZ 100b18d0 f   TkyVer2Dlg.obj
 0001:000b0ce0       ?PreTranslateMessage@CTkyVer2Dlg@@UAEHPAUtagMSG@@@Z 100b1ce0 f   TkyVer2Dlg.obj
 0001:000b1010       ?ComboBoxJob@CTkyVer2Dlg@@IAEJII@Z 100b2010 f   TkyVer2Dlg.obj
 0001:000b1120       ?SameTekiyoCheck@CTkyVer2Dlg@@IAEHPAD00EAAHH@Z 100b2120 f   TkyVer2Dlg.obj
 0001:000b17e0       ?OnOK@CTkyVer2Dlg@@MAEXXZ  100b27e0 f   TkyVer2Dlg.obj
 0001:000b2200       ?AddKmkTekiyoFunc@CTkyVer2Dlg@@IAEHHPADH@Z 100b3200 f   TkyVer2Dlg.obj
 0001:000b2400       ?AddSiwakeTekiyoFunc@CTkyVer2Dlg@@IAEHHPADH@Z 100b3400 f   TkyVer2Dlg.obj
 0001:000b27b0       ?OnBnClickedBtnReg@CTkyVer2Dlg@@QAEXXZ 100b37b0 f   TkyVer2Dlg.obj
 0001:000b2ab0       ?GetEventSinkMap@CTkyVer2Dlg@@MBEPBUAFX_EVENTSINKMAP@@XZ 100b3ab0 f   TkyVer2Dlg.obj
 0001:000b2ac0       ?TerminationIcsdbedt8Tky@CTkyVer2Dlg@@IAEXJJJ@Z 100b3ac0 f   TkyVer2Dlg.obj
 0001:000b2be0       ?TerminationIcsdbedt8Kana@CTkyVer2Dlg@@IAEXJJJ@Z 100b3be0 f   TkyVer2Dlg.obj
 0001:000b2d00       ?TerminationIcsdbedt8Dzbrn@CTkyVer2Dlg@@IAEXJJJ@Z 100b3d00 f   TkyVer2Dlg.obj
 0001:000b2e30       ?TerminationIcsdbedt8Czbrn@CTkyVer2Dlg@@IAEXJJJ@Z 100b3e30 f   TkyVer2Dlg.obj
 0001:000b2f60       ?CheckTerminationID@CTkyVer2Dlg@@IAEHHJ@Z 100b3f60 f   TkyVer2Dlg.obj
 0001:000b2fb0       ?TerminationJob@CTkyVer2Dlg@@IAEHHH@Z 100b3fb0 f   TkyVer2Dlg.obj
 0001:000b30b0       ?OnBnClickedChkTkyonly@CTkyVer2Dlg@@IAEXXZ 100b40b0 f   TkyVer2Dlg.obj
 0001:000b3410       ?EdabanDoubleRegChk@CTkyVer2Dlg@@IAEHHHAAHPAU_DBKNREC@@PAD@Z 100b4410 f   TkyVer2Dlg.obj
 0001:000b3970       ?OnBnClickedBrndebBtn@CTkyVer2Dlg@@IAEXXZ 100b4970 f   TkyVer2Dlg.obj
 0001:000b3af0       ?OnBnClickedBrncreBtn@CTkyVer2Dlg@@IAEXXZ 100b4af0 f   TkyVer2Dlg.obj
 0001:000b3c70       ?eda_seteicheck@CTkyVer2Dlg@@IAEHHAAH@Z 100b4c70 f   TkyVer2Dlg.obj
 0001:000b40c0       ?SaveTkyData@CTkyVer2Dlg@@QAEXPAU_TKYV2_SAVE@@@Z 100b50c0 f   TkyVer2Dlg.obj
 0001:000b4470       ?SetCheckFromSave@CTkyVer2Dlg@@IAEXXZ 100b5470 f   TkyVer2Dlg.obj
 0001:000b45a0       ?OnBnClickedBtnTkysel@CTkyVer2Dlg@@IAEXXZ 100b55a0 f   TkyVer2Dlg.obj
 0001:000b4830       ?TerminationIcsdbedt8Invno@CTkyVer2Dlg@@IAEXJJJ@Z 100b5830 f   TkyVer2Dlg.obj
 0001:000b4cc0       ?OnKillFocusIcsdbedt8Invno@CTkyVer2Dlg@@IAEXJ@Z 100b5cc0 f   TkyVer2Dlg.obj
 0001:000b4cf0       ?CheckInvoiceNo@CTkyVer2Dlg@@IAEHXZ 100b5cf0 f   TkyVer2Dlg.obj
 0001:000b4e80       ?OnMyMessage@CTkyVer2Dlg@@IAEJIJ@Z 100b5e80 f   TkyVer2Dlg.obj
 0001:000b4ee6       ??_ECTkyVer2Dlg@@WKI@AEPAXI@Z 100b5ee6 f i TkyVer2Dlg.obj
 0001:000b4ef1       ?PreTranslateMessage@ICSDialog@@UAEHPAUtagMSG@@@Z 100b5ef1 f   ICS15_GEN:ICS15_GEN.dll
 0001:000b4ef7       ?GetRuntimeClass@ICSDialog@@UBEPAUCRuntimeClass@@XZ 100b5ef7 f   ICS15_GEN:ICS15_GEN.dll
 0001:000b4efd       ?OnInitDialogEX@ICSDialog@@UAEXXZ 100b5efd f   ICS15_GEN:ICS15_GEN.dll
 0001:000b4f03       ?SetBackgroundColor@ICSReportRecordItem@@UAEXK@Z 100b5f03 f   ICS15_GEN:ICS15_GEN.dll
 0001:000b4f09       ?SetTextColor@ICSReportRecordItem@@UAEXK@Z 100b5f09 f   ICS15_GEN:ICS15_GEN.dll
 0001:000b4f0f       ?DoPropExchange@ICSReportColumn@@UAEXPAVCXTPPropExchange@@@Z 100b5f0f f   ICS15_GEN:ICS15_GEN.dll
 0001:000b4f15       ?GetRuntimeClass@ICSReportRecord@@UBEPAUCRuntimeClass@@XZ 100b5f15 f   ICS15_GEN:ICS15_GEN.dll
 0001:000b4f1b       ?GetItemMetrics@ICSReportRecord@@UAEXPAUICS_REPORTRECORDITEM_DRAWARGS@@PAUICS_REPORTRECORDITEM_METRICS@@@Z 100b5f1b f   ICS15_GEN:ICS15_GEN.dll
 0001:000b4f21       ?IsFiltered@ICSReportRecord@@UAEHXZ 100b5f21 f   ICS15_GEN:ICS15_GEN.dll
 0001:000b4f27       ?GetRuntimeClass@ICSReportRecordItemText@@UBEPAUCRuntimeClass@@XZ 100b5f27 f   ICS15_GEN:ICS15_GEN.dll
 0001:000b4f2d       ?Draw@ICSReportRecordItem@@UAEHPAUICS_REPORTRECORDITEM_DRAWARGS@@@Z 100b5f2d f   ICS15_GEN:ICS15_GEN.dll
 0001:000b4f33       ?OnDrawCaption@ICSReportRecordItem@@UAEXPAUICS_REPORTRECORDITEM_DRAWARGS@@PAUICS_REPORTRECORDITEM_METRICS@@@Z 100b5f33 f   ICS15_GEN:ICS15_GEN.dll
 0001:000b4f39       ?OnClick@ICSReportRecordItem@@UAEXPAUICS_REPORTRECORDITEM_CLICKARGS@@@Z 100b5f39 f   ICS15_GEN:ICS15_GEN.dll
 0001:000b4f3f       ?OnDblClick@ICSReportRecordItem@@UAEXPAUICS_REPORTRECORDITEM_CLICKARGS@@@Z 100b5f3f f   ICS15_GEN:ICS15_GEN.dll
 0001:000b4f45       ?OnMouseMove@ICSReportRecordItem@@UAEXIVCPoint@@@Z 100b5f45 f   ICS15_GEN:ICS15_GEN.dll
 0001:000b4f4b       ?GetCaption@ICSReportRecordItemText@@UAE?AV?$CStringT@DV?$StrTraitMFC_DLL@DV?$ChTraitsCRT@D@ATL@@@@@ATL@@PAVICSReportColumn@@@Z 100b5f4b f   ICS15_GEN:ICS15_GEN.dll
 0001:000b4f51       ?GetCaptionString@ICSReportRecordItemText@@UAE?AV?$CStringT@DV?$StrTraitMFC_DLL@DV?$ChTraitsCRT@D@ATL@@@@@ATL@@PAVICSReportColumn@@@Z 100b5f51 f   ICS15_GEN:ICS15_GEN.dll
 0001:000b4f57       ?GetCaptionRect@ICSReportRecordItem@@UAEXPAUICS_REPORTRECORDITEM_ARGS@@AAVCRect@@@Z 100b5f57 f   ICS15_GEN:ICS15_GEN.dll
 0001:000b4f5d       ?GetGroupCaption@ICSReportRecordItem@@UAE?AV?$CStringT@DV?$StrTraitMFC_DLL@DV?$ChTraitsCRT@D@ATL@@@@@ATL@@PAVICSReportColumn@@@Z 100b5f5d f   ICS15_GEN:ICS15_GEN.dll
 0001:000b4f63       ?GetGroupCaptionID@ICSReportRecordItem@@UAEHPAVICSReportColumn@@@Z 100b5f63 f   ICS15_GEN:ICS15_GEN.dll
 0001:000b4f69       ?CompareGroupCaption@ICSReportRecordItem@@UAEHPAVICSReportColumn@@PAV1@@Z 100b5f69 f   ICS15_GEN:ICS15_GEN.dll
 0001:000b4f6f       ?Compare@ICSReportRecordItem@@UAEHPAVICSReportColumn@@PAV1@@Z 100b5f6f f   ICS15_GEN:ICS15_GEN.dll
 0001:000b4f75       ?SetFont@ICSReportRecordItem@@UAEXPAVCFont@@@Z 100b5f75 f   ICS15_GEN:ICS15_GEN.dll
 0001:000b4f7b       ?GetFont@ICSReportRecordItem@@UAEPAVCFont@@XZ 100b5f7b f   ICS15_GEN:ICS15_GEN.dll
 0001:000b4f81       ?SetBold@ICSReportRecordItem@@UAEXH@Z 100b5f81 f   ICS15_GEN:ICS15_GEN.dll
 0001:000b4f87       ?GetFormatString@ICSReportRecordItem@@UAE?AV?$CStringT@DV?$StrTraitMFC_DLL@DV?$ChTraitsCRT@D@ATL@@@@@ATL@@XZ 100b5f87 f   ICS15_GEN:ICS15_GEN.dll
 0001:000b4f8d       ?SetFormatString@ICSReportRecordItem@@UAE?AV?$CStringT@DV?$StrTraitMFC_DLL@DV?$ChTraitsCRT@D@ATL@@@@@ATL@@V23@@Z 100b5f8d f   ICS15_GEN:ICS15_GEN.dll
 0001:000b4f93       ?IsEditable@ICSReportRecordItem@@UAEHXZ 100b5f93 f   ICS15_GEN:ICS15_GEN.dll
 0001:000b4f99       ?SetEditable@ICSReportRecordItem@@UAEHH@Z 100b5f99 f   ICS15_GEN:ICS15_GEN.dll
 0001:000b4f9f       ?GetItemMetrics@ICSReportRecordItem@@UAEXPAUICS_REPORTRECORDITEM_DRAWARGS@@PAUICS_REPORTRECORDITEM_METRICS@@@Z 100b5f9f f   ICS15_GEN:ICS15_GEN.dll
 0001:000b4fa5       ?IsPreviewItem@ICSReportRecordItem@@UBEHXZ 100b5fa5 f   ICS15_GEN:ICS15_GEN.dll
 0001:000b4fab       ?SetChecked@ICSReportRecordItem@@UAEXH@Z 100b5fab f   ICS15_GEN:ICS15_GEN.dll
 0001:000b4fb1       ?IsChecked@ICSReportRecordItem@@UBEHXZ 100b5fb1 f   ICS15_GEN:ICS15_GEN.dll
 0001:000b4fb7       ?DrawCheckBox@ICSReportRecordItem@@MAEXPAUICS_REPORTRECORDITEM_DRAWARGS@@AAVCRect@@@Z 100b5fb7 f   ICS15_GEN:ICS15_GEN.dll
 0001:000b4fbd       ?OnBeginEdit@ICSReportRecordItem@@MAEXPAUICS_REPORTRECORDITEM_ARGS@@@Z 100b5fbd f   ICS15_GEN:ICS15_GEN.dll
 0001:000b4fc3       ?OnCancelEdit@ICSReportRecordItem@@MAEXPAVICSReportControl@@HPAVICSReportColumn@@@Z 100b5fc3 f   ICS15_GEN:ICS15_GEN.dll
 0001:000b4fc9       ?OnChar@ICSReportRecordItem@@MAEHPAUICS_REPORTRECORDITEM_ARGS@@I@Z 100b5fc9 f   ICS15_GEN:ICS15_GEN.dll
 0001:000b4fcf       ?OnValidateEdit@ICSReportRecordItem@@UAEXPAUICS_REPORTRECORDITEM_ARGS@@@Z 100b5fcf f   ICS15_GEN:ICS15_GEN.dll
 0001:000b4fd5       ?OnEditChanged@ICSReportRecordItemText@@UAEXPAUICS_REPORTRECORDITEM_ARGS@@PBD@Z 100b5fd5 f   ICS15_GEN:ICS15_GEN.dll
 0001:000b4fdb       ?OnConstraintChanged@ICSReportRecordItem@@UAEXPAUICS_REPORTRECORDITEM_ARGS@@PAVICSReportRecordItemConstraint@@@Z 100b5fdb f   ICS15_GEN:ICS15_GEN.dll
 0001:000b4fe1       ?GetSelectedConstraintData@ICSReportRecordItem@@UAEKPAUICS_REPORTRECORDITEM_ARGS@@@Z 100b5fe1 f   ICS15_GEN:ICS15_GEN.dll
 0001:000b4fe7       ?OnInplaceButtonDown@ICSReportRecordItem@@UAEXPAVICSReportInplaceButton@@H@Z 100b5fe7 f   ICS15_GEN:ICS15_GEN.dll
 0001:000b4fed       ?OnInplaceButtonDown@ICSReportRecordItem@@UAEXPAVICSReportInplaceButton@@@Z 100b5fed f   ICS15_GEN:ICS15_GEN.dll
 0001:000b4ff3       ?UpdateCaption@ICSStatic@@UAEXPBDPAUHICON__@@@Z 100b5ff3 f   ICS15_GEN:ICS15_GEN.dll
 0001:000b4ff9       ?GetTextRect@ICSStatic@@MBE?AVCRect@@XZ 100b5ff9 f   ICS15_GEN:ICS15_GEN.dll
 0001:000b4fff       ?DrawCaptionBack@ICSStatic@@UAEXPAVCDC@@AAVCRect@@@Z 100b5fff f   ICS15_GEN:ICS15_GEN.dll
 0001:000b5010       ??0CDBipDataRec@@QAE@XZ    100b6010 f   ZIM15_InpRecmd:DBDinpRec.obj
 0001:000b50f0       ??0CDBipEZREC@@QAE@XZ      100b60f0 f   ZIM15_InpRecmd:DBDinpRec.obj
 0001:000b51b0       ??0CDBipTKREC@@QAE@XZ      100b61b0 f   ZIM15_InpRecmd:DBDinpRec.obj
 0001:000b5250       ??1CDBipDataRec@@QAE@XZ    100b6250 f   ZIM15_InpRecmd:DBDinpRec.obj
 0001:000b52b0       ??1CDBipEZREC@@QAE@XZ      100b62b0 f   ZIM15_InpRecmd:DBDinpRec.obj
 0001:000b5330       ??1CDBipTKREC@@QAE@XZ      100b6330 f   ZIM15_InpRecmd:DBDinpRec.obj
 0001:000b5360       ??4CDBipDataRec@@QAEXABV0@@Z 100b6360 f   ZIM15_InpRecmd:DBDinpRec.obj
 0001:000b54c0       ??4CDBipTKREC@@QAEXABV0@@Z 100b64c0 f   ZIM15_InpRecmd:DBDinpRec.obj
 0001:000b5540       ??9CDBipDataRec@@QAEHABV0@@Z 100b6540 f   ZIM15_InpRecmd:DBDinpRec.obj
 0001:000b5820       ?Reset@CDBipDataRec@@QAEXXZ 100b6820 f   ZIM15_InpRecmd:DBDinpRec.obj
 0001:000b5990       ?Reset@CDBipEZREC@@QAEXXZ  100b6990 f   ZIM15_InpRecmd:DBDinpRec.obj
 0001:000b5a50       ?Reset@CDBipTKREC@@QAEXXZ  100b6a50 f   ZIM15_InpRecmd:DBDinpRec.obj
 0001:000b5ac3       __imp_load_??0CDBNpSub@@QAE@XZ 100b6ac3 f   ZIM15_NpSub:ZIM15_NpSub.dll
 0001:000b5acd       __tailMerge_zim15_npsub_dll 100b6acd     ZIM15_NpSub:ZIM15_NpSub.dll
 0001:000b5ade       __imp_load_?NpVolumeOpen@CDBNpSub@@QAEHXZ 100b6ade f   ZIM15_NpSub:ZIM15_NpSub.dll
 0001:000b5ae8       __imp_load_?NpShiteiKamokuZanOpen@CDBNpSub@@QAEHPBDH@Z 100b6ae8 f   ZIM15_NpSub:ZIM15_NpSub.dll
 0001:000b5af2       __imp_load_?NpKamokuMeisyoOpen@CDBNpSub@@QAEHPBD@Z 100b6af2 f   ZIM15_NpSub:ZIM15_NpSub.dll
 0001:000b5afc       __imp_load_?MoveFirstEx@Cdbbase@@QAEHXZ 100b6afc f   ZIM15_NpSub:ZIM15_NpSub.dll
 0001:000b5b06       __imp_load_?MoveNextEx@Cdbbase@@QAEHXZ 100b6b06 f   ZIM15_NpSub:ZIM15_NpSub.dll
 0001:000b5b10       __imp_load_?RequeryEx@Cnpsszrc@@QAEHPBDH@Z 100b6b10 f   ZIM15_NpSub:ZIM15_NpSub.dll
 0001:000b5b1a       __imp_load_?NpVolumeClose@CDBNpSub@@QAEHXZ 100b6b1a f   ZIM15_NpSub:ZIM15_NpSub.dll
 0001:000b5b24       __imp_load_?NpShiteiKamokuZanClose@CDBNpSub@@QAEHXZ 100b6b24 f   ZIM15_NpSub:ZIM15_NpSub.dll
 0001:000b5b2e       __imp_load_?SyusiPjisToKsrec@CDBZmSub@@QAEPAU_DBKNREC@@K@Z 100b6b2e f   ZIM15_PbZmSub:ZIM15_PbZmSub.dll
 0001:000b5b38       __tailMerge_zim15_pbzmsub_dll 100b6b38     ZIM15_PbZmSub:ZIM15_PbZmSub.dll
 0001:000b5b49       __imp_load_?SyusiKamokuMeisyoRead@CDBZmSub@@QAEHH@Z 100b6b49 f   ZIM15_PbZmSub:ZIM15_PbZmSub.dll
 0001:000b5b53       __imp_load_?IsCloudSansyoMode@Jz2CloudApi@@YAHFHHV?$CStringT@DV?$StrTraitMFC_DLL@DV?$ChTraitsCRT@D@ATL@@@@@ATL@@@Z 100b6b53 f   ICS15_JZ2CLOUDOPT:ICS15_jz2cloudopt.dll
 0001:000b5b5d       __tailMerge_ics15_jz2cloudopt_dll 100b6b5d     ICS15_JZ2CLOUDOPT:ICS15_jz2cloudopt.dll
 0001:000b5b6e       __imp_load_?l_pardotnet3@@YAXPADPBD1111H@Z 100b6b6e f   Zim15_SyzSykCom:ZIM15_SyzSykCom.dll
 0001:000b5b78       __tailMerge_zim15_syzsykcom_dll 100b6b78     Zim15_SyzSykCom:ZIM15_SyzSykCom.dll
 0001:000b5b89       ?DloadAcquireSectionWriteAccess@@YGXXZ 100b6b89 f i Delayimp:delayhlp.obj
 0001:000b5bbc       ?DloadGetSRWLockFunctionPointers@@YGEXZ 100b6bbc f i Delayimp:delayhlp.obj
 0001:000b5c2f       ?DloadLock@@YGXXZ          100b6c2f f i Delayimp:delayhlp.obj
 0001:000b5c6e       ?DloadMakePermanentImageCommit@@YGXPAXK@Z 100b6c6e f i Delayimp:delayhlp.obj
 0001:000b5cdd       ?DloadObtainSection@@YGPAXPAK0@Z 100b6cdd f i Delayimp:delayhlp.obj
 0001:000b5d58       ?DloadProtectSection@@YGXKPAK@Z 100b6d58 f i Delayimp:delayhlp.obj
 0001:000b5dc6       ?DloadReleaseSectionWriteAccess@@YGXXZ 100b6dc6 f i Delayimp:delayhlp.obj
 0001:000b5dfc       ?DloadUnlock@@YGXXZ        100b6dfc f i Delayimp:delayhlp.obj
 0001:000b5e28       ___delayLoadHelper2@8      100b6e28 f   Delayimp:delayhlp.obj
 0001:000b6097       ??3@YAXPAX@Z               100b7097 f   mfc140:mfc140.dll
 0001:000b609d       ?Create@CDialog@@UAEHPBDPAVCWnd@@@Z 100b709d f   mfc140:mfc140.dll
 0001:000b60a3       ?OnCmdMsg@CDialog@@UAEHIHPAXPAUAFX_CMDHANDLERINFO@@@Z 100b70a3 f   mfc140:mfc140.dll
 0001:000b60a9       ?OnFinalRelease@CWnd@@UAEXXZ 100b70a9 f   mfc140:mfc140.dll
 0001:000b60af       ?IsInvokeAllowed@CCmdTarget@@UAEHJ@Z 100b70af f   mfc140:mfc140.dll
 0001:000b60b5       ?GetDispatchIID@CCmdTarget@@UAEHPAU_GUID@@@Z 100b70b5 f   mfc140:mfc140.dll
 0001:000b60bb       ?GetTypeInfoCount@CCmdTarget@@UAEIXZ 100b70bb f   mfc140:mfc140.dll
 0001:000b60c1       ?GetTypeLibCache@CCmdTarget@@UAEPAVCTypeLibCache@@XZ 100b70c1 f   mfc140:mfc140.dll
 0001:000b60c7       ?GetTypeLib@CCmdTarget@@UAEJKPAPAUITypeLib@@@Z 100b70c7 f   mfc140:mfc140.dll
 0001:000b60cd       ?GetCommandMap@CCmdTarget@@MBEPBUAFX_OLECMDMAP@@XZ 100b70cd f   mfc140:mfc140.dll
 0001:000b60d3       ?GetDispatchMap@CCmdTarget@@MBEPBUAFX_DISPMAP@@XZ 100b70d3 f   mfc140:mfc140.dll
 0001:000b60d9       ?GetConnectionMap@CCmdTarget@@MBEPBUAFX_CONNECTIONMAP@@XZ 100b70d9 f   mfc140:mfc140.dll
 0001:000b60df       ?GetInterfaceMap@CWnd@@MBEPBUAFX_INTERFACEMAP@@XZ 100b70df f   mfc140:mfc140.dll
 0001:000b60e5       ?GetEventSinkMap@CCmdTarget@@MBEPBUAFX_EVENTSINKMAP@@XZ 100b70e5 f   mfc140:mfc140.dll
 0001:000b60eb       ?OnCreateAggregates@CCmdTarget@@UAEHXZ 100b70eb f   mfc140:mfc140.dll
 0001:000b60f1       ?GetInterfaceHook@CCmdTarget@@UAEPAUIUnknown@@PBX@Z 100b70f1 f   mfc140:mfc140.dll
 0001:000b60f7       ?GetExtraConnectionPoints@CCmdTarget@@MAEHPAVCPtrArray@@@Z 100b70f7 f   mfc140:mfc140.dll
 0001:000b60fd       ?GetConnectionHook@CCmdTarget@@MAEPAUIConnectionPoint@@ABU_GUID@@@Z 100b70fd f   mfc140:mfc140.dll
 0001:000b6103       ?PreSubclassWindow@CWnd@@UAEXXZ 100b7103 f   mfc140:mfc140.dll
 0001:000b6109       ?Create@CWnd@@UAEHPBD0KABUtagRECT@@PAV1@IPAUCCreateContext@@@Z 100b7109 f   mfc140:mfc140.dll
 0001:000b610f       ?CreateEx@CWnd@@UAEHKPBD0KABUtagRECT@@PAV1@IPAX@Z 100b710f f   mfc140:mfc140.dll
 0001:000b6115       ?CreateEx@CWnd@@UAEHKPBD0KHHHHPAUHWND__@@PAUHMENU__@@PAX@Z 100b7115 f   mfc140:mfc140.dll
 0001:000b611b       ?DestroyWindow@CWnd@@UAEHXZ 100b711b f   mfc140:mfc140.dll
 0001:000b6121       ?PreCreateWindow@CWnd@@UAEHAAUtagCREATESTRUCTA@@@Z 100b7121 f   mfc140:mfc140.dll
 0001:000b6127       ?CalcWindowRect@CWnd@@UAEXPAUtagRECT@@I@Z 100b7127 f   mfc140:mfc140.dll
 0001:000b612d       ?GetMenu@CWnd@@UBEPAVCMenu@@XZ 100b712d f   mfc140:mfc140.dll
 0001:000b6133       ?SetMenu@CWnd@@UAEHPAVCMenu@@@Z 100b7133 f   mfc140:mfc140.dll
 0001:000b6139       ?OnToolHitTest@CWnd@@UBEHVCPoint@@PAUtagTOOLINFOA@@@Z 100b7139 f   mfc140:mfc140.dll
 0001:000b613f       ?GetScrollBarCtrl@CWnd@@UBEPAVCScrollBar@@H@Z 100b713f f   mfc140:mfc140.dll
 0001:000b6145       ?WinHelpA@CWnd@@UAEXKI@Z   100b7145 f   mfc140:mfc140.dll
 0001:000b614b       ?HtmlHelpA@CWnd@@UAEXKI@Z  100b714b f   mfc140:mfc140.dll
 0001:000b6151       ?WinHelpInternal@CWnd@@UAEXKI@Z 100b7151 f   mfc140:mfc140.dll
 0001:000b6157       ?ContinueModal@CWnd@@UAEHXZ 100b7157 f   mfc140:mfc140.dll
 0001:000b615d       ?EndModalLoop@CWnd@@UAEXH@Z 100b715d f   mfc140:mfc140.dll
 0001:000b6163       ?OnDrawIconicThumbnailOrLivePreview@CWnd@@UAEXAAVCDC@@VCRect@@VCSize@@HAAH@Z 100b7163 f   mfc140:mfc140.dll
 0001:000b6169       ?EnsureStdObj@CWnd@@UAEJXZ 100b7169 f   mfc140:mfc140.dll
 0001:000b616f       ?get_accParent@CWnd@@UAEJPAPAUIDispatch@@@Z 100b716f f   mfc140:mfc140.dll
 0001:000b6175       ?get_accChildCount@CWnd@@UAEJPAJ@Z 100b7175 f   mfc140:mfc140.dll
 0001:000b617b       ?get_accChild@CWnd@@UAEJUtagVARIANT@@PAPAUIDispatch@@@Z 100b717b f   mfc140:mfc140.dll
 0001:000b6181       ?get_accName@CWnd@@UAEJUtagVARIANT@@PAPA_W@Z 100b7181 f   mfc140:mfc140.dll
 0001:000b6187       ?get_accValue@CWnd@@UAEJUtagVARIANT@@PAPA_W@Z 100b7187 f   mfc140:mfc140.dll
 0001:000b618d       ?get_accDescription@CWnd@@UAEJUtagVARIANT@@PAPA_W@Z 100b718d f   mfc140:mfc140.dll
 0001:000b6193       ?get_accRole@CWnd@@UAEJUtagVARIANT@@PAU2@@Z 100b7193 f   mfc140:mfc140.dll
 0001:000b6199       ?get_accState@CWnd@@UAEJUtagVARIANT@@PAU2@@Z 100b7199 f   mfc140:mfc140.dll
 0001:000b619f       ?get_accHelp@CWnd@@UAEJUtagVARIANT@@PAPA_W@Z 100b719f f   mfc140:mfc140.dll
 0001:000b61a5       ?get_accHelpTopic@CWnd@@UAEJPAPA_WUtagVARIANT@@PAJ@Z 100b71a5 f   mfc140:mfc140.dll
 0001:000b61ab       ?get_accKeyboardShortcut@CWnd@@UAEJUtagVARIANT@@PAPA_W@Z 100b71ab f   mfc140:mfc140.dll
 0001:000b61b1       ?get_accFocus@CWnd@@UAEJPAUtagVARIANT@@@Z 100b71b1 f   mfc140:mfc140.dll
 0001:000b61b7       ?get_accSelection@CWnd@@UAEJPAUtagVARIANT@@@Z 100b71b7 f   mfc140:mfc140.dll
 0001:000b61bd       ?get_accDefaultAction@CWnd@@UAEJUtagVARIANT@@PAPA_W@Z 100b71bd f   mfc140:mfc140.dll
 0001:000b61c3       ?accSelect@CWnd@@UAEJJUtagVARIANT@@@Z 100b71c3 f   mfc140:mfc140.dll
 0001:000b61c9       ?accLocation@CWnd@@UAEJPAJ000UtagVARIANT@@@Z 100b71c9 f   mfc140:mfc140.dll
 0001:000b61cf       ?accNavigate@CWnd@@UAEJJUtagVARIANT@@PAU2@@Z 100b71cf f   mfc140:mfc140.dll
 0001:000b61d5       ?accHitTest@CWnd@@UAEJJJPAUtagVARIANT@@@Z 100b71d5 f   mfc140:mfc140.dll
 0001:000b61db       ?accDoDefaultAction@CWnd@@UAEJUtagVARIANT@@@Z 100b71db f   mfc140:mfc140.dll
 0001:000b61e1       ?put_accName@CWnd@@UAEJUtagVARIANT@@PA_W@Z 100b71e1 f   mfc140:mfc140.dll
 0001:000b61e7       ?put_accValue@CWnd@@UAEJUtagVARIANT@@PA_W@Z 100b71e7 f   mfc140:mfc140.dll
 0001:000b61ed       ?SetProxy@CWnd@@UAEJPAUIAccessibleProxy@@@Z 100b71ed f   mfc140:mfc140.dll
 0001:000b61f3       ?CreateAccessibleProxy@CWnd@@UAEJIJPAJ@Z 100b71f3 f   mfc140:mfc140.dll
 0001:000b61f9       ?OnCommand@CWnd@@MAEHIJ@Z  100b71f9 f   mfc140:mfc140.dll
 0001:000b61ff       ?OnNotify@CWnd@@MAEHIJPAJ@Z 100b71ff f   mfc140:mfc140.dll
 0001:000b6205       ?GetSuperWndProcAddr@CWnd@@MAEPAP6GJPAUHWND__@@IIJ@ZXZ 100b7205 f   mfc140:mfc140.dll
 0001:000b620b       ?OnAmbientProperty@CWnd@@UAEHPAVCOleControlSite@@JPAUtagVARIANT@@@Z 100b720b f   mfc140:mfc140.dll
 0001:000b6211       ?WindowProc@CWnd@@MAEJIIJ@Z 100b7211 f   mfc140:mfc140.dll
 0001:000b6217       ?OnWndMsg@CWnd@@MAEHIIJPAJ@Z 100b7217 f   mfc140:mfc140.dll
 0001:000b621d       ?DefWindowProcA@CWnd@@MAEJIIJ@Z 100b721d f   mfc140:mfc140.dll
 0001:000b6223       ?OnChildNotify@CWnd@@MAEHIIJPAJ@Z 100b7223 f   mfc140:mfc140.dll
 0001:000b6229       ?OnTouchInputs@CWnd@@MAEHIPAUtagTOUCHINPUT@@@Z 100b7229 f   mfc140:mfc140.dll
 0001:000b622f       ?OnTouchInput@CWnd@@MAEHVCPoint@@HHPAUtagTOUCHINPUT@@@Z 100b722f f   mfc140:mfc140.dll
 0001:000b6235       ?GetGestureStatus@CWnd@@MAEKVCPoint@@@Z 100b7235 f   mfc140:mfc140.dll
 0001:000b623b       ?OnGestureZoom@CWnd@@MAEHVCPoint@@J@Z 100b723b f   mfc140:mfc140.dll
 0001:000b6241       ?OnGesturePan@CWnd@@MAEHVCPoint@@0@Z 100b7241 f   mfc140:mfc140.dll
 0001:000b6247       ?OnGestureRotate@CWnd@@MAEHVCPoint@@N@Z 100b7247 f   mfc140:mfc140.dll
 0001:000b624d       ?OnGestureTwoFingerTap@CWnd@@MAEHVCPoint@@@Z 100b724d f   mfc140:mfc140.dll
 0001:000b6253       ?OnGesturePressAndTap@CWnd@@MAEHVCPoint@@J@Z 100b7253 f   mfc140:mfc140.dll
 0001:000b6259       ?ResizeDynamicLayout@CWnd@@MAEXXZ 100b7259 f   mfc140:mfc140.dll
 0001:000b625f       ?CheckAutoCenter@CDialog@@UAEHXZ 100b725f f   mfc140:mfc140.dll
 0001:000b6265       ?IsFrameWnd@CWnd@@UBEHXZ   100b7265 f   mfc140:mfc140.dll
 0001:000b626b       ?CreateControlContainer@CWnd@@MAEHPAPAVCOleControlContainer@@@Z 100b726b f   mfc140:mfc140.dll
 0001:000b6271       ?CreateControlSite@CWnd@@MAEHPAVCOleControlContainer@@PAPAVCOleControlSite@@IABU_GUID@@@Z 100b7271 f   mfc140:mfc140.dll
 0001:000b6277       ?SetOccDialogInfo@CDialog@@MAEHPAU_AFX_OCC_DIALOG_INFO@@@Z 100b7277 f   mfc140:mfc140.dll
 0001:000b627d       ?GetOccDialogInfo@CDialog@@MAEPAU_AFX_OCC_DIALOG_INFO@@XZ 100b727d f   mfc140:mfc140.dll
 0001:000b6283       ?CreateIndirect@CDialog@@UAEHPAXPAVCWnd@@@Z 100b7283 f   mfc140:mfc140.dll
 0001:000b6289       ?CreateIndirect@CDialog@@UAEHPBUDLGTEMPLATE@@PAVCWnd@@PAX@Z 100b7289 f   mfc140:mfc140.dll
 0001:000b628f       ?DoModal@CDialog@@UAEHXZ   100b728f f   mfc140:mfc140.dll
 0001:000b6295       ?OnSetFont@CDialog@@UAEXPAVCFont@@@Z 100b7295 f   mfc140:mfc140.dll
 0001:000b629b       ?OnOK@CDialog@@MAEXXZ      100b729b f   mfc140:mfc140.dll
 0001:000b62a1       ?OnCancel@CDialog@@MAEXXZ  100b72a1 f   mfc140:mfc140.dll
 0001:000b62a7       ?PreInitDialog@CDialog@@MAEXXZ 100b72a7 f   mfc140:mfc140.dll
 0001:000b62ad       ?Open@CRecordset@@UAEHIPBDK@Z 100b72ad f   mfc140:mfc140.dll
 0001:000b62b3       ?Close@CRecordset@@UAEXXZ  100b72b3 f   mfc140:mfc140.dll
 0001:000b62b9       ?AfxThrowInvalidArgException@@YGXXZ 100b72b9 f   mfc140:mfc140.dll
 0001:000b62bf       ??_V@YAXPAX@Z              100b72bf f   mfc140:mfc140.dll
 0001:000b62c5       ?GetRuntimeClass@CObject@@UBEPAUCRuntimeClass@@XZ 100b72c5 f   mfc140:mfc140.dll
 0001:000b62cb       ?GetRuntimeClass@CBrush@@UBEPAUCRuntimeClass@@XZ 100b72cb f   mfc140:mfc140.dll
 0001:000b62d1       ?GetRuntimeClass@CGdiObject@@UBEPAUCRuntimeClass@@XZ 100b72d1 f   mfc140:mfc140.dll
 0001:000b62d7       ?DrawItem@CButton@@UAEXPAUtagDRAWITEMSTRUCT@@@Z 100b72d7 f   mfc140:mfc140.dll
 0001:000b62dd       ?Create@CButton@@UAEHPBDKABUtagRECT@@PAVCWnd@@I@Z 100b72dd f   mfc140:mfc140.dll
 0001:000b62e3       ?GetOccDialogInfo@CWnd@@MAEPAU_AFX_OCC_DIALOG_INFO@@XZ 100b72e3 f   mfc140:mfc140.dll
 0001:000b62e9       ?SetOccDialogInfo@CWnd@@MAEHPAU_AFX_OCC_DIALOG_INFO@@@Z 100b72e9 f   mfc140:mfc140.dll
 0001:000b62ef       ?CheckAutoCenter@CWnd@@UAEHXZ 100b72ef f   mfc140:mfc140.dll
 0001:000b62f5       ?OnChildNotify@CButton@@MAEHIIJPAJ@Z 100b72f5 f   mfc140:mfc140.dll
 0001:000b62fb       ?PostNcDestroy@CWnd@@MAEXXZ 100b72fb f   mfc140:mfc140.dll
 0001:000b6301       ?PreTranslateMessage@CWnd@@UAEHPAUtagMSG@@@Z 100b7301 f   mfc140:mfc140.dll
 0001:000b6307       ?GetMessageMap@CWnd@@MBEPBUAFX_MSGMAP@@XZ 100b7307 f   mfc140:mfc140.dll
 0001:000b630d       ?OnCmdMsg@CCmdTarget@@UAEHIHPAXPAUAFX_CMDHANDLERINFO@@@Z 100b730d f   mfc140:mfc140.dll
 0001:000b6313       ?GetRuntimeClass@CButton@@UBEPAUCRuntimeClass@@XZ 100b7313 f   mfc140:mfc140.dll
 0001:000b6319       ?GetThisEventSinkMap@CCmdTarget@@KGPBUAFX_EVENTSINKMAP@@XZ 100b7319 f   mfc140:mfc140.dll
 0001:000b631f       ?Move@CRecordset@@UAEXJG@Z 100b731f f   mfc140:mfc140.dll
 0001:000b6325       ?SetRowsetSize@CRecordset@@UAEXK@Z 100b7325 f   mfc140:mfc140.dll
 0001:000b632b       ?CheckRowsetError@CRecordset@@UAEXF@Z 100b732b f   mfc140:mfc140.dll
 0001:000b6331       ?AddNew@CRecordset@@UAEXXZ 100b7331 f   mfc140:mfc140.dll
 0001:000b6337       ?Edit@CRecordset@@UAEXXZ   100b7337 f   mfc140:mfc140.dll
 0001:000b633d       ?Update@CRecordset@@UAEHXZ 100b733d f   mfc140:mfc140.dll
 0001:000b6343       ?Delete@CRecordset@@UAEXXZ 100b7343 f   mfc140:mfc140.dll
 0001:000b6349       ?Requery@CRecordset@@UAEHXZ 100b7349 f   mfc140:mfc140.dll
 0001:000b634f       ?OnSetOptions@CRecordset@@UAEXPAX@Z 100b734f f   mfc140:mfc140.dll
 0001:000b6355       ?OnSetUpdateOptions@CRecordset@@UAEXPAX@Z 100b7355 f   mfc140:mfc140.dll
 0001:000b635b       ?DoBulkFieldExchange@CRecordset@@UAEXPAVCFieldExchange@@@Z 100b735b f   mfc140:mfc140.dll
 0001:000b6361       ?Check@CRecordset@@UBEHF@Z 100b7361 f   mfc140:mfc140.dll
 0001:000b6367       ?SetRowsetCurrencyStatus@CRecordset@@UAEXFGJK@Z 100b7367 f   mfc140:mfc140.dll
 0001:000b636d       ?PreBindFields@CRecordset@@UAEXXZ 100b736d f   mfc140:mfc140.dll
 0001:000b6373       ?GetLBFetchSize@CRecordset@@MAEJJ@Z 100b7373 f   mfc140:mfc140.dll
 0001:000b6379       ?GetLBReallocSize@CRecordset@@MAEJJ@Z 100b7379 f   mfc140:mfc140.dll
 0001:000b637f       ?GetRuntimeClass@CCmdTarget@@UBEPAUCRuntimeClass@@XZ 100b737f f   mfc140:mfc140.dll
 0001:000b6385       ?OnFinalRelease@CCmdTarget@@UAEXXZ 100b7385 f   mfc140:mfc140.dll
 0001:000b638b       ?GetMessageMap@CCmdTarget@@MBEPBUAFX_MSGMAP@@XZ 100b738b f   mfc140:mfc140.dll
 0001:000b6391       ?GetInterfaceMap@CCmdTarget@@MBEPBUAFX_INTERFACEMAP@@XZ 100b7391 f   mfc140:mfc140.dll
 0001:000b6397       ??0CByteArray@@QAE@XZ      100b7397 f   mfc140:mfc140.dll
 0001:000b639d       ??1CByteArray@@UAE@XZ      100b739d f   mfc140:mfc140.dll
 0001:000b63a3       ?SetSize@CByteArray@@QAEXHH@Z 100b73a3 f   mfc140:mfc140.dll
 0001:000b63a9       ?GetRuntimeClass@CFont@@UBEPAUCRuntimeClass@@XZ 100b73a9 f   mfc140:mfc140.dll
 0001:000b63af       ?Copy@CByteArray@@QAEXABV1@@Z 100b73af f   mfc140:mfc140.dll
 0001:000b63b5       ?GetThisMessageMap@CToolBar@@KGPBUAFX_MSGMAP@@XZ 100b73b5 f   mfc140:mfc140.dll
 0001:000b63bb       ?OnUpdateCmdUI@CToolBar@@UAEXPAVCFrameWnd@@H@Z 100b73bb f   mfc140:mfc140.dll
 0001:000b63c1       ?GetRuntimeClass@CToolBar@@UBEPAUCRuntimeClass@@XZ 100b73c1 f   mfc140:mfc140.dll
 0001:000b63c7       ?DestroyWindow@CControlBar@@UAEHXZ 100b73c7 f   mfc140:mfc140.dll
 0001:000b63cd       ?PreCreateWindow@CControlBar@@UAEHAAUtagCREATESTRUCTA@@@Z 100b73cd f   mfc140:mfc140.dll
 0001:000b63d3       ?OnToolHitTest@CToolBar@@UBEHVCPoint@@PAUtagTOOLINFOA@@@Z 100b73d3 f   mfc140:mfc140.dll
 0001:000b63d9       ?get_accName@CToolBar@@UAEJUtagVARIANT@@PAPA_W@Z 100b73d9 f   mfc140:mfc140.dll
 0001:000b63df       ?PreTranslateMessage@CControlBar@@UAEHPAUtagMSG@@@Z 100b73df f   mfc140:mfc140.dll
 0001:000b63e5       ?WindowProc@CControlBar@@UAEJIIJ@Z 100b73e5 f   mfc140:mfc140.dll
 0001:000b63eb       ?PostNcDestroy@CControlBar@@UAEXXZ 100b73eb f   mfc140:mfc140.dll
 0001:000b63f1       ?CalcFixedLayout@CToolBar@@UAE?AVCSize@@HH@Z 100b73f1 f   mfc140:mfc140.dll
 0001:000b63f7       ?CalcDynamicLayout@CToolBar@@UAE?AVCSize@@HK@Z 100b73f7 f   mfc140:mfc140.dll
 0001:000b63fd       ?CalcInsideRect@CControlBar@@UBEXAAVCRect@@H@Z 100b73fd f   mfc140:mfc140.dll
 0001:000b6403       ?DoPaint@CControlBar@@UAEXPAVCDC@@@Z 100b7403 f   mfc140:mfc140.dll
 0001:000b6409       ?DrawBorders@CControlBar@@UAEXPAVCDC@@AAVCRect@@@Z 100b7409 f   mfc140:mfc140.dll
 0001:000b640f       ?DrawGripper@CControlBar@@UAEXPAVCDC@@ABVCRect@@@Z 100b740f f   mfc140:mfc140.dll
 0001:000b6415       ?DrawNCGripper@CControlBar@@UAEXPAVCDC@@ABVCRect@@@Z 100b7415 f   mfc140:mfc140.dll
 0001:000b641b       ?DrawThemedGripper@CControlBar@@UAEHPAVCDC@@ABVCRect@@H@Z 100b741b f   mfc140:mfc140.dll
 0001:000b6421       ?DrawNonThemedGripper@CControlBar@@UAEHPAVCDC@@ABVCRect@@@Z 100b7421 f   mfc140:mfc140.dll
 0001:000b6427       ?DelayShow@CControlBar@@UAEXH@Z 100b7427 f   mfc140:mfc140.dll
 0001:000b642d       ?IsVisible@CControlBar@@UBEHXZ 100b742d f   mfc140:mfc140.dll
 0001:000b6433       ?RecalcDelayShow@CControlBar@@UAEKPAUAFX_SIZEPARENTPARAMS@@@Z 100b7433 f   mfc140:mfc140.dll
 0001:000b6439       ?IsDockBar@CControlBar@@UBEHXZ 100b7439 f   mfc140:mfc140.dll
 0001:000b643f       ?OnBarStyleChange@CToolBar@@UAEXKK@Z 100b743f f   mfc140:mfc140.dll
 0001:000b6445       ?SetStatusText@CControlBar@@UAEHH@Z 100b7445 f   mfc140:mfc140.dll
 0001:000b644b       ?Create@CToolBar@@UAEHPAVCWnd@@KI@Z 100b744b f   mfc140:mfc140.dll
 0001:000b6451       ?CreateEx@CToolBar@@UAEHPAVCWnd@@KKVCRect@@I@Z 100b7451 f   mfc140:mfc140.dll
 0001:000b6457       ?GetItemRect@CToolBar@@UBEXHPAUtagRECT@@@Z 100b7457 f   mfc140:mfc140.dll
 0001:000b645d       ?MeasureItem@CMenu@@UAEXPAUtagMEASUREITEMSTRUCT@@@Z 100b745d f   mfc140:mfc140.dll
 0001:000b6463       ?DrawItem@CMenu@@UAEXPAUtagDRAWITEMSTRUCT@@@Z 100b7463 f   mfc140:mfc140.dll
 0001:000b6469       ?GetRuntimeClass@CMenu@@UBEPAUCRuntimeClass@@XZ 100b7469 f   mfc140:mfc140.dll
 0001:000b646f       ?GetRuntimeClass@CPen@@UBEPAUCRuntimeClass@@XZ 100b746f f   mfc140:mfc140.dll
 0001:000b6475       ?CharToItem@CListBox@@UAEHII@Z 100b7475 f   mfc140:mfc140.dll
 0001:000b647b       ?VKeyToItem@CListBox@@UAEHII@Z 100b747b f   mfc140:mfc140.dll
 0001:000b6481       ?DeleteItem@CListBox@@UAEXPAUtagDELETEITEMSTRUCT@@@Z 100b7481 f   mfc140:mfc140.dll
 0001:000b6487       ?CompareItem@CListBox@@UAEHPAUtagCOMPAREITEMSTRUCT@@@Z 100b7487 f   mfc140:mfc140.dll
 0001:000b648d       ?MeasureItem@CListBox@@UAEXPAUtagMEASUREITEMSTRUCT@@@Z 100b748d f   mfc140:mfc140.dll
 0001:000b6493       ?DrawItem@CListBox@@UAEXPAUtagDRAWITEMSTRUCT@@@Z 100b7493 f   mfc140:mfc140.dll
 0001:000b6499       ?Create@CListBox@@UAEHKABUtagRECT@@PAVCWnd@@I@Z 100b7499 f   mfc140:mfc140.dll
 0001:000b649f       ?OnChildNotify@CListBox@@MAEHIIJPAJ@Z 100b749f f   mfc140:mfc140.dll
 0001:000b64a5       ?GetRuntimeClass@CListBox@@UBEPAUCRuntimeClass@@XZ 100b74a5 f   mfc140:mfc140.dll
 0001:000b64ab       ?Create@CScrollBar@@UAEHKABUtagRECT@@PAVCWnd@@I@Z 100b74ab f   mfc140:mfc140.dll
 0001:000b64b1       ?GetRuntimeClass@CScrollBar@@UBEPAUCRuntimeClass@@XZ 100b74b1 f   mfc140:mfc140.dll
 0001:000b64b7       ?DeleteItem@CComboBox@@UAEXPAUtagDELETEITEMSTRUCT@@@Z 100b74b7 f   mfc140:mfc140.dll
 0001:000b64bd       ?CompareItem@CComboBox@@UAEHPAUtagCOMPAREITEMSTRUCT@@@Z 100b74bd f   mfc140:mfc140.dll
 0001:000b64c3       ?MeasureItem@CComboBox@@UAEXPAUtagMEASUREITEMSTRUCT@@@Z 100b74c3 f   mfc140:mfc140.dll
 0001:000b64c9       ?DrawItem@CComboBox@@UAEXPAUtagDRAWITEMSTRUCT@@@Z 100b74c9 f   mfc140:mfc140.dll
 0001:000b64cf       ?Create@CComboBox@@UAEHKABUtagRECT@@PAVCWnd@@I@Z 100b74cf f   mfc140:mfc140.dll
 0001:000b64d5       ?OnChildNotify@CComboBox@@MAEHIIJPAJ@Z 100b74d5 f   mfc140:mfc140.dll
 0001:000b64db       ?GetRuntimeClass@CComboBox@@UBEPAUCRuntimeClass@@XZ 100b74db f   mfc140:mfc140.dll
 0001:000b64e1       ?GetThisMessageMap@CWnd@@KGPBUAFX_MSGMAP@@XZ 100b74e1 f   mfc140:mfc140.dll
 0001:000b64e7       ?OnChildNotify@CStatic@@MAEHIIJPAJ@Z 100b74e7 f   mfc140:mfc140.dll
 0001:000b64ed       ?DrawItem@CStatic@@UAEXPAUtagDRAWITEMSTRUCT@@@Z 100b74ed f   mfc140:mfc140.dll
 0001:000b64f3       ?Create@CStatic@@UAEHPBDKABUtagRECT@@PAVCWnd@@I@Z 100b74f3 f   mfc140:mfc140.dll
 0001:000b64f9       ?GetRuntimeClass@CStatic@@UBEPAUCRuntimeClass@@XZ 100b74f9 f   mfc140:mfc140.dll
 0001:000b64ff       ?GetRuntimeClass@CBitmap@@UBEPAUCRuntimeClass@@XZ 100b74ff f   mfc140:mfc140.dll
 0001:000b6505       ?OnGetCheckPosition@CCheckListBox@@UAE?AVCRect@@V2@0@Z 100b7505 f   mfc140:mfc140.dll
 0001:000b650b       ?MeasureItem@CCheckListBox@@UAEXPAUtagMEASUREITEMSTRUCT@@@Z 100b750b f   mfc140:mfc140.dll
 0001:000b6511       ?DrawItem@CCheckListBox@@UAEXPAUtagDRAWITEMSTRUCT@@@Z 100b7511 f   mfc140:mfc140.dll
 0001:000b6517       ?Create@CCheckListBox@@UAEHKABUtagRECT@@PAVCWnd@@I@Z 100b7517 f   mfc140:mfc140.dll
 0001:000b651d       ?OnChildNotify@CCheckListBox@@MAEHIIJPAJ@Z 100b751d f   mfc140:mfc140.dll
 0001:000b6523       ?accDoDefaultAction@CCheckListBox@@MAEJUtagVARIANT@@@Z 100b7523 f   mfc140:mfc140.dll
 0001:000b6529       ?get_accDefaultAction@CCheckListBox@@MAEJUtagVARIANT@@PAPA_W@Z 100b7529 f   mfc140:mfc140.dll
 0001:000b652f       ?get_accState@CCheckListBox@@MAEJUtagVARIANT@@PAU2@@Z 100b752f f   mfc140:mfc140.dll
 0001:000b6535       ?get_accRole@CCheckListBox@@MAEJUtagVARIANT@@PAU2@@Z 100b7535 f   mfc140:mfc140.dll
 0001:000b653b       ?GetMessageMap@CCheckListBox@@MBEPBUAFX_MSGMAP@@XZ 100b753b f   mfc140:mfc140.dll
 0001:000b6541       ?GetRuntimeClass@CCheckListBox@@UBEPAUCRuntimeClass@@XZ 100b7541 f   mfc140:mfc140.dll
 0001:000b6547       ?GetRuntimeClass@CEdit@@UBEPAUCRuntimeClass@@XZ 100b7547 f   mfc140:mfc140.dll
 0001:000b654d       ?CreateEx@CSpinButtonCtrl@@UAEHKKABUtagRECT@@PAVCWnd@@I@Z 100b754d f   mfc140:mfc140.dll
 0001:000b6553       ?Create@CSpinButtonCtrl@@UAEHKABUtagRECT@@PAVCWnd@@I@Z 100b7553 f   mfc140:mfc140.dll
 0001:000b6559       ?GetRuntimeClass@CSpinButtonCtrl@@UBEPAUCRuntimeClass@@XZ 100b7559 f   mfc140:mfc140.dll
 0001:000b655f       ?GetRuntimeClass@CObArray@@UBEPAUCRuntimeClass@@XZ 100b755f f   mfc140:mfc140.dll
 0001:000b6565       ?Serialize@CObArray@@UAEXAAVCArchive@@@Z 100b7565 f   mfc140:mfc140.dll
 0001:000b656b       @__security_check_cookie@4 100b756b f   msvcrt:secchk.obj
 0001:000b65a3       ??$__crt_fast_encode_pointer@P6GHPAU_RTL_CONDITION_VARIABLE@@PAU_RTL_CRITICAL_SECTION@@K@Z@@YAP6GHPAU_RTL_CONDITION_VARIABLE@@PAU_RTL_CRITICAL_SECTION@@K@ZQ6GH01K@Z@Z 100b75a3 f i msvcrt:thread_safe_statics.obj
 0001:000b65a3       ??$__crt_fast_encode_pointer@P6GXPAU_RTL_CONDITION_VARIABLE@@@Z@@YAP6GXPAU_RTL_CONDITION_VARIABLE@@@ZQ6GX0@Z@Z 100b75a3 f i msvcrt:thread_safe_statics.obj
 0001:000b66cb       __Init_thread_abort        100b76cb f   msvcrt:thread_safe_statics.obj
 0001:000b66ef       __Init_thread_footer       100b76ef f   msvcrt:thread_safe_statics.obj
 0001:000b6739       __Init_thread_header       100b7739 f   msvcrt:thread_safe_statics.obj
 0001:000b678b       __Init_thread_notify       100b778b f   msvcrt:thread_safe_statics.obj
 0001:000b67cd       __Init_thread_wait         100b77cd f   msvcrt:thread_safe_statics.obj
 0001:000b682d       ??_Etype_info@@UAEPAXI@Z   100b782d f i msvcrt:std_type_info_static.obj
 0001:000b682d       ??_Gtype_info@@UAEPAXI@Z   100b782d f i msvcrt:std_type_info_static.obj
 0001:000b6850       ??3@YAXPAXI@Z              100b7850 f   msvcrt:delete_scalar_size.obj
 0001:000b685e       ??_M@YGXPAXIIP6EX0@Z@Z     100b785e f   msvcrt:ehvecdtr.obj
 0001:000b68e3       ?__ArrayUnwind@@YGXPAXIIP6EX0@Z@Z 100b78e3 f   msvcrt:ehvecdtr.obj
 0001:000b695c       ??_V@YAXPAXI@Z             100b795c f   msvcrt:delete_array_size.obj
 0001:000b696a       ??_L@YGXPAXIIP6EX0@Z1@Z    100b796a f   msvcrt:ehvecctr.obj
 0001:000b6a22       ___scrt_acquire_startup_lock 100b7a22 f   msvcrt:utility.obj
 0001:000b6a54       ___scrt_dllmain_after_initialize_c 100b7a54 f   msvcrt:utility.obj
 0001:000b6a7f       ___scrt_dllmain_before_initialize_c 100b7a7f f   msvcrt:utility.obj
 0001:000b6a8d       ___scrt_dllmain_crt_thread_attach 100b7a8d f   msvcrt:utility.obj
 0001:000b6aac       ___scrt_dllmain_crt_thread_detach 100b7aac f   msvcrt:utility.obj
 0001:000b6ab9       ___scrt_dllmain_exception_filter 100b7ab9 f   msvcrt:utility.obj
 0001:000b6aed       ___scrt_dllmain_uninitialize_c 100b7aed f   msvcrt:utility.obj
 0001:000b6b10       ___scrt_dllmain_uninitialize_critical 100b7b10 f   msvcrt:utility.obj
 0001:000b6b1d       ___scrt_initialize_crt     100b7b1d f   msvcrt:utility.obj
 0001:000b6b56       ___scrt_initialize_onexit_tables 100b7b56 f   msvcrt:utility.obj
 0001:000b6bfb       ___scrt_is_nonwritable_in_current_image 100b7bfb f   msvcrt:utility.obj
 0001:000b6c8f       ___scrt_release_startup_lock 100b7c8f f   msvcrt:utility.obj
 0001:000b6cac       ___scrt_uninitialize_crt   100b7cac f   msvcrt:utility.obj
 0001:000b6cd4       __onexit                   100b7cd4 f   msvcrt:utility.obj
 0001:000b6d0f       _atexit                    100b7d0f f   msvcrt:utility.obj
 0001:000b6d24       ___raise_securityfailure   100b7d24 f   msvcrt:gs_report.obj
 0001:000b6d4c       ___report_gsfailure        100b7d4c f   msvcrt:gs_report.obj
 0001:000b6e45       ___report_rangecheckfailure 100b7e45 f   msvcrt:gs_report.obj
 0001:000b6e51       ___report_securityfailure  100b7e51 f   msvcrt:gs_report.obj
 0001:000b723f       __DllMainCRTStartup@12     100b823f f   msvcrt:dll_dllmain.obj
 0001:000b7270       __SEH_prolog4              100b8270 f   msvcrt:sehprolg4.obj
 0001:000b72b6       __SEH_epilog4              100b82b6 f   msvcrt:sehprolg4.obj
 0001:000b72d0       __SEH_prolog4_GS           100b82d0 f   msvcrt:sehprolg4gs.obj
 0001:000b7319       __SEH_epilog4_GS           100b8319 f   msvcrt:sehprolg4gs.obj
 0001:000b732a       __except_handler4          100b832a f   msvcrt:chandler4gs.obj
 0001:000b734d       ___scrt_fastfail           100b834d f   msvcrt:utility_desktop.obj
 0001:000b7467       __crt_debugger_hook        100b8467 f   msvcrt:utility_desktop.obj
 0001:000b746f       ___isa_available_init      100b846f f   msvcrt:cpu_disp.obj
 0001:000b7606       __get_startup_argv_mode    100b8606 f   msvcrt:argv_mode.obj
 0001:000b760a       ___scrt_is_ucrt_dll_in_use 100b860a f   msvcrt:ucrt_detection.obj
 0001:000b7663       ___security_init_cookie    100b8663 f   msvcrt:gs_support.obj
 0001:000b76ae       ?__scrt_initialize_type_info@@YAXXZ 100b86ae f   msvcrt:tncleanup.obj
 0001:000b76ba       ?__scrt_uninitialize_type_info@@YAXXZ 100b86ba f   msvcrt:tncleanup.obj
 0001:000b76c6       ___scrt_initialize_default_local_stdio_options 100b86c6 f   msvcrt:default_local_stdio_options.obj
 0001:000b76e3       ___scrt_get_dyn_tls_init_callback 100b86e3 f   msvcrt:dyn_tls_init.obj
 0001:000b76e9       __RTC_Initialize           100b86e9 f   msvcrt:initsect.obj
 0001:000b7715       __RTC_Terminate            100b8715 f   msvcrt:initsect.obj
 0001:000b7741       _IsProcessorFeaturePresent@4 100b8741 f   kernel32:KERNEL32.dll
 0001:000b7747       ??0CAtlBaseModule@ATL@@QAE@XZ 100b8747 f   atls:atlbase.obj
 0001:000b779a       ??0_ATL_BASE_MODULE70@ATL@@QAE@XZ 100b879a f i atls:atlbase.obj
 0001:000b77bd       ??1CAtlBaseModule@ATL@@QAE@XZ 100b87bd f   atls:atlbase.obj
 0001:000b77d3       ?RemoveAll@?$CSimpleArray@PAUHINSTANCE__@@V?$CSimpleArrayEqualHelper@PAUHINSTANCE__@@@ATL@@@ATL@@QAEXXZ 100b87d3 f i atls:atlbase.obj
 0001:000b77f0       ?Create@CXTCaption@@EAEHPBD0KABUtagRECT@@PAVCWnd@@IPAUCCreateContext@@@Z 100b87f0 f   CTPM150v980:CTPM150v980.dll
 0001:000b77f6       ?OnWndMsg@CXTCaption@@MAEHIIJPAJ@Z 100b87f6 f   CTPM150v980:CTPM150v980.dll
 0001:000b77fc       ?Create@CXTCaption@@EAEHPBDKABUtagRECT@@PAVCWnd@@I@Z 100b87fc f   CTPM150v980:CTPM150v980.dll
 0001:000b7802       ?SetCaptionColors@CXTCaption@@UAEXKKK@Z 100b8802 f   CTPM150v980:CTPM150v980.dll
 0001:000b7808       ?ModifyCaptionStyle@CXTCaption@@UAEXHPAVCFont@@PBDPAUHICON__@@@Z 100b8808 f   CTPM150v980:CTPM150v980.dll
 0001:000b780e       ?SetChildWindow@CXTCaption@@UAEXPAVCWnd@@0@Z 100b880e f   CTPM150v980:CTPM150v980.dll
 0001:000b7814       ?KillChildWindow@CXTCaption@@UAEXXZ 100b8814 f   CTPM150v980:CTPM150v980.dll
 0001:000b781a       ?ShowPopupWindow@CXTCaption@@UAEHXZ 100b881a f   CTPM150v980:CTPM150v980.dll
 0001:000b7820       ?Create@CXTCaption@@UAEHPAVCWnd@@PBDKKABVCRect@@I@Z 100b8820 f   CTPM150v980:CTPM150v980.dll
 0001:000b7826       ?UpdateCaptionText@CXTCaption@@MAEXPAVCDC@@@Z 100b8826 f   CTPM150v980:CTPM150v980.dll
 0001:000b782c       ?GetButtonRect@CXTCaption@@MBE?AVCRect@@XZ 100b882c f   CTPM150v980:CTPM150v980.dll
 0001:000b7832       ?CreateThemeFactory@CXTThemeManagerStyleHost@@MAEPAVCXTThemeManagerStyleFactory@@XZ 100b8832 f   CTPM150v980:CTPM150v980.dll
 0001:000b7838       ?OnThemeChanged@CXTThemeManagerStyleHost@@MAEXXZ 100b8838 f   CTPM150v980:CTPM150v980.dll
 0001:000b783e       ___CxxFrameHandler3        100b883e f   vcruntime:VCRUNTIME140.dll
 0001:000b7844       ___std_terminate           100b8844 f   vcruntime:VCRUNTIME140.dll
 0001:000b784a       _memset                    100b884a f   vcruntime:VCRUNTIME140.dll
 0001:000b7850       __except_handler4_common   100b8850 f   vcruntime:VCRUNTIME140.dll
 0001:000b7856       ___std_type_info_destroy_list 100b8856 f   vcruntime:VCRUNTIME140.dll
 0001:000b785c       _memmove                   100b885c f   vcruntime:VCRUNTIME140.dll
 0001:000b7862       _free                      100b8862 f   ucrt:api-ms-win-crt-heap-l1-1-0.dll
 0001:000b7868       _terminate                 100b8868 f   ucrt:api-ms-win-crt-runtime-l1-1-0.dll
 0001:000b786e       __seh_filter_dll           100b886e f   ucrt:api-ms-win-crt-runtime-l1-1-0.dll
 0001:000b7874       __configure_narrow_argv    100b8874 f   ucrt:api-ms-win-crt-runtime-l1-1-0.dll
 0001:000b787a       __initialize_narrow_environment 100b887a f   ucrt:api-ms-win-crt-runtime-l1-1-0.dll
 0001:000b7880       __initialize_onexit_table  100b8880 f   ucrt:api-ms-win-crt-runtime-l1-1-0.dll
 0001:000b7886       __register_onexit_function 100b8886 f   ucrt:api-ms-win-crt-runtime-l1-1-0.dll
 0001:000b788c       __execute_onexit_table     100b888c f   ucrt:api-ms-win-crt-runtime-l1-1-0.dll
 0001:000b7892       __crt_atexit               100b8892 f   ucrt:api-ms-win-crt-runtime-l1-1-0.dll
 0001:000b7898       __cexit                    100b8898 f   ucrt:api-ms-win-crt-runtime-l1-1-0.dll
 0001:000b789e       __initterm                 100b889e f   ucrt:api-ms-win-crt-runtime-l1-1-0.dll
 0001:000b78a4       __initterm_e               100b88a4 f   ucrt:api-ms-win-crt-runtime-l1-1-0.dll
 0001:000b78aa       ___scrt_stub_for_acrt_uninitialize 100b88aa f   msvcrt:ucrt_stubs.obj
 0001:000b78aa       ___vcrt_thread_attach      100b88aa f   msvcrt:ucrt_stubs.obj
 0001:000b78aa       ___acrt_initialize         100b88aa f   msvcrt:ucrt_stubs.obj
 0001:000b78aa       ___acrt_thread_detach      100b88aa f   msvcrt:ucrt_stubs.obj
 0001:000b78aa       ___acrt_uninitialize_critical 100b88aa f   msvcrt:ucrt_stubs.obj
 0001:000b78aa       ___scrt_stub_for_acrt_thread_attach 100b88aa f   msvcrt:ucrt_stubs.obj
 0001:000b78aa       ___scrt_stub_for_acrt_thread_detach 100b88aa f   msvcrt:ucrt_stubs.obj
 0001:000b78aa       ___scrt_stub_for_acrt_uninitialize_critical 100b88aa f   msvcrt:ucrt_stubs.obj
 0001:000b78aa       ___vcrt_uninitialize       100b88aa f   msvcrt:ucrt_stubs.obj
 0001:000b78aa       ___vcrt_thread_detach      100b88aa f   msvcrt:ucrt_stubs.obj
 0001:000b78aa       ___scrt_stub_for_acrt_initialize 100b88aa f   msvcrt:ucrt_stubs.obj
 0001:000b78aa       ___vcrt_uninitialize_critical 100b88aa f   msvcrt:ucrt_stubs.obj
 0001:000b78aa       ___vcrt_initialize         100b88aa f   msvcrt:ucrt_stubs.obj
 0001:000b78aa       ___acrt_uninitialize       100b88aa f   msvcrt:ucrt_stubs.obj
 0001:000b78aa       ___acrt_thread_attach      100b88aa f   msvcrt:ucrt_stubs.obj
 0001:000b78b0       __alldiv                   100b88b0 f   msvcrt:lldiv.obj
 0001:000b7960       __alldvrm                  100b8960 f   msvcrt:lldvrm.obj
 0001:000b7a40       __allmul                   100b8a40 f   msvcrt:llmul.obj
 0001:000b7a80       __alloca_probe             100b8a80 f   msvcrt:chkstk.obj
 0001:000b7a80       __chkstk                   100b8a80 f   msvcrt:chkstk.obj
 0001:000b7ab0       __ftoui3                   100b8ab0 f   msvcrt:ftol3.obj
 0001:000b7abf       __ftoul3                   100b8abf f   msvcrt:ftol3.obj
 0001:000b7ace       __ftol3                    100b8ace f   msvcrt:ftol3.obj
 0001:000b7adb       __ftol3_NaN                100b8adb f   msvcrt:ftol3.obj
 0001:000b7af3       __ftol3_work               100b8af3 f   msvcrt:ftol3.obj
 0001:000b7b79       __ftol3_common             100b8b79 f   msvcrt:ftol3.obj
 0001:000b7c3b       __ftol3_arg_error          100b8c3b f   msvcrt:ftol3.obj
 0001:000b7c4d       __ftol3_except             100b8c4d f   msvcrt:ftol3.obj
 0001:000b7c91       __dtoui3                   100b8c91 f   msvcrt:ftol3.obj
 0001:000b7ca0       __dtoul3                   100b8ca0 f   msvcrt:ftol3.obj
 0001:000b7caf       __dtol3                    100b8caf f   msvcrt:ftol3.obj
 0001:000b7cbc       __dtol3_NaN                100b8cbc f   msvcrt:ftol3.obj
 0001:000b7cd9       __dtol3_work               100b8cd9 f   msvcrt:ftol3.obj
 0001:000b7dc0       __ultod3                   100b8dc0 f   msvcrt:ftol3.obj
 0001:000b7e00       __ltod3                    100b8e00 f   msvcrt:ftol3.obj
 0001:000b7e27       __CxxThrowException@8      100b8e27 f   vcruntime:VCRUNTIME140.dll
 0001:000b7e2d       _memcpy                    100b8e2d f   vcruntime:VCRUNTIME140.dll
 0001:000b7e33       __except1                  100b8e33 f   ucrt:api-ms-win-crt-math-l1-1-0.dll
 0002:00000000       __imp__RegQueryValueExA@24 100c3000     advapi32:ADVAPI32.dll
 0002:00000004       __imp__RegOpenKeyExA@20    100c3004     advapi32:ADVAPI32.dll
 0002:00000008       \177ADVAPI32_NULL_THUNK_DATA 100c3008     advapi32:ADVAPI32.dll
 0002:0000000c       __imp__ImageList_GetImageCount@4 100c300c     comctl32:COMCTL32.dll
 0002:00000010       __imp__ImageList_GetIcon@12 100c3010     comctl32:COMCTL32.dll
 0002:00000014       \177COMCTL32_NULL_THUNK_DATA 100c3014     comctl32:COMCTL32.dll
 0002:00000018       __imp_?OnThemeChanged@CXTThemeManagerStyleHost@@MAEXXZ 100c3018     CTPM150v980:CTPM150v980.dll
 0002:0000001c       __imp_?OnWndMsg@CXTCaption@@MAEHIIJPAJ@Z 100c301c     CTPM150v980:CTPM150v980.dll
 0002:00000020       __imp_?CreateThemeFactory@CXTThemeManagerStyleHost@@MAEPAVCXTThemeManagerStyleFactory@@XZ 100c3020     CTPM150v980:CTPM150v980.dll
 0002:00000024       __imp_?GetThisClass@CXTCaption@@SGPAUCRuntimeClass@@XZ 100c3024     CTPM150v980:CTPM150v980.dll
 0002:00000028       __imp_?Create@CXTCaption@@EAEHPBD0KABUtagRECT@@PAVCWnd@@IPAUCCreateContext@@@Z 100c3028     CTPM150v980:CTPM150v980.dll
 0002:0000002c       __imp_?UpdateCaptionText@CXTCaption@@MAEXPAVCDC@@@Z 100c302c     CTPM150v980:CTPM150v980.dll
 0002:00000030       __imp_?Create@CXTCaption@@EAEHPBDKABUtagRECT@@PAVCWnd@@I@Z 100c3030     CTPM150v980:CTPM150v980.dll
 0002:00000034       __imp_?SetCaptionColors@CXTCaption@@UAEXKKK@Z 100c3034     CTPM150v980:CTPM150v980.dll
 0002:00000038       __imp_?ModifyCaptionStyle@CXTCaption@@UAEXHPAVCFont@@PBDPAUHICON__@@@Z 100c3038     CTPM150v980:CTPM150v980.dll
 0002:0000003c       __imp_?SetChildWindow@CXTCaption@@UAEXPAVCWnd@@0@Z 100c303c     CTPM150v980:CTPM150v980.dll
 0002:00000040       __imp_?KillChildWindow@CXTCaption@@UAEXXZ 100c3040     CTPM150v980:CTPM150v980.dll
 0002:00000044       __imp_?ShowPopupWindow@CXTCaption@@UAEHXZ 100c3044     CTPM150v980:CTPM150v980.dll
 0002:00000048       __imp_?Create@CXTCaption@@UAEHPAVCWnd@@PBDKKABVCRect@@I@Z 100c3048     CTPM150v980:CTPM150v980.dll
 0002:0000004c       __imp_?GetButtonRect@CXTCaption@@MBE?AVCRect@@XZ 100c304c     CTPM150v980:CTPM150v980.dll
 0002:00000050       \177CTPM150v980_NULL_THUNK_DATA 100c3050     CTPM150v980:CTPM150v980.dll
 0002:00000054       __imp__CreateSolidBrush@4  100c3054     gdi32:GDI32.dll
 0002:00000058       __imp__StretchBlt@44       100c3058     gdi32:GDI32.dll
 0002:0000005c       __imp__SelectObject@8      100c305c     gdi32:GDI32.dll
 0002:00000060       __imp__CreateBitmap@20     100c3060     gdi32:GDI32.dll
 0002:00000064       __imp__CreateCompatibleDC@4 100c3064     gdi32:GDI32.dll
 0002:00000068       __imp__CreateFontIndirectA@4 100c3068     gdi32:GDI32.dll
 0002:0000006c       __imp__GetTextExtentPoint32A@16 100c306c     gdi32:GDI32.dll
 0002:00000070       __imp__GetObjectA@12       100c3070     gdi32:GDI32.dll
 0002:00000074       __imp__GetDeviceCaps@8     100c3074     gdi32:GDI32.dll
 0002:00000078       \177GDI32_NULL_THUNK_DATA  100c3078     gdi32:GDI32.dll
 0002:0000007c       __imp_??0CArith@@QAE@H@Z   100c307c     ICS15_ARITH:ICS15_ARITH.dll
 0002:00000080       __imp_?l_print@CArith@@QAEPAXPAX00@Z 100c3080     ICS15_ARITH:ICS15_ARITH.dll
 0002:00000084       __imp_?l_input@CArith@@QAEPAXPAX0@Z 100c3084     ICS15_ARITH:ICS15_ARITH.dll
 0002:00000088       __imp_?l_test@CArith@@QAEHPAX@Z 100c3088     ICS15_ARITH:ICS15_ARITH.dll
 0002:0000008c       __imp__l_test@4            100c308c     ICS15_ARITH:ICS15_ARITH.dll
 0002:00000090       __imp__l_clear@4           100c3090     ICS15_ARITH:ICS15_ARITH.dll
 0002:00000094       __imp__l_cmp@8             100c3094     ICS15_ARITH:ICS15_ARITH.dll
 0002:00000098       __imp_?l_pack@CArith@@QAEPAXPAX0H@Z 100c3098     ICS15_ARITH:ICS15_ARITH.dll
 0002:0000009c       __imp_?l_cmp@CArith@@QAEHPAX0@Z 100c309c     ICS15_ARITH:ICS15_ARITH.dll
 0002:000000a0       __imp__l_sub@12            100c30a0     ICS15_ARITH:ICS15_ARITH.dll
 0002:000000a4       __imp__l_neg@4             100c30a4     ICS15_ARITH:ICS15_ARITH.dll
 0002:000000a8       __imp__l_defn@4            100c30a8     ICS15_ARITH:ICS15_ARITH.dll
 0002:000000ac       __imp__l_input@8           100c30ac     ICS15_ARITH:ICS15_ARITH.dll
 0002:000000b0       __imp__l_jsgn@12           100c30b0     ICS15_ARITH:ICS15_ARITH.dll
 0002:000000b4       __imp__l_add@12            100c30b4     ICS15_ARITH:ICS15_ARITH.dll
 0002:000000b8       __imp__l_print@12          100c30b8     ICS15_ARITH:ICS15_ARITH.dll
 0002:000000bc       __imp__l_pack@12           100c30bc     ICS15_ARITH:ICS15_ARITH.dll
 0002:000000c0       \177ICS15_ARITH_NULL_THUNK_DATA 100c30c0     ICS15_ARITH:ICS15_ARITH.dll
 0002:000000c4       __imp_?GetTekiyoList@AnalyzeAJ@@QAEHPAHV?$CStringT@DV?$StrTraitMFC_DLL@DV?$ChTraitsCRT@D@ATL@@@@@ATL@@HAAV?$deque@V?$CStringT@DV?$StrTraitMFC_DLL@DV?$ChTraitsCRT@D@ATL@@@@@ATL@@V?$allocator@V?$CStringT@DV?$StrTraitMFC_DLL@DV?$ChTraitsCRT@D@ATL@@@@@ATL@@@std@@@std@@@Z 100c30c4     ICS15_AnalyzeAJ:ICS15_AnalyzeAJ.dll
 0002:000000c8       __imp_?GetTekiyoList@AnalyzeAJ@@QAEHV?$CStringT@DV?$StrTraitMFC_DLL@DV?$ChTraitsCRT@D@ATL@@@@@ATL@@HAAV?$deque@V?$CStringT@DV?$StrTraitMFC_DLL@DV?$ChTraitsCRT@D@ATL@@@@@ATL@@V?$allocator@V?$CStringT@DV?$StrTraitMFC_DLL@DV?$ChTraitsCRT@D@ATL@@@@@ATL@@@std@@@std@@@Z 100c30c8     ICS15_AnalyzeAJ:ICS15_AnalyzeAJ.dll
 0002:000000cc       __imp_?GetTekiyoList2@AnalyzeAJ@@QAEHPAHV?$CStringT@DV?$StrTraitMFC_DLL@DV?$ChTraitsCRT@D@ATL@@@@@ATL@@HAAV?$deque@V?$CStringT@DV?$StrTraitMFC_DLL@DV?$ChTraitsCRT@D@ATL@@@@@ATL@@V?$allocator@V?$CStringT@DV?$StrTraitMFC_DLL@DV?$ChTraitsCRT@D@ATL@@@@@ATL@@@std@@@std@@@Z 100c30cc     ICS15_AnalyzeAJ:ICS15_AnalyzeAJ.dll
 0002:000000d0       \177ICS15_AnalyzeAJ_NULL_THUNK_DATA 100c30d0     ICS15_AnalyzeAJ:ICS15_AnalyzeAJ.dll
 0002:000000d4       __imp_?GetGroupCaption@ICSReportRecordItem@@UAE?AV?$CStringT@DV?$StrTraitMFC_DLL@DV?$ChTraitsCRT@D@ATL@@@@@ATL@@PAVICSReportColumn@@@Z 100c30d4     ICS15_GEN:ICS15_GEN.dll
 0002:000000d8       __imp_?GetGroupCaptionID@ICSReportRecordItem@@UAEHPAVICSReportColumn@@@Z 100c30d8     ICS15_GEN:ICS15_GEN.dll
 0002:000000dc       __imp_?CompareGroupCaption@ICSReportRecordItem@@UAEHPAVICSReportColumn@@PAV1@@Z 100c30dc     ICS15_GEN:ICS15_GEN.dll
 0002:000000e0       __imp_?Compare@ICSReportRecordItem@@UAEHPAVICSReportColumn@@PAV1@@Z 100c30e0     ICS15_GEN:ICS15_GEN.dll
 0002:000000e4       __imp_?SetFont@ICSReportRecordItem@@UAEXPAVCFont@@@Z 100c30e4     ICS15_GEN:ICS15_GEN.dll
 0002:000000e8       __imp_?GetFont@ICSReportRecordItem@@UAEPAVCFont@@XZ 100c30e8     ICS15_GEN:ICS15_GEN.dll
 0002:000000ec       __imp_?SetBold@ICSReportRecordItem@@UAEXH@Z 100c30ec     ICS15_GEN:ICS15_GEN.dll
 0002:000000f0       __imp_?GetFormatString@ICSReportRecordItem@@UAE?AV?$CStringT@DV?$StrTraitMFC_DLL@DV?$ChTraitsCRT@D@ATL@@@@@ATL@@XZ 100c30f0     ICS15_GEN:ICS15_GEN.dll
 0002:000000f4       __imp_?SetFormatString@ICSReportRecordItem@@UAE?AV?$CStringT@DV?$StrTraitMFC_DLL@DV?$ChTraitsCRT@D@ATL@@@@@ATL@@V23@@Z 100c30f4     ICS15_GEN:ICS15_GEN.dll
 0002:000000f8       __imp_?IsEditable@ICSReportRecordItem@@UAEHXZ 100c30f8     ICS15_GEN:ICS15_GEN.dll
 0002:000000fc       __imp_?SetEditable@ICSReportRecordItem@@UAEHH@Z 100c30fc     ICS15_GEN:ICS15_GEN.dll
 0002:00000100       __imp_?GetItemMetrics@ICSReportRecordItem@@UAEXPAUICS_REPORTRECORDITEM_DRAWARGS@@PAUICS_REPORTRECORDITEM_METRICS@@@Z 100c3100     ICS15_GEN:ICS15_GEN.dll
 0002:00000104       __imp_?IsPreviewItem@ICSReportRecordItem@@UBEHXZ 100c3104     ICS15_GEN:ICS15_GEN.dll
 0002:00000108       __imp_?SetChecked@ICSReportRecordItem@@UAEXH@Z 100c3108     ICS15_GEN:ICS15_GEN.dll
 0002:0000010c       __imp_?IsChecked@ICSReportRecordItem@@UBEHXZ 100c310c     ICS15_GEN:ICS15_GEN.dll
 0002:00000110       __imp_?DrawCheckBox@ICSReportRecordItem@@MAEXPAUICS_REPORTRECORDITEM_DRAWARGS@@AAVCRect@@@Z 100c3110     ICS15_GEN:ICS15_GEN.dll
 0002:00000114       __imp_?OnBeginEdit@ICSReportRecordItem@@MAEXPAUICS_REPORTRECORDITEM_ARGS@@@Z 100c3114     ICS15_GEN:ICS15_GEN.dll
 0002:00000118       __imp_?OnCancelEdit@ICSReportRecordItem@@MAEXPAVICSReportControl@@HPAVICSReportColumn@@@Z 100c3118     ICS15_GEN:ICS15_GEN.dll
 0002:0000011c       __imp_?OnChar@ICSReportRecordItem@@MAEHPAUICS_REPORTRECORDITEM_ARGS@@I@Z 100c311c     ICS15_GEN:ICS15_GEN.dll
 0002:00000120       __imp_?OnValidateEdit@ICSReportRecordItem@@UAEXPAUICS_REPORTRECORDITEM_ARGS@@@Z 100c3120     ICS15_GEN:ICS15_GEN.dll
 0002:00000124       __imp_?OnEditChanged@ICSReportRecordItemText@@UAEXPAUICS_REPORTRECORDITEM_ARGS@@PBD@Z 100c3124     ICS15_GEN:ICS15_GEN.dll
 0002:00000128       __imp_?OnConstraintChanged@ICSReportRecordItem@@UAEXPAUICS_REPORTRECORDITEM_ARGS@@PAVICSReportRecordItemConstraint@@@Z 100c3128     ICS15_GEN:ICS15_GEN.dll
 0002:0000012c       __imp_?GetSelectedConstraintData@ICSReportRecordItem@@UAEKPAUICS_REPORTRECORDITEM_ARGS@@@Z 100c312c     ICS15_GEN:ICS15_GEN.dll
 0002:00000130       __imp_?OnInplaceButtonDown@ICSReportRecordItem@@UAEXPAVICSReportInplaceButton@@H@Z 100c3130     ICS15_GEN:ICS15_GEN.dll
 0002:00000134       __imp_?OnInplaceButtonDown@ICSReportRecordItem@@UAEXPAVICSReportInplaceButton@@@Z 100c3134     ICS15_GEN:ICS15_GEN.dll
 0002:00000138       __imp_??1ICSReportRecordItemText@@UAE@XZ 100c3138     ICS15_GEN:ICS15_GEN.dll
 0002:0000013c       __imp_??1ICSTabCtrl@@UAE@XZ 100c313c     ICS15_GEN:ICS15_GEN.dll
 0002:00000140       __imp_?GetRate@ICSResize@@QAEXAAN0@Z 100c3140     ICS15_GEN:ICS15_GEN.dll
 0002:00000144       __imp_?FixKmkBackColor@ICSColorInfo@@QAEKXZ 100c3144     ICS15_GEN:ICS15_GEN.dll
 0002:00000148       __imp_?FixKmkTextColor@ICSColorInfo@@QAEKXZ 100c3148     ICS15_GEN:ICS15_GEN.dll
 0002:0000014c       __imp_?ViewColor@ICSColorInfo@@QAEKXZ 100c314c     ICS15_GEN:ICS15_GEN.dll
 0002:00000150       __imp_?GetTekiyoKeyMode@ICSWinApp@@QAEHXZ 100c3150     ICS15_GEN:ICS15_GEN.dll
 0002:00000154       __imp_?GetOptionInt@ICSWinApp@@QAEHPBD0H@Z 100c3154     ICS15_GEN:ICS15_GEN.dll
 0002:00000158       __imp_?DefaultColor@ICSStatic@@QAEXH@Z 100c3158     ICS15_GEN:ICS15_GEN.dll
 0002:0000015c       __imp_?SetBackColor@ICSStatic@@QAEXK@Z 100c315c     ICS15_GEN:ICS15_GEN.dll
 0002:00000160       __imp_?OnSize@ICSDialog@@QAEXIHH@Z 100c3160     ICS15_GEN:ICS15_GEN.dll
 0002:00000164       __imp_?OnMouseWheel@ICSDialog@@QAEHIFVCPoint@@@Z 100c3164     ICS15_GEN:ICS15_GEN.dll
 0002:00000168       __imp_??0ICSStatic@@QAE@XZ 100c3168     ICS15_GEN:ICS15_GEN.dll
 0002:0000016c       __imp_??1ICSStatic@@UAE@XZ 100c316c     ICS15_GEN:ICS15_GEN.dll
 0002:00000170       __imp_?GetThisMessageMap@ICSStatic@@KGPBUAFX_MSGMAP@@XZ 100c3170     ICS15_GEN:ICS15_GEN.dll
 0002:00000174       __imp_?SetIcon@ICSStatic@@QAEXPAUHICON__@@H@Z 100c3174     ICS15_GEN:ICS15_GEN.dll
 0002:00000178       __imp_?DrawCaptionText@ICSStatic@@UAEXPAVCDC@@@Z 100c3178     ICS15_GEN:ICS15_GEN.dll
 0002:0000017c       __imp_?DrawCaptionIcon@ICSStatic@@UAEXPAVCDC@@AAVCRect@@@Z 100c317c     ICS15_GEN:ICS15_GEN.dll
 0002:00000180       __imp_?PreSubclassWindow@ICSStatic@@UAEXXZ 100c3180     ICS15_GEN:ICS15_GEN.dll
 0002:00000184       __imp_?UpdateCaption@ICSStatic@@UAEXPBDPAUHICON__@@@Z 100c3184     ICS15_GEN:ICS15_GEN.dll
 0002:00000188       __imp_?DrawCaptionBack@ICSStatic@@UAEXPAVCDC@@AAVCRect@@@Z 100c3188     ICS15_GEN:ICS15_GEN.dll
 0002:0000018c       __imp_?RemoveAll@ICSReportRecords@@QAEXXZ 100c318c     ICS15_GEN:ICS15_GEN.dll
 0002:00000190       __imp_?GetCaptionRect@ICSReportRecordItem@@UAEXPAUICS_REPORTRECORDITEM_ARGS@@AAVCRect@@@Z 100c3190     ICS15_GEN:ICS15_GEN.dll
 0002:00000194       __imp_??0ICSReportRecordItemText@@QAE@PBDIHHHHH@Z 100c3194     ICS15_GEN:ICS15_GEN.dll
 0002:00000198       __imp_?GetCount@ICSReportRecords@@QBEHXZ 100c3198     ICS15_GEN:ICS15_GEN.dll
 0002:0000019c       __imp_?SetGridPerCount@ICSReportControl@@QAEXHHKW4ICSReportGridStyle@@@Z 100c319c     ICS15_GEN:ICS15_GEN.dll
 0002:000001a0       __imp_?EnableResetColumnWidth@ICSReportControl@@QAEXH@Z 100c31a0     ICS15_GEN:ICS15_GEN.dll
 0002:000001a4       __imp_?GetFocusedRow@ICSReportControl@@QBEPAVICSReportRow@@XZ 100c31a4     ICS15_GEN:ICS15_GEN.dll
 0002:000001a8       __imp_?GetAt@ICSReportColumns@@QBEPAVICSReportColumn@@H@Z 100c31a8     ICS15_GEN:ICS15_GEN.dll
 0002:000001ac       __imp_?GetIndex@ICSReportRow@@QBEHXZ 100c31ac     ICS15_GEN:ICS15_GEN.dll
 0002:000001b0       __imp_?GetIndex@ICSReportColumn@@QBEHXZ 100c31b0     ICS15_GEN:ICS15_GEN.dll
 0002:000001b4       __imp_?SetCaption@ICSReportControl@@QAEXHHPBD@Z 100c31b4     ICS15_GEN:ICS15_GEN.dll
 0002:000001b8       __imp_?SetFocusedRow@ICSReportControl@@QAEXPAVICSReportRow@@H@Z 100c31b8     ICS15_GEN:ICS15_GEN.dll
 0002:000001bc       __imp_?GetAt@ICSReportRows@@QBEPAVICSReportRow@@H@Z 100c31bc     ICS15_GEN:ICS15_GEN.dll
 0002:000001c0       __imp_?GetIndex@ICSReportRecordItem@@QBEHXZ 100c31c0     ICS15_GEN:ICS15_GEN.dll
 0002:000001c4       __imp_?GetleftOffset@ICSReportControl@@QAEHXZ 100c31c4     ICS15_GEN:ICS15_GEN.dll
 0002:000001c8       __imp_?SetLeftOffset@ICSReportControl@@QAEXH@Z 100c31c8     ICS15_GEN:ICS15_GEN.dll
 0002:000001cc       __imp_?RemoveRecordAt@ICSReportControl@@QAEXH@Z 100c31cc     ICS15_GEN:ICS15_GEN.dll
 0002:000001d0       __imp_?InsertRecordAt@ICSReportControl@@QAEXHPAVICSReportRecord@@@Z 100c31d0     ICS15_GEN:ICS15_GEN.dll
 0002:000001d4       __imp_?GetCaption@ICSReportControl@@QAE?AV?$CStringT@DV?$StrTraitMFC_DLL@DV?$ChTraitsCRT@D@ATL@@@@@ATL@@HH@Z 100c31d4     ICS15_GEN:ICS15_GEN.dll
 0002:000001d8       __imp_?SetCaretPosition@ICSReportControl@@QAEXH@Z 100c31d8     ICS15_GEN:ICS15_GEN.dll
 0002:000001dc       __imp_?SetRowBackColor@ICSReportControl@@QAEXHKH@Z 100c31dc     ICS15_GEN:ICS15_GEN.dll
 0002:000001e0       __imp_?AllowEditColumn@ICSReportControl@@QAEXHH@Z 100c31e0     ICS15_GEN:ICS15_GEN.dll
 0002:000001e4       __imp_?SetColumnBackColor@ICSReportControl@@QAEXHKH@Z 100c31e4     ICS15_GEN:ICS15_GEN.dll
 0002:000001e8       __imp_?SetFocusedRow@ICSReportControl@@QAEXHH@Z 100c31e8     ICS15_GEN:ICS15_GEN.dll
 0002:000001ec       __imp_?GetSelectedRowsCount@ICSReportControl@@QAEHXZ 100c31ec     ICS15_GEN:ICS15_GEN.dll
 0002:000001f0       __imp_?SetTopRow@ICSReportControl@@QAEXH@Z 100c31f0     ICS15_GEN:ICS15_GEN.dll
 0002:000001f4       __imp_?IsContainSelectedRow@ICSReportControl@@QAEHH@Z 100c31f4     ICS15_GEN:ICS15_GEN.dll
 0002:000001f8       __imp_?Remove@ICSReportSelectedRows@@QAEXPAVICSReportRow@@@Z 100c31f8     ICS15_GEN:ICS15_GEN.dll
 0002:000001fc       __imp_?GetCount@ICSReportRows@@QBEHXZ 100c31fc     ICS15_GEN:ICS15_GEN.dll
 0002:00000200       __imp_?MovePageDown@ICSReportControl@@QAEXHH@Z 100c3200     ICS15_GEN:ICS15_GEN.dll
 0002:00000204       __imp_?MovePageUp@ICSReportControl@@QAEXHH@Z 100c3204     ICS15_GEN:ICS15_GEN.dll
 0002:00000208       __imp_??0ICSTabCtrl@@QAE@XZ 100c3208     ICS15_GEN:ICS15_GEN.dll
 0002:0000020c       __imp_?GetCurSel@ICSTabManager@@QAEHXZ 100c320c     ICS15_GEN:ICS15_GEN.dll
 0002:00000210       __imp_?InsertItem@ICSTabCtrl@@QAEHHPBDPAUHWND__@@H@Z 100c3210     ICS15_GEN:ICS15_GEN.dll
 0002:00000214       __imp_?SetAppearance@ICSTabCtrl@@QAEXH@Z 100c3214     ICS15_GEN:ICS15_GEN.dll
 0002:00000218       __imp_?SetOneNoteColors@ICSTabCtrl@@QAEXH@Z 100c3218     ICS15_GEN:ICS15_GEN.dll
 0002:0000021c       __imp_?SetColorSet@ICSTabCtrl@@QAEXH@Z 100c321c     ICS15_GEN:ICS15_GEN.dll
 0002:00000220       __imp_?BoldSelected@ICSTabCtrl@@QAEXH@Z 100c3220     ICS15_GEN:ICS15_GEN.dll
 0002:00000224       __imp_?SetResize@ICSResize@@QAEXIK@Z 100c3224     ICS15_GEN:ICS15_GEN.dll
 0002:00000228       __imp_??1ICSReportColumn@@UAE@XZ 100c3228     ICS15_GEN:ICS15_GEN.dll
 0002:0000022c       __imp_?SetDraggable@ICSReportControl@@QAEXH@Z 100c322c     ICS15_GEN:ICS15_GEN.dll
 0002:00000230       __imp_?SetItemHeight@ICSReportControl@@QAEHH@Z 100c3230     ICS15_GEN:ICS15_GEN.dll
 0002:00000234       __imp_?SetHeaderHeight@ICSReportControl@@QAEHH@Z 100c3234     ICS15_GEN:ICS15_GEN.dll
 0002:00000238       __imp_?SetHeaderFont@ICSReportControl@@QAEXAAUtagLOGFONTA@@@Z 100c3238     ICS15_GEN:ICS15_GEN.dll
 0002:0000023c       __imp_?GetCaptionString@ICSReportRecordItemText@@UAE?AV?$CStringT@DV?$StrTraitMFC_DLL@DV?$ChTraitsCRT@D@ATL@@@@@ATL@@PAVICSReportColumn@@@Z 100c323c     ICS15_GEN:ICS15_GEN.dll
 0002:00000240       __imp_?GetCaption@ICSReportRecordItemText@@UAE?AV?$CStringT@DV?$StrTraitMFC_DLL@DV?$ChTraitsCRT@D@ATL@@@@@ATL@@PAVICSReportColumn@@@Z 100c3240     ICS15_GEN:ICS15_GEN.dll
 0002:00000244       __imp_?OnMouseMove@ICSReportRecordItem@@UAEXIVCPoint@@@Z 100c3244     ICS15_GEN:ICS15_GEN.dll
 0002:00000248       __imp_?OnDblClick@ICSReportRecordItem@@UAEXPAUICS_REPORTRECORDITEM_CLICKARGS@@@Z 100c3248     ICS15_GEN:ICS15_GEN.dll
 0002:0000024c       __imp_?OnClick@ICSReportRecordItem@@UAEXPAUICS_REPORTRECORDITEM_CLICKARGS@@@Z 100c324c     ICS15_GEN:ICS15_GEN.dll
 0002:00000250       __imp_?OnDrawCaption@ICSReportRecordItem@@UAEXPAUICS_REPORTRECORDITEM_DRAWARGS@@PAUICS_REPORTRECORDITEM_METRICS@@@Z 100c3250     ICS15_GEN:ICS15_GEN.dll
 0002:00000254       __imp_?Draw@ICSReportRecordItem@@UAEHPAUICS_REPORTRECORDITEM_DRAWARGS@@@Z 100c3254     ICS15_GEN:ICS15_GEN.dll
 0002:00000258       __imp_?GetRuntimeClass@ICSReportRecordItemText@@UBEPAUCRuntimeClass@@XZ 100c3258     ICS15_GEN:ICS15_GEN.dll
 0002:0000025c       __imp_?IsFiltered@ICSReportRecord@@UAEHXZ 100c325c     ICS15_GEN:ICS15_GEN.dll
 0002:00000260       __imp_?GetItemMetrics@ICSReportRecord@@UAEXPAUICS_REPORTRECORDITEM_DRAWARGS@@PAUICS_REPORTRECORDITEM_METRICS@@@Z 100c3260     ICS15_GEN:ICS15_GEN.dll
 0002:00000264       __imp_?GetRuntimeClass@ICSReportRecord@@UBEPAUCRuntimeClass@@XZ 100c3264     ICS15_GEN:ICS15_GEN.dll
 0002:00000268       __imp_?DoPropExchange@ICSReportColumn@@UAEXPAVCXTPPropExchange@@@Z 100c3268     ICS15_GEN:ICS15_GEN.dll
 0002:0000026c       __imp_??1ICSReportRecord@@UAE@XZ 100c326c     ICS15_GEN:ICS15_GEN.dll
 0002:00000270       __imp_?SetTextColor@ICSReportRecordItem@@UAEXK@Z 100c3270     ICS15_GEN:ICS15_GEN.dll
 0002:00000274       __imp_?SetBackgroundColor@ICSReportRecordItem@@UAEXK@Z 100c3274     ICS15_GEN:ICS15_GEN.dll
 0002:00000278       __imp_?AddItem@ICSReportRecord@@QAEPAVICSReportRecordItem@@PAV2@@Z 100c3278     ICS15_GEN:ICS15_GEN.dll
 0002:0000027c       __imp_??0ICSReportRecord@@QAE@XZ 100c327c     ICS15_GEN:ICS15_GEN.dll
 0002:00000280       __imp_?EditItem@ICSReportControl@@QAEXHHH@Z 100c3280     ICS15_GEN:ICS15_GEN.dll
 0002:00000284       __imp_?SetTextFont@ICSReportControl@@QAEXAAUtagLOGFONTA@@@Z 100c3284     ICS15_GEN:ICS15_GEN.dll
 0002:00000288       __imp_??0ICSReportColumn@@QAE@HV?$CStringT@DV?$StrTraitMFC_DLL@DV?$ChTraitsCRT@D@ATL@@@@@ATL@@HHHHHH@Z 100c3288     ICS15_GEN:ICS15_GEN.dll
 0002:0000028c       __imp_?AddColumn@ICSReportControl@@QAEPAVICSReportColumn@@PAV2@@Z 100c328c     ICS15_GEN:ICS15_GEN.dll
 0002:00000290       __imp_?RemoveColumn@ICSReportControl@@QAEXH@Z 100c3290     ICS15_GEN:ICS15_GEN.dll
 0002:00000294       __imp_??1ICSReportControl@@UAE@XZ 100c3294     ICS15_GEN:ICS15_GEN.dll
 0002:00000298       __imp_??0ICSReportControl@@QAE@XZ 100c3298     ICS15_GEN:ICS15_GEN.dll
 0002:0000029c       __imp_?GetThisClass@ICSDialog@@SGPAUCRuntimeClass@@XZ 100c329c     ICS15_GEN:ICS15_GEN.dll
 0002:000002a0       __imp_?OnCtlColor@ICSDialog@@QAEPAUHBRUSH__@@PAVCDC@@PAVCWnd@@I@Z 100c32a0     ICS15_GEN:ICS15_GEN.dll
 0002:000002a4       __imp_?PageKmkTextColor@ICSColorInfo@@QAEKXZ 100c32a4     ICS15_GEN:ICS15_GEN.dll
 0002:000002a8       __imp_?PageKmkBackColor@ICSColorInfo@@QAEKXZ 100c32a8     ICS15_GEN:ICS15_GEN.dll
 0002:000002ac       __imp_?GetStanderdColor@ICSWinApp@@QAEHAAVICSColorInfo@@@Z 100c32ac     ICS15_GEN:ICS15_GEN.dll
 0002:000002b0       __imp_??1ICSColorInfo@@QAE@XZ 100c32b0     ICS15_GEN:ICS15_GEN.dll
 0002:000002b4       __imp_??0ICSColorInfo@@QAE@XZ 100c32b4     ICS15_GEN:ICS15_GEN.dll
 0002:000002b8       __imp_?OnInitDialogEX@ICSDialog@@UAEXXZ 100c32b8     ICS15_GEN:ICS15_GEN.dll
 0002:000002bc       __imp_?GetRuntimeClass@ICSDialog@@UBEPAUCRuntimeClass@@XZ 100c32bc     ICS15_GEN:ICS15_GEN.dll
 0002:000002c0       __imp_?PreTranslateMessage@ICSDialog@@UAEHPAUtagMSG@@@Z 100c32c0     ICS15_GEN:ICS15_GEN.dll
 0002:000002c4       __imp_?OnInitDialog@ICSDialog@@UAEHXZ 100c32c4     ICS15_GEN:ICS15_GEN.dll
 0002:000002c8       __imp_?GetThisMessageMap@ICSDialog@@KGPBUAFX_MSGMAP@@XZ 100c32c8     ICS15_GEN:ICS15_GEN.dll
 0002:000002cc       __imp_?AddRecord@ICSReportControl@@QAEPAVICSReportRecord@@PAV2@@Z 100c32cc     ICS15_GEN:ICS15_GEN.dll
 0002:000002d0       __imp_?DoDataExchange@ICSDialog@@MAEXPAVCDataExchange@@@Z 100c32d0     ICS15_GEN:ICS15_GEN.dll
 0002:000002d4       __imp_??1ICSDialog@@UAE@XZ 100c32d4     ICS15_GEN:ICS15_GEN.dll
 0002:000002d8       __imp_?GetTextRect@ICSStatic@@MBE?AVCRect@@XZ 100c32d8     ICS15_GEN:ICS15_GEN.dll
 0002:000002dc       __imp_??0ICSDialog@@QAE@IPAVCWnd@@@Z 100c32dc     ICS15_GEN:ICS15_GEN.dll
 0002:000002e0       \177ICS15_GEN_NULL_THUNK_DATA 100c32e0     ICS15_GEN:ICS15_GEN.dll
 0002:000002e4       __imp__IsKindOfLetter@8    100c32e4     ICS15_GENL:ICS15_GENL.dll
 0002:000002e8       __imp__GetScreenSize@0     100c32e8     ICS15_GENL:ICS15_GENL.dll
 0002:000002ec       __imp__ICSMessageBox       100c32ec     ICS15_GENL:ICS15_GENL.dll
 0002:000002f0       __imp__GetMultiWindowType@0 100c32f0     ICS15_GENL:ICS15_GENL.dll
 0002:000002f4       __imp___atoh@4             100c32f4     ICS15_GENL:ICS15_GENL.dll
 0002:000002f8       __imp___cclass@4           100c32f8     ICS15_GENL:ICS15_GENL.dll
 0002:000002fc       __imp__ICSExtBox           100c32fc     ICS15_GENL:ICS15_GENL.dll
 0002:00000300       __imp__ICSExit@8           100c3300     ICS15_GENL:ICS15_GENL.dll
 0002:00000304       \177ICS15_GENL_NULL_THUNK_DATA 100c3304     ICS15_GENL:ICS15_GENL.dll
 0002:00000308       __imp__SeirekiToWareki@24  100c3308     ICS15_KaigenInfo:ICS15_KaigenInfo.dll
 0002:0000030c       __imp__IsValidKaigen@0     100c330c     ICS15_KaigenInfo:ICS15_KaigenInfo.dll
 0002:00000310       \177ICS15_KaigenInfo_NULL_THUNK_DATA 100c3310     ICS15_KaigenInfo:ICS15_KaigenInfo.dll
 0002:00000314       __imp_??0CMasterId@@QAE@PAVCDatabase@@@Z 100c3314     ICS15_VLCTL:ICS15_VLCTL.dll
 0002:00000318       __imp_?SetDatabase@ICSMCTL@@QAEHV?$CStringT@DV?$StrTraitMFC_DLL@DV?$ChTraitsCRT@D@ATL@@@@@ATL@@@Z 100c3318     ICS15_VLCTL:ICS15_VLCTL.dll
 0002:0000031c       __imp_??0CoptionRec@@QAE@PAVCDatabase@@@Z 100c331c     ICS15_VLCTL:ICS15_VLCTL.dll
 0002:00000320       __imp_??0Cusertbl2@@QAE@PAVCDatabase@@@Z 100c3320     ICS15_VLCTL:ICS15_VLCTL.dll
 0002:00000324       __imp_??0CO_Conn@@QAE@PAVCDatabase@@@Z 100c3324     ICS15_VLCTL:ICS15_VLCTL.dll
 0002:00000328       __imp_?get_option@ICSMCTL@@QAEPAVCoptionRec@@V?$CStringT@DV?$StrTraitMFC_DLL@DV?$ChTraitsCRT@D@ATL@@@@@ATL@@@Z 100c3328     ICS15_VLCTL:ICS15_VLCTL.dll
 0002:0000032c       __imp_?get_usertbl@ICSMCTL@@QAEHAAVmctl_usertbl@@@Z 100c332c     ICS15_VLCTL:ICS15_VLCTL.dll
 0002:00000330       __imp_??1ICSMCTL@@QAE@XZ   100c3330     ICS15_VLCTL:ICS15_VLCTL.dll
 0002:00000334       __imp_??0COAccess@@QAE@PAVCDatabase@@@Z 100c3334     ICS15_VLCTL:ICS15_VLCTL.dll
 0002:00000338       __imp_??0ICSMCTL@@QAE@XZ   100c3338     ICS15_VLCTL:ICS15_VLCTL.dll
 0002:0000033c       \177ICS15_VLCTL_NULL_THUNK_DATA 100c333c     ICS15_VLCTL:ICS15_VLCTL.dll
 0002:00000340       __imp_??0CVolDateDB@@QAE@XZ 100c3340     ICS15_VolDate:ICS15_VolDate.dll
 0002:00000344       __imp_??1CVolDateDB@@QAE@XZ 100c3344     ICS15_VolDate:ICS15_VolDate.dll
 0002:00000348       __imp_?db_datecnvGen@CVolDateDB@@QAEHHHPAH0HH@Z 100c3348     ICS15_VolDate:ICS15_VolDate.dll
 0002:0000034c       __imp__db_datecnvGen@24    100c334c     ICS15_VolDate:ICS15_VolDate.dll
 0002:00000350       __imp__db_datecnv@16       100c3350     ICS15_VolDate:ICS15_VolDate.dll
 0002:00000354       __imp_?db_vd_yearGen@CVolDateDB@@QAEHHHPAH00PAVCDBZmSub@@@Z 100c3354     ICS15_VolDate:ICS15_VolDate.dll
 0002:00000358       __imp_?db_vd_offset@CVolDateDB@@QAEHPAEPAHPAVCDBZmSub@@@Z 100c3358     ICS15_VolDate:ICS15_VolDate.dll
 0002:0000035c       __imp_?db_vd_dpacGen@CVolDateDB@@QAEHHHHPAU_VDPac@@PAVCDBZmSub@@@Z 100c335c     ICS15_VolDate:ICS15_VolDate.dll
 0002:00000360       __imp_?db_vd_offset@CVolDateDB@@QAEHHHPAHPAVCDBZmSub@@@Z 100c3360     ICS15_VolDate:ICS15_VolDate.dll
 0002:00000364       __imp_?db_vd_check@CVolDateDB@@QAEHPAEPAVCDBZmSub@@@Z 100c3364     ICS15_VolDate:ICS15_VolDate.dll
 0002:00000368       __imp__db_vd_dateGen@16    100c3368     ICS15_VolDate:ICS15_VolDate.dll
 0002:0000036c       __imp__db_vd_check@12      100c336c     ICS15_VolDate:ICS15_VolDate.dll
 0002:00000370       __imp___db_vd_dateGen@24   100c3370     ICS15_VolDate:ICS15_VolDate.dll
 0002:00000374       __imp___db_vd_check@8      100c3374     ICS15_VolDate:ICS15_VolDate.dll
 0002:00000378       __imp__db_vd_dpacGen@20    100c3378     ICS15_VolDate:ICS15_VolDate.dll
 0002:0000037c       \177ICS15_VolDate_NULL_THUNK_DATA 100c337c     ICS15_VolDate:ICS15_VolDate.dll
 0002:00000380       __imp__GET_LOGINNAME@0     100c3380     ICSCmn:ICSCMN.dll
 0002:00000384       __imp__GET_USERTYPE@0      100c3384     ICSCmn:ICSCMN.dll
 0002:00000388       __imp__IsJz2@0             100c3388     ICSCmn:ICSCMN.dll
 0002:0000038c       __imp__GetTaskWndID@0      100c338c     ICSCmn:ICSCMN.dll
 0002:00000390       __imp__PCOM_GetString@24   100c3390     ICSCmn:ICSCMN.dll
 0002:00000394       \177ICSCMN_NULL_THUNK_DATA 100c3394     ICSCmn:ICSCMN.dll
 0002:00000398       __imp__ImmGetContext@4     100c3398     imm32:IMM32.dll
 0002:0000039c       __imp__ImmGetCompositionStringA@16 100c339c     imm32:IMM32.dll
 0002:000003a0       __imp__ImmNotifyIME@16     100c33a0     imm32:IMM32.dll
 0002:000003a4       __imp__ImmReleaseContext@8 100c33a4     imm32:IMM32.dll
 0002:000003a8       __imp__ImmGetVirtualKey@4  100c33a8     imm32:IMM32.dll
 0002:000003ac       \177IMM32_NULL_THUNK_DATA  100c33ac     imm32:IMM32.dll
 0002:000003b0       __imp__GetLastError@0      100c33b0     kernel32:KERNEL32.dll
 0002:000003b4       __imp__GetCurrentProcessId@0 100c33b4     kernel32:KERNEL32.dll
 0002:000003b8       __imp__GetVersionExA@4     100c33b8     kernel32:KERNEL32.dll
 0002:000003bc       __imp__GetSystemInfo@4     100c33bc     kernel32:KERNEL32.dll
 0002:000003c0       __imp__VirtualProtect@16   100c33c0     kernel32:KERNEL32.dll
 0002:000003c4       __imp__VirtualQuery@12     100c33c4     kernel32:KERNEL32.dll
 0002:000003c8       __imp__FreeLibrary@4       100c33c8     kernel32:KERNEL32.dll
 0002:000003cc       __imp__GetModuleHandleW@4  100c33cc     kernel32:KERNEL32.dll
 0002:000003d0       __imp__InitializeSListHead@4 100c33d0     kernel32:KERNEL32.dll
 0002:000003d4       __imp__GetSystemTimeAsFileTime@4 100c33d4     kernel32:KERNEL32.dll
 0002:000003d8       __imp__OutputDebugStringW@4 100c33d8     kernel32:KERNEL32.dll
 0002:000003dc       __imp__QueryPerformanceCounter@4 100c33dc     kernel32:KERNEL32.dll
 0002:000003e0       __imp__IsDebuggerPresent@0 100c33e0     kernel32:KERNEL32.dll
 0002:000003e4       __imp__IsProcessorFeaturePresent@4 100c33e4     kernel32:KERNEL32.dll
 0002:000003e8       __imp__InitializeCriticalSectionAndSpinCount@8 100c33e8     kernel32:KERNEL32.dll
 0002:000003ec       __imp__GetProcAddress@8    100c33ec     kernel32:KERNEL32.dll
 0002:000003f0       __imp__TerminateProcess@8  100c33f0     kernel32:KERNEL32.dll
 0002:000003f4       __imp__GetCurrentProcess@0 100c33f4     kernel32:KERNEL32.dll
 0002:000003f8       __imp__SetUnhandledExceptionFilter@4 100c33f8     kernel32:KERNEL32.dll
 0002:000003fc       __imp__RaiseException@16   100c33fc     kernel32:KERNEL32.dll
 0002:00000400       __imp__LoadLibraryExA@12   100c3400     kernel32:KERNEL32.dll
 0002:00000404       __imp__DeleteCriticalSection@4 100c3404     kernel32:KERNEL32.dll
 0002:00000408       __imp__GetCurrentThreadId@0 100c3408     kernel32:KERNEL32.dll
 0002:0000040c       __imp__UnhandledExceptionFilter@4 100c340c     kernel32:KERNEL32.dll
 0002:00000410       __imp__CreateEventW@16     100c3410     kernel32:KERNEL32.dll
 0002:00000414       __imp__WaitForSingleObjectEx@12 100c3414     kernel32:KERNEL32.dll
 0002:00000418       __imp__ResetEvent@4        100c3418     kernel32:KERNEL32.dll
 0002:0000041c       __imp__SetEvent@4          100c341c     kernel32:KERNEL32.dll
 0002:00000420       __imp__LeaveCriticalSection@4 100c3420     kernel32:KERNEL32.dll
 0002:00000424       __imp__EnterCriticalSection@4 100c3424     kernel32:KERNEL32.dll
 0002:00000428       __imp__CloseHandle@4       100c3428     kernel32:KERNEL32.dll
 0002:0000042c       \177KERNEL32_NULL_THUNK_DATA 100c342c     kernel32:KERNEL32.dll
 0002:00000430       __imp_?_Xlength_error@std@@YAXPBD@Z 100c3430     msvcprt:MSVCP140.dll
 0002:00000434       \177MSVCP140_NULL_THUNK_DATA 100c3434     msvcprt:MSVCP140.dll
 0002:00000438       __imp__GetWindowRect@8     100c3438     user32:USER32.dll
 0002:0000043c       __imp__SendMessageA@16     100c343c     user32:USER32.dll
 0002:00000440       __imp__InvalidateRect@12   100c3440     user32:USER32.dll
 0002:00000444       __imp__GetFocus@0          100c3444     user32:USER32.dll
 0002:00000448       __imp__GetKeyState@4       100c3448     user32:USER32.dll
 0002:0000044c       __imp__IsWindowVisible@4   100c344c     user32:USER32.dll
 0002:00000450       __imp__IsCharAlphaNumericA@4 100c3450     user32:USER32.dll
 0002:00000454       __imp__IsCharAlphaA@4      100c3454     user32:USER32.dll
 0002:00000458       __imp__GetParent@4         100c3458     user32:USER32.dll
 0002:0000045c       __imp__GetClientRect@8     100c345c     user32:USER32.dll
 0002:00000460       __imp__MessageBeep@4       100c3460     user32:USER32.dll
 0002:00000464       __imp__UpdateWindow@4      100c3464     user32:USER32.dll
 0002:00000468       __imp__IsChild@8           100c3468     user32:USER32.dll
 0002:0000046c       __imp__LoadMenuW@8         100c346c     user32:USER32.dll
 0002:00000470       __imp__GetSubMenu@8        100c3470     user32:USER32.dll
 0002:00000474       __imp__EnableMenuItem@12   100c3474     user32:USER32.dll
 0002:00000478       __imp__RedrawWindow@16     100c3478     user32:USER32.dll
 0002:0000047c       __imp__wsprintfA           100c347c     user32:USER32.dll
 0002:00000480       __imp__GetDC@4             100c3480     user32:USER32.dll
 0002:00000484       __imp__ReleaseDC@8         100c3484     user32:USER32.dll
 0002:00000488       __imp__TranslateAcceleratorA@12 100c3488     user32:USER32.dll
 0002:0000048c       __imp__PtInRect@12         100c348c     user32:USER32.dll
 0002:00000490       __imp__CallNextHookEx@16   100c3490     user32:USER32.dll
 0002:00000494       __imp__SetWindowsHookExA@16 100c3494     user32:USER32.dll
 0002:00000498       __imp__UnhookWindowsHookEx@4 100c3498     user32:USER32.dll
 0002:0000049c       __imp__GetDesktopWindow@0  100c349c     user32:USER32.dll
 0002:000004a0       __imp__IsWindowEnabled@4   100c34a0     user32:USER32.dll
 0002:000004a4       __imp__BlockInput@4        100c34a4     user32:USER32.dll
 0002:000004a8       __imp__SetTimer@16         100c34a8     user32:USER32.dll
 0002:000004ac       __imp__GetActiveWindow@0   100c34ac     user32:USER32.dll
 0002:000004b0       __imp__SetActiveWindow@4   100c34b0     user32:USER32.dll
 0002:000004b4       __imp__GetSysColor@4       100c34b4     user32:USER32.dll
 0002:000004b8       __imp__GetSystemMetrics@4  100c34b8     user32:USER32.dll
 0002:000004bc       __imp__keybd_event@16      100c34bc     user32:USER32.dll
 0002:000004c0       __imp__KillTimer@8         100c34c0     user32:USER32.dll
 0002:000004c4       __imp__CopyRect@8          100c34c4     user32:USER32.dll
 0002:000004c8       __imp__IsWindow@4          100c34c8     user32:USER32.dll
 0002:000004cc       __imp__GetScrollPos@8      100c34cc     user32:USER32.dll
 0002:000004d0       __imp__LoadAcceleratorsA@8 100c34d0     user32:USER32.dll
 0002:000004d4       __imp__DestroyIcon@4       100c34d4     user32:USER32.dll
 0002:000004d8       __imp__DrawIconEx@36       100c34d8     user32:USER32.dll
 0002:000004dc       __imp__GetDlgCtrlID@4      100c34dc     user32:USER32.dll
 0002:000004e0       __imp__FillRect@12         100c34e0     user32:USER32.dll
 0002:000004e4       __imp__HideCaret@4         100c34e4     user32:USER32.dll
 0002:000004e8       __imp__ShowCaret@4         100c34e8     user32:USER32.dll
 0002:000004ec       __imp__GetClassInfoA@12    100c34ec     user32:USER32.dll
 0002:000004f0       __imp__DefWindowProcA@16   100c34f0     user32:USER32.dll
 0002:000004f4       __imp__LoadCursorA@8       100c34f4     user32:USER32.dll
 0002:000004f8       __imp__DrawFrameControl@16 100c34f8     user32:USER32.dll
 0002:000004fc       __imp__GetMessagePos@0     100c34fc     user32:USER32.dll
 0002:00000500       __imp__ScreenToClient@8    100c3500     user32:USER32.dll
 0002:00000504       __imp__GetCursorPos@4      100c3504     user32:USER32.dll
 0002:00000508       __imp__RegisterWindowMessageA@4 100c3508     user32:USER32.dll
 0002:0000050c       __imp__mouse_event@20      100c350c     user32:USER32.dll
 0002:00000510       __imp__PostMessageA@16     100c3510     user32:USER32.dll
 0002:00000514       __imp__EnableWindow@8      100c3514     user32:USER32.dll
 0002:00000518       __imp__SetRectEmpty@4      100c3518     user32:USER32.dll
 0002:0000051c       __imp__SetRect@20          100c351c     user32:USER32.dll
 0002:00000520       \177USER32_NULL_THUNK_DATA 100c3520     user32:USER32.dll
 0002:00000524       __imp____CxxFrameHandler3  100c3524     vcruntime:VCRUNTIME140.dll
 0002:00000528       __imp____std_terminate     100c3528     vcruntime:VCRUNTIME140.dll
 0002:0000052c       __imp__memset              100c352c     vcruntime:VCRUNTIME140.dll
 0002:00000530       __imp___except_handler4_common 100c3530     vcruntime:VCRUNTIME140.dll
 0002:00000534       __imp____std_type_info_destroy_list 100c3534     vcruntime:VCRUNTIME140.dll
 0002:00000538       __imp__memmove             100c3538     vcruntime:VCRUNTIME140.dll
 0002:0000053c       __imp___CxxThrowException@8 100c353c     vcruntime:VCRUNTIME140.dll
 0002:00000540       __imp__memcpy              100c3540     vcruntime:VCRUNTIME140.dll
 0002:00000544       \177VCRUNTIME140_NULL_THUNK_DATA 100c3544     vcruntime:VCRUNTIME140.dll
 0002:00000548       __imp_?MoveNext@CANAHYOITM@@QAEHXZ 100c3548     ZIM15_AnaRec:ZIM15_AnaRec.dll
 0002:0000054c       __imp_?MoveFirst@CANAHYOITM@@QAEHXZ 100c354c     ZIM15_AnaRec:ZIM15_AnaRec.dll
 0002:00000550       __imp_?Requery@CANAHYOITM@@QAEHV?$CStringT@DV?$StrTraitMFC_DLL@DV?$ChTraitsCRT@D@ATL@@@@@ATL@@@Z 100c3550     ZIM15_AnaRec:ZIM15_AnaRec.dll
 0002:00000554       __imp_?Open@CDBAna@@QAEHPAVCDatabase@@@Z 100c3554     ZIM15_AnaRec:ZIM15_AnaRec.dll
 0002:00000558       __imp_??0CDBAna@@QAE@XZ    100c3558     ZIM15_AnaRec:ZIM15_AnaRec.dll
 0002:0000055c       __imp_?Close@CDBAna@@QAEXXZ 100c355c     ZIM15_AnaRec:ZIM15_AnaRec.dll
 0002:00000560       __imp_?GetRecordCount@CANAHYOITM@@QAEHXZ 100c3560     ZIM15_AnaRec:ZIM15_AnaRec.dll
 0002:00000564       \177ZIM15_AnaRec_NULL_THUNK_DATA 100c3564     ZIM15_AnaRec:ZIM15_AnaRec.dll
 0002:00000568       __imp_?IsInvoiceVupMaster@CZmGen8@@QAE_NPAVCDBZmSub@@@Z 100c3568     ZIM15_Gen:ZIM15_Gen.dll
 0002:0000056c       __imp_?IsAbleToUseInvoice@CZmGen8@@QAE_NPAVCDBZmSub@@@Z 100c356c     ZIM15_Gen:ZIM15_Gen.dll
 0002:00000570       __imp_??0CZmGen8@@QAE@XZ   100c3570     ZIM15_Gen:ZIM15_Gen.dll
 0002:00000574       __imp_?CheckValiableVersion@CZmGen8@@QAEHPAVCDatabase@@J@Z 100c3574     ZIM15_Gen:ZIM15_Gen.dll
 0002:00000578       __imp_?GetSyzKikan@CZmGen8@@QAE?AW4EnumIdSyzKikan@@H@Z 100c3578     ZIM15_Gen:ZIM15_Gen.dll
 0002:0000057c       __imp_?CheckByoinType@CZmGen8@@QAE?AW4EnumIdByoinType@@PAVCDBZmSub@@@Z 100c357c     ZIM15_Gen:ZIM15_Gen.dll
 0002:00000580       __imp_?IsDispInvno@CZmGen8@@QAE_NPAVCDBZmSub@@@Z 100c3580     ZIM15_Gen:ZIM15_Gen.dll
 0002:00000584       __imp_?GetErrorMsg@CZmGen8@@QAEAAV?$CStringT@DV?$StrTraitMFC_DLL@DV?$ChTraitsCRT@D@ATL@@@@@ATL@@XZ 100c3584     ZIM15_Gen:ZIM15_Gen.dll
 0002:00000588       __imp_?RepairMenzeiZeigaku@CZmGen8@@QAEHPAVCZVOLUME@@PAVCDBDATA@@@Z 100c3588     ZIM15_Gen:ZIM15_Gen.dll
 0002:0000058c       __imp_?IsJzCloudMaster@CZmGen8@@QAE_NPAVCDBZmSub@@@Z 100c358c     ZIM15_Gen:ZIM15_Gen.dll
 0002:00000590       __imp_??1CZmGen8@@UAE@XZ   100c3590     ZIM15_Gen:ZIM15_Gen.dll
 0002:00000594       \177ZIM15_Gen_NULL_THUNK_DATA 100c3594     ZIM15_Gen:ZIM15_Gen.dll
 0002:00000598       __imp_?GetMatchedStrings@CImgMng@@QAEHW4EnumIdImgSearchType@@AAVCStringArray@@@Z 100c3598     ZIM15_ImgMng:ZIM15_ImgMng.dll
 0002:0000059c       \177ZIM15_ImgMng_NULL_THUNK_DATA 100c359c     ZIM15_ImgMng:ZIM15_ImgMng.dll
 0002:000005a0       __imp_?Kmk50onSelect@@YGHPAVCDBZmSub@@PAU_KSEL_PAR@@PAVCWnd@@@Z 100c35a0     ZIM15_Kmsel:ZIM15_Kmsel.dll
 0002:000005a4       \177ZIM15_Kmsel_NULL_THUNK_DATA 100c35a4     ZIM15_Kmsel:ZIM15_Kmsel.dll
 0002:000005a8       __imp_?IsRegistNphw@CNpHwCalq@@QAEHXZ 100c35a8     ZIM15_NpHwCalq:ZIM15_NpHwCalq.dll
 0002:000005ac       __imp_??0CNpHwCalq@@QAE@PAVCDBZmSub@@@Z 100c35ac     ZIM15_NpHwCalq:ZIM15_NpHwCalq.dll
 0002:000005b0       __imp_??1CNpHwCalq@@UAE@XZ 100c35b0     ZIM15_NpHwCalq:ZIM15_NpHwCalq.dll
 0002:000005b4       \177ZIM15_NpHwCalq_NULL_THUNK_DATA 100c35b4     ZIM15_NpHwCalq:ZIM15_NpHwCalq.dll
 0002:000005b8       __imp_??0CRevConv@@QAE@XZ  100c35b8     ZIM15_SubFnc:ZIM15_SubFnc.dll
 0002:000005bc       __imp__DateInputCheck@8    100c35bc     ZIM15_SubFnc:ZIM15_SubFnc.dll
 0002:000005c0       __imp_?GetFurigana@CRevConv@@QAEHKAAV?$CStringT@DV?$StrTraitMFC_DLL@DV?$ChTraitsCRT@D@ATL@@@@@ATL@@0@Z 100c35c0     ZIM15_SubFnc:ZIM15_SubFnc.dll
 0002:000005c4       __imp_??1CRevConv@@UAE@XZ  100c35c4     ZIM15_SubFnc:ZIM15_SubFnc.dll
 0002:000005c8       __imp__TekiyoStr_Chk@4     100c35c8     ZIM15_SubFnc:ZIM15_SubFnc.dll
 0002:000005cc       __imp__KamokuStr_ChkLength@12 100c35cc     ZIM15_SubFnc:ZIM15_SubFnc.dll
 0002:000005d0       \177ZIM15_SubFnc_NULL_THUNK_DATA 100c35d0     ZIM15_SubFnc:ZIM15_SubFnc.dll
 0002:000005d4       __imp_?SyohizeiClose@CDBZmSub@@QAEXXZ 100c35d4     ZIM15_SyZei:ZIM15_SyZei.dll
 0002:000005d8       __imp_?SyohizeiOpen@CDBZmSub@@QAEHXZ 100c35d8     ZIM15_SyZei:ZIM15_SyZei.dll
 0002:000005dc       \177ZIM15_SyZei_NULL_THUNK_DATA 100c35dc     ZIM15_SyZei:ZIM15_SyZei.dll
 0002:000005e0       __imp_?Sy_tkyo_inp@CDBSyohi@@QAEXPAU_SY_TKREC_@@@Z 100c35e0     ZIM15_Syz:ZIM15_Syz.dll
 0002:000005e4       __imp_??0CDBSyohi@@QAE@H@Z 100c35e4     ZIM15_Syz:ZIM15_Syz.dll
 0002:000005e8       __imp_?SyOpen@CDBSyohi@@QAEHPAVCDBZmSub@@@Z 100c35e8     ZIM15_Syz:ZIM15_Syz.dll
 0002:000005ec       __imp_?SyTaikaVal@CDBSyohi@@QAEHPBD@Z 100c35ec     ZIM15_Syz:ZIM15_Syz.dll
 0002:000005f0       __imp_?SyClose@CDBSyohi@@QAEHH@Z 100c35f0     ZIM15_Syz:ZIM15_Syz.dll
 0002:000005f4       __imp_?Sy_tkyo_inp@CDBSyohi@@QAEXH@Z 100c35f4     ZIM15_Syz:ZIM15_Syz.dll
 0002:000005f8       __imp_?SyOpen@CDBSyohi@@QAEHPAVCDBZmSub@@PAVCSZVOL@@@Z 100c35f8     ZIM15_Syz:ZIM15_Syz.dll
 0002:000005fc       __imp_?SyMsg@CDBSyohi@@QAEHPAU_SY_MSG_PACK2@@@Z 100c35fc     ZIM15_Syz:ZIM15_Syz.dll
 0002:00000600       __imp_??1CDBSyohi@@UAE@XZ  100c3600     ZIM15_Syz:ZIM15_Syz.dll
 0002:00000604       __imp_?IsKobetsuMaster@CDBSyohi@@QAEHXZ 100c3604     ZIM15_Syz:ZIM15_Syz.dll
 0002:00000608       __imp_?IsKaniMaster@CDBSyohi@@QAEHXZ 100c3608     ZIM15_Syz:ZIM15_Syz.dll
 0002:0000060c       __imp_?IsSyohizeiMaster@CDBSyohi@@QAEHXZ 100c360c     ZIM15_Syz:ZIM15_Syz.dll
 0002:00000610       __imp_?Sy_get_message@CDBSyohi@@QAE?AV?$CStringT@DV?$StrTraitMFC_DLL@DV?$ChTraitsCRT@D@ATL@@@@@ATL@@PAVCDBDATA@@H@Z 100c3610     ZIM15_Syz:ZIM15_Syz.dll
 0002:00000614       __imp_?IsTaikaData@CDBSyohi@@QAEHPAVCDBDATA@@@Z 100c3614     ZIM15_Syz:ZIM15_Syz.dll
 0002:00000618       __imp_?SyIniz@CDBSyohi@@QAEHPAVCDBDATA@@@Z 100c3618     ZIM15_Syz:ZIM15_Syz.dll
 0002:0000061c       __imp_?SyFnc@CDBSyohi@@QAEHK@Z 100c361c     ZIM15_Syz:ZIM15_Syz.dll
 0002:00000620       __imp_?Sy_get_message_short@CDBSyohi@@QAE?AV?$CStringT@DV?$StrTraitMFC_DLL@DV?$ChTraitsCRT@D@ATL@@@@@ATL@@PAVCDBDATA@@H@Z 100c3620     ZIM15_Syz:ZIM15_Syz.dll
 0002:00000624       __imp_?SyZei@CDBSyohi@@QAEHPBD@Z 100c3624     ZIM15_Syz:ZIM15_Syz.dll
 0002:00000628       __imp_?Get_sy_error@CDBSyohi@@QAEXPAGPAD@Z 100c3628     ZIM15_Syz:ZIM15_Syz.dll
 0002:0000062c       __imp_?SyReOpen@CDBSyohi@@QAEHPAVCDBZmSub@@@Z 100c362c     ZIM15_Syz:ZIM15_Syz.dll
 0002:00000630       __imp_?Is5perMaster@CDBSyohi@@QAEHXZ 100c3630     ZIM15_Syz:ZIM15_Syz.dll
 0002:00000634       \177ZIM15_Syz_NULL_THUNK_DATA 100c3634     ZIM15_Syz:ZIM15_Syz.dll
 0002:00000638       __imp_?GetErrorMessage@CSyzInvoice@@QAE?AV?$CStringT@DV?$StrTraitMFC_DLL@DV?$ChTraitsCRT@D@ATL@@@@@ATL@@XZ 100c3638     ZIM15_SyzInvoice:ZIM15_SyzInvoice.dll
 0002:0000063c       __imp_?SetDBZmSub@CSyzInvoice@@QAEHPAVCDBZmSub@@@Z 100c363c     ZIM15_SyzInvoice:ZIM15_SyzInvoice.dll
 0002:00000640       __imp_??0CSyzInvoice@@QAE@XZ 100c3640     ZIM15_SyzInvoice:ZIM15_SyzInvoice.dll
 0002:00000644       __imp_??1CSyzInvoice@@QAE@XZ 100c3644     ZIM15_SyzInvoice:ZIM15_SyzInvoice.dll
 0002:00000648       __imp_?CheckInvoiceNumber@CSyzInvoice@@QAEHV?$CStringT@DV?$StrTraitMFC_DLL@DV?$ChTraitsCRT@D@ATL@@@@@ATL@@@Z 100c3648     ZIM15_SyzInvoice:ZIM15_SyzInvoice.dll
 0002:0000064c       \177ZIM15_SyzInvoice_NULL_THUNK_DATA 100c364c     ZIM15_SyzInvoice:ZIM15_SyzInvoice.dll
 0002:00000650       __imp_?End@CZIM_TkjourUtil@@QAEXXZ 100c3650     ZIM15_TkjourUtil:ZIM15_TkjourUtil.dll
 0002:00000654       __imp_??1CZIM_TkjourUtil@@UAE@XZ 100c3654     ZIM15_TkjourUtil:ZIM15_TkjourUtil.dll
 0002:00000658       __imp_?Init@CZIM_TkjourUtil@@QAEHU_ICS_TKJOURUTILPAC_@@@Z 100c3658     ZIM15_TkjourUtil:ZIM15_TkjourUtil.dll
 0002:0000065c       __imp_?DeleteTklnkjour@CZIM_TkjourUtil@@QAEHH@Z 100c365c     ZIM15_TkjourUtil:ZIM15_TkjourUtil.dll
 0002:00000660       __imp_?SelectALLTkjour@CZIM_TkjourUtil@@QAEHHAAV?$CArray@U_ICS_TKJOUR_PAC_@@AAU1@@@@Z 100c3660     ZIM15_TkjourUtil:ZIM15_TkjourUtil.dll
 0002:00000664       __imp_?GetTkjour@CZIM_TkjourUtil@@QAEHHAAV?$CArray@U_ICS_TKJOUR_PAC_@@AAU1@@@@Z 100c3664     ZIM15_TkjourUtil:ZIM15_TkjourUtil.dll
 0002:00000668       __imp_?SelectTkjour@CZIM_TkjourUtil@@QAEHHHAAH@Z 100c3668     ZIM15_TkjourUtil:ZIM15_TkjourUtil.dll
 0002:0000066c       __imp_?SelectTkjourDlg@CZIM_TkjourUtil@@QAEHHHAAHPAVCWnd@@@Z 100c366c     ZIM15_TkjourUtil:ZIM15_TkjourUtil.dll
 0002:00000670       __imp_?SelectTkjourCount@CZIM_TkjourUtil@@QAEHHH@Z 100c3670     ZIM15_TkjourUtil:ZIM15_TkjourUtil.dll
 0002:00000674       __imp_??0CZIM_TkjourUtil@@QAE@XZ 100c3674     ZIM15_TkjourUtil:ZIM15_TkjourUtil.dll
 0002:00000678       \177ZIM15_TkjourUtil_NULL_THUNK_DATA 100c3678     ZIM15_TkjourUtil:ZIM15_TkjourUtil.dll
 0002:0000067c       __imp_?MoveNext@CDATA@@QAEHXZ 100c367c     ZIM15_ZmSub:ZIM15_ZmSub.dll
 0002:00000680       __imp_?MoveFirst@CDATA@@QAEHXZ 100c3680     ZIM15_ZmSub:ZIM15_ZmSub.dll
 0002:00000684       __imp_?Requery@CDATA@@QAEHHHPBDHH@Z 100c3684     ZIM15_ZmSub:ZIM15_ZmSub.dll
 0002:00000688       __imp_?MoveNext@CTKREC@@QAEHXZ 100c3688     ZIM15_ZmSub:ZIM15_ZmSub.dll
 0002:0000068c       __imp_?SetAbsolutePosition@CDATA@@QAEHH@Z 100c368c     ZIM15_ZmSub:ZIM15_ZmSub.dll
 0002:00000690       __imp_?VolumeClose@CDBZmSub@@QAEXXZ 100c3690     ZIM15_ZmSub:ZIM15_ZmSub.dll
 0002:00000694       __imp_?AddNew@COWNTB@@QAEXXZ 100c3694     ZIM15_ZmSub:ZIM15_ZmSub.dll
 0002:00000698       __imp_?Update@COWNTB@@QAEHXZ 100c3698     ZIM15_ZmSub:ZIM15_ZmSub.dll
 0002:0000069c       __imp_?Edit@COWNTB@@QAEXXZ 100c369c     ZIM15_ZmSub:ZIM15_ZmSub.dll
 0002:000006a0       __imp_?object_check@CDBZmSub@@QAEHHPBD@Z 100c36a0     ZIM15_ZmSub:ZIM15_ZmSub.dll
 0002:000006a4       __imp_?TklnkOpen@CDBZmSub@@QAEHPBD@Z 100c36a4     ZIM15_ZmSub:ZIM15_ZmSub.dll
 0002:000006a8       __imp_?TkjourOpen@CDBZmSub@@QAEHPBD@Z 100c36a8     ZIM15_ZmSub:ZIM15_ZmSub.dll
 0002:000006ac       __imp_?TklnkClose@CDBZmSub@@QAEXXZ 100c36ac     ZIM15_ZmSub:ZIM15_ZmSub.dll
 0002:000006b0       __imp_?TkjourClose@CDBZmSub@@QAEXXZ 100c36b0     ZIM15_ZmSub:ZIM15_ZmSub.dll
 0002:000006b4       __imp_?Requery@CDBDATA@@QAEHHHPBDHH@Z 100c36b4     ZIM15_ZmSub:ZIM15_ZmSub.dll
 0002:000006b8       __imp_?DataCorrect@CDBDATA@@QAEHXZ 100c36b8     ZIM15_ZmSub:ZIM15_ZmSub.dll
 0002:000006bc       __imp_?Find2@CEZREC@@QAEHPBDJ@Z 100c36bc     ZIM15_ZmSub:ZIM15_ZmSub.dll
 0002:000006c0       __imp_?Requery@CKNREC@@QAEHPBDH@Z 100c36c0     ZIM15_ZmSub:ZIM15_ZmSub.dll
 0002:000006c4       __imp_?AddNew@CBMNAME@@QAEXXZ 100c36c4     ZIM15_ZmSub:ZIM15_ZmSub.dll
 0002:000006c8       __imp_?Update@CBMNAME@@QAEHXZ 100c36c8     ZIM15_ZmSub:ZIM15_ZmSub.dll
 0002:000006cc       __imp_?Delete@CTKREC@@QAEHXZ 100c36cc     ZIM15_ZmSub:ZIM15_ZmSub.dll
 0002:000006d0       __imp_??1CDBDATA@@QAE@XZ   100c36d0     ZIM15_ZmSub:ZIM15_ZmSub.dll
 0002:000006d4       __imp_?SetAbsolutePosition@CTKREC@@QAEHH@Z 100c36d4     ZIM15_ZmSub:ZIM15_ZmSub.dll
 0002:000006d8       __imp_?SetAbsolutePosition@CRTREC@@QAEHH@Z 100c36d8     ZIM15_ZmSub:ZIM15_ZmSub.dll
 0002:000006dc       __imp_?Delete@CRTREC@@QAEHHH@Z 100c36dc     ZIM15_ZmSub:ZIM15_ZmSub.dll
 0002:000006e0       __imp_?Append@CRTREC@@QAEHHHH@Z 100c36e0     ZIM15_ZmSub:ZIM15_ZmSub.dll
 0002:000006e4       __imp_?Requery@CTKLNK@@QAEHPBD@Z 100c36e4     ZIM15_ZmSub:ZIM15_ZmSub.dll
 0002:000006e8       __imp_?MoveLast@CTKLNK@@QAEHXZ 100c36e8     ZIM15_ZmSub:ZIM15_ZmSub.dll
 0002:000006ec       __imp_?DBUserNo@CDBZmSub@@QAEHXZ 100c36ec     ZIM15_ZmSub:ZIM15_ZmSub.dll
 0002:000006f0       __imp_?DataAppend@CDBDATA@@QAEHH@Z 100c36f0     ZIM15_ZmSub:ZIM15_ZmSub.dll
 0002:000006f4       __imp_?DataAppend@CDBDATA@@QAEHXZ 100c36f4     ZIM15_ZmSub:ZIM15_ZmSub.dll
 0002:000006f8       __imp_?MoveFirst@CKZREC@@QAEHXZ 100c36f8     ZIM15_ZmSub:ZIM15_ZmSub.dll
 0002:000006fc       __imp_?MoveNext@CKZREC@@QAEHXZ 100c36fc     ZIM15_ZmSub:ZIM15_ZmSub.dll
 0002:00000700       __imp_?GetRecordCount@CMINFO@@QAEHXZ 100c3700     ZIM15_ZmSub:ZIM15_ZmSub.dll
 0002:00000704       __imp_?MoveFirst@CKSHNAM@@QAEHXZ 100c3704     ZIM15_ZmSub:ZIM15_ZmSub.dll
 0002:00000708       __imp_?MoveNext@CKSHNAM@@QAEHXZ 100c3708     ZIM15_ZmSub:ZIM15_ZmSub.dll
 0002:0000070c       __imp_?SetAbsolutePosition@CIMAGE@@QAEHH@Z 100c370c     ZIM15_ZmSub:ZIM15_ZmSub.dll
 0002:00000710       __imp_?DecodeImage@CIMAGE@@QAEPAUtag_IMREC@@XZ 100c3710     ZIM15_ZmSub:ZIM15_ZmSub.dll
 0002:00000714       __imp_?MoveLast@CTKJOUR@@QAEHXZ 100c3714     ZIM15_ZmSub:ZIM15_ZmSub.dll
 0002:00000718       __imp_?Delete@CTKJOUR@@QAEHXZ 100c3718     ZIM15_ZmSub:ZIM15_ZmSub.dll
 0002:0000071c       __imp_?MovePrev@CTKJOUR@@QAEHXZ 100c371c     ZIM15_ZmSub:ZIM15_ZmSub.dll
 0002:00000720       __imp_?Delete@CTKLNK@@QAEHXZ 100c3720     ZIM15_ZmSub:ZIM15_ZmSub.dll
 0002:00000724       __imp_?MovePrev@CTKLNK@@QAEHXZ 100c3724     ZIM15_ZmSub:ZIM15_ZmSub.dll
 0002:00000728       __imp_?GetRecordCount@CRTREC@@QAEHXZ 100c3728     ZIM15_ZmSub:ZIM15_ZmSub.dll
 0002:0000072c       __imp_?Correct@CRTREC@@QAEHHHHH@Z 100c372c     ZIM15_ZmSub:ZIM15_ZmSub.dll
 0002:00000730       __imp_?GetFilter@CEZREC@@QAE?AV?$CStringT@DV?$StrTraitMFC_DLL@DV?$ChTraitsCRT@D@ATL@@@@@ATL@@XZ 100c3730     ZIM15_ZmSub:ZIM15_ZmSub.dll
 0002:00000734       __imp_?MoveLast@CRTREC@@QAEHXZ 100c3734     ZIM15_ZmSub:ZIM15_ZmSub.dll
 0002:00000738       __imp_?Edit@CKNREC@@QAEXXZ 100c3738     ZIM15_ZmSub:ZIM15_ZmSub.dll
 0002:0000073c       __imp_?Update@CKNREC@@QAEHH@Z 100c373c     ZIM15_ZmSub:ZIM15_ZmSub.dll
 0002:00000740       __imp_?Append@CSTREC@@QAEHPAD0HHH0@Z 100c3740     ZIM15_ZmSub:ZIM15_ZmSub.dll
 0002:00000744       __imp_?DcntlLock@CDBZmSub@@QAEHHH@Z 100c3744     ZIM15_ZmSub:ZIM15_ZmSub.dll
 0002:00000748       __imp_?GetZmErrMsg@CDBZmSub@@QAE?AV?$CStringT@DV?$StrTraitMFC_DLL@DV?$ChTraitsCRT@D@ATL@@@@@ATL@@XZ 100c3748     ZIM15_ZmSub:ZIM15_ZmSub.dll
 0002:0000074c       __imp_?GetRecordCount@CTKREC@@QAEHXZ 100c374c     ZIM15_ZmSub:ZIM15_ZmSub.dll
 0002:00000750       __imp_?MoveFirst@CEZREC@@QAEHXZ 100c3750     ZIM15_ZmSub:ZIM15_ZmSub.dll
 0002:00000754       __imp_?MoveLast@CTKREC@@QAEHXZ 100c3754     ZIM15_ZmSub:ZIM15_ZmSub.dll
 0002:00000758       __imp_??0CDBDATA@@QAE@PAVCDatarec@@@Z 100c3758     ZIM15_ZmSub:ZIM15_ZmSub.dll
 0002:0000075c       __imp_?MoveNext@CSTREC@@QAEHXZ 100c375c     ZIM15_ZmSub:ZIM15_ZmSub.dll
 0002:00000760       __imp_?MoveFirst@CSTREC@@QAEHXZ 100c3760     ZIM15_ZmSub:ZIM15_ZmSub.dll
 0002:00000764       __imp_?MoveNext@CRTREC@@QAEHXZ 100c3764     ZIM15_ZmSub:ZIM15_ZmSub.dll
 0002:00000768       __imp_?MoveFirst@CRTREC@@QAEHXZ 100c3768     ZIM15_ZmSub:ZIM15_ZmSub.dll
 0002:0000076c       __imp_?Requery@CRTREC@@QAEHPBD@Z 100c376c     ZIM15_ZmSub:ZIM15_ZmSub.dll
 0002:00000770       __imp_?SetMasterDB@CDBZmSub@@QAEHHPBDEHHHPAD1@Z 100c3770     ZIM15_ZmSub:ZIM15_ZmSub.dll
 0002:00000774       __imp_?hl_rev@@YAXPAXH@Z   100c3774     ZIM15_ZmSub:ZIM15_ZmSub.dll
 0002:00000778       __imp_?MoveNext@CBMNAME@@QAEHXZ 100c3778     ZIM15_ZmSub:ZIM15_ZmSub.dll
 0002:0000077c       __imp_?MoveFirst@CBMNAME@@QAEHXZ 100c377c     ZIM15_ZmSub:ZIM15_ZmSub.dll
 0002:00000780       __imp_?Requery@CBMNAME@@QAEHPBD0@Z 100c3780     ZIM15_ZmSub:ZIM15_ZmSub.dll
 0002:00000784       __imp_?MovePrev@CTKREC@@QAEHXZ 100c3784     ZIM15_ZmSub:ZIM15_ZmSub.dll
 0002:00000788       __imp_?Edit@CTKREC@@QAEXXZ 100c3788     ZIM15_ZmSub:ZIM15_ZmSub.dll
 0002:0000078c       __imp_?Update@CTKREC@@QAEHXZ 100c378c     ZIM15_ZmSub:ZIM15_ZmSub.dll
 0002:00000790       __imp_?AddNew@CTKREC@@QAEXXZ 100c3790     ZIM15_ZmSub:ZIM15_ZmSub.dll
 0002:00000794       __imp_?ExitMode@CDBZmSub@@QAEXH@Z 100c3794     ZIM15_ZmSub:ZIM15_ZmSub.dll
 0002:00000798       __imp_?GetRecordCount@CDATA@@QAEHXZ 100c3798     ZIM15_ZmSub:ZIM15_ZmSub.dll
 0002:0000079c       __imp_?VolumeOpen@CDBZmSub@@QAEHXZ 100c379c     ZIM15_ZmSub:ZIM15_ZmSub.dll
 0002:000007a0       __imp_?SetAbsolutePosition@CSTREC@@QAEHH@Z 100c37a0     ZIM15_ZmSub:ZIM15_ZmSub.dll
 0002:000007a4       __imp_?Delete@CSTREC@@QAEHPAD0H@Z 100c37a4     ZIM15_ZmSub:ZIM15_ZmSub.dll
 0002:000007a8       __imp_?InpcToPjis@CDBZmSub@@QAEKH@Z 100c37a8     ZIM15_ZmSub:ZIM15_ZmSub.dll
 0002:000007ac       __imp_?Correct@CSTREC@@QAEHPAD0HHHH0@Z 100c37ac     ZIM15_ZmSub:ZIM15_ZmSub.dll
 0002:000007b0       __imp_?MoveFirst@CTKREC@@QAEHXZ 100c37b0     ZIM15_ZmSub:ZIM15_ZmSub.dll
 0002:000007b4       __imp_?GetFilter@CTKREC@@QAE?AV?$CStringT@DV?$StrTraitMFC_DLL@DV?$ChTraitsCRT@D@ATL@@@@@ATL@@XZ 100c37b4     ZIM15_ZmSub:ZIM15_ZmSub.dll
 0002:000007b8       __imp_?OwnTblClose@CDBZmSub@@QAEXXZ 100c37b8     ZIM15_ZmSub:ZIM15_ZmSub.dll
 0002:000007bc       __imp_?Requery@COWNTB@@QAEHPBD@Z 100c37bc     ZIM15_ZmSub:ZIM15_ZmSub.dll
 0002:000007c0       __imp_?OwnTblOpen@CDBZmSub@@QAEHPBD@Z 100c37c0     ZIM15_ZmSub:ZIM15_ZmSub.dll
 0002:000007c4       __imp_?GokeiMeisyoRead@CDBZmSub@@QAEHH@Z 100c37c4     ZIM15_ZmSub:ZIM15_ZmSub.dll
 0002:000007c8       __imp_?GetRecordCount@CSTREC@@QAEHXZ 100c37c8     ZIM15_ZmSub:ZIM15_ZmSub.dll
 0002:000007cc       __imp_?Requery@CSTREC@@QAEHPBD@Z 100c37cc     ZIM15_ZmSub:ZIM15_ZmSub.dll
 0002:000007d0       __imp_?Edit@CBMEZREC@@QAEXXZ 100c37d0     ZIM15_ZmSub:ZIM15_ZmSub.dll
 0002:000007d4       __imp_?Update@CBMEZREC@@QAEHXZ 100c37d4     ZIM15_ZmSub:ZIM15_ZmSub.dll
 0002:000007d8       __imp_?AddNew@CBMEZREC@@QAEXXZ 100c37d8     ZIM15_ZmSub:ZIM15_ZmSub.dll
 0002:000007dc       __imp_?Edit@CEZREC@@QAEXXZ 100c37dc     ZIM15_ZmSub:ZIM15_ZmSub.dll
 0002:000007e0       __imp_?Update@CEZREC@@QAEHXZ 100c37e0     ZIM15_ZmSub:ZIM15_ZmSub.dll
 0002:000007e4       __imp_?AddNew@CEZREC@@QAEXXZ 100c37e4     ZIM15_ZmSub:ZIM15_ZmSub.dll
 0002:000007e8       __imp_?MoveNext@CMINFO@@QAEHXZ 100c37e8     ZIM15_ZmSub:ZIM15_ZmSub.dll
 0002:000007ec       __imp_?MoveFirst@CMINFO@@QAEHXZ 100c37ec     ZIM15_ZmSub:ZIM15_ZmSub.dll
 0002:000007f0       __imp_?PjisToGkrec@CDBZmSub@@QAEPAU_DBGKREC@@K@Z 100c37f0     ZIM15_ZmSub:ZIM15_ZmSub.dll
 0002:000007f4       __imp_?PjisToKnrec@CDBZmSub@@QAEPAU_DBKNREC@@K@Z 100c37f4     ZIM15_ZmSub:ZIM15_ZmSub.dll
 0002:000007f8       __imp_?MoveNext@CKNREC@@QAEHXZ 100c37f8     ZIM15_ZmSub:ZIM15_ZmSub.dll
 0002:000007fc       __imp_?MoveFirst@CKNREC@@QAEHXZ 100c37fc     ZIM15_ZmSub:ZIM15_ZmSub.dll
 0002:00000800       __imp_?GetRecordCount@CKNREC@@QAEHXZ 100c3800     ZIM15_ZmSub:ZIM15_ZmSub.dll
 0002:00000804       __imp_?Find@CTKREC@@QAEHJ@Z 100c3804     ZIM15_ZmSub:ZIM15_ZmSub.dll
 0002:00000808       __imp_?Requery@CTKREC@@QAEHPBDH@Z 100c3808     ZIM15_ZmSub:ZIM15_ZmSub.dll
 0002:0000080c       __imp_?MoveNext@CEZREC@@QAEHXZ 100c380c     ZIM15_ZmSub:ZIM15_ZmSub.dll
 0002:00000810       __imp_?Find@CEZREC@@QAEHPBD@Z 100c3810     ZIM15_ZmSub:ZIM15_ZmSub.dll
 0002:00000814       __imp_?MoveNext@CBMEZREC@@QAEHXZ 100c3814     ZIM15_ZmSub:ZIM15_ZmSub.dll
 0002:00000818       __imp_?MoveFirst@CBMEZREC@@QAEHXZ 100c3818     ZIM15_ZmSub:ZIM15_ZmSub.dll
 0002:0000081c       __imp_?Requery@CDCNTL@@QAEHPBD@Z 100c381c     ZIM15_ZmSub:ZIM15_ZmSub.dll
 0002:00000820       __imp_?Requery@CBMEZREC@@QAEHPBDH@Z 100c3820     ZIM15_ZmSub:ZIM15_ZmSub.dll
 0002:00000824       __imp_?Find@CEZREC@@QAEHPBDJ@Z 100c3824     ZIM15_ZmSub:ZIM15_ZmSub.dll
 0002:00000828       __imp_?kjlen@@YAHPAXH@Z    100c3828     ZIM15_ZmSub:ZIM15_ZmSub.dll
 0002:0000082c       __imp_?Requery@CEZREC@@QAEHPBDH@Z 100c382c     ZIM15_ZmSub:ZIM15_ZmSub.dll
 0002:00000830       __imp_?Requery@CTKJOUR@@QAEHPBD@Z 100c3830     ZIM15_ZmSub:ZIM15_ZmSub.dll
 0002:00000834       \177ZIM15_ZmSub_NULL_THUNK_DATA 100c3834     ZIM15_ZmSub:ZIM15_ZmSub.dll
 0002:00000838       __imp__atoi                100c3838     ucrt:api-ms-win-crt-convert-l1-1-0.dll
 0002:0000083c       __imp__atol                100c383c     ucrt:api-ms-win-crt-convert-l1-1-0.dll
 0002:00000840       \177api-ms-win-crt-convert-l1-1-0_NULL_THUNK_DATA 100c3840     ucrt:api-ms-win-crt-convert-l1-1-0.dll
 0002:00000844       __imp___findclose          100c3844     ucrt:api-ms-win-crt-filesystem-l1-1-0.dll
 0002:00000848       __imp___findfirst64i32     100c3848     ucrt:api-ms-win-crt-filesystem-l1-1-0.dll
 0002:0000084c       \177api-ms-win-crt-filesystem-l1-1-0_NULL_THUNK_DATA 100c384c     ucrt:api-ms-win-crt-filesystem-l1-1-0.dll
 0002:00000850       __imp__free                100c3850     ucrt:api-ms-win-crt-heap-l1-1-0.dll
 0002:00000854       \177api-ms-win-crt-heap-l1-1-0_NULL_THUNK_DATA 100c3854     ucrt:api-ms-win-crt-heap-l1-1-0.dll
 0002:00000858       __imp___except1            100c3858     ucrt:api-ms-win-crt-math-l1-1-0.dll
 0002:0000085c       \177api-ms-win-crt-math-l1-1-0_NULL_THUNK_DATA 100c385c     ucrt:api-ms-win-crt-math-l1-1-0.dll
 0002:00000860       __imp___invalid_parameter_noinfo 100c3860     ucrt:api-ms-win-crt-runtime-l1-1-0.dll
 0002:00000864       __imp___errno              100c3864     ucrt:api-ms-win-crt-runtime-l1-1-0.dll
 0002:00000868       __imp__terminate           100c3868     ucrt:api-ms-win-crt-runtime-l1-1-0.dll
 0002:0000086c       __imp___initterm_e         100c386c     ucrt:api-ms-win-crt-runtime-l1-1-0.dll
 0002:00000870       __imp___initterm           100c3870     ucrt:api-ms-win-crt-runtime-l1-1-0.dll
 0002:00000874       __imp___cexit              100c3874     ucrt:api-ms-win-crt-runtime-l1-1-0.dll
 0002:00000878       __imp___crt_atexit         100c3878     ucrt:api-ms-win-crt-runtime-l1-1-0.dll
 0002:0000087c       __imp___execute_onexit_table 100c387c     ucrt:api-ms-win-crt-runtime-l1-1-0.dll
 0002:00000880       __imp___register_onexit_function 100c3880     ucrt:api-ms-win-crt-runtime-l1-1-0.dll
 0002:00000884       __imp___initialize_onexit_table 100c3884     ucrt:api-ms-win-crt-runtime-l1-1-0.dll
 0002:00000888       __imp___initialize_narrow_environment 100c3888     ucrt:api-ms-win-crt-runtime-l1-1-0.dll
 0002:0000088c       __imp___configure_narrow_argv 100c388c     ucrt:api-ms-win-crt-runtime-l1-1-0.dll
 0002:00000890       __imp___seh_filter_dll     100c3890     ucrt:api-ms-win-crt-runtime-l1-1-0.dll
 0002:00000894       __imp___invalid_parameter_noinfo_noreturn 100c3894     ucrt:api-ms-win-crt-runtime-l1-1-0.dll
 0002:00000898       \177api-ms-win-crt-runtime-l1-1-0_NULL_THUNK_DATA 100c3898     ucrt:api-ms-win-crt-runtime-l1-1-0.dll
 0002:0000089c       __imp____stdio_common_vsprintf_s 100c389c     ucrt:api-ms-win-crt-stdio-l1-1-0.dll
 0002:000008a0       __imp____stdio_common_vsscanf 100c38a0     ucrt:api-ms-win-crt-stdio-l1-1-0.dll
 0002:000008a4       \177api-ms-win-crt-stdio-l1-1-0_NULL_THUNK_DATA 100c38a4     ucrt:api-ms-win-crt-stdio-l1-1-0.dll
 0002:000008a8       __imp__strncmp             100c38a8     ucrt:api-ms-win-crt-string-l1-1-0.dll
 0002:000008ac       __imp__strtok_s            100c38ac     ucrt:api-ms-win-crt-string-l1-1-0.dll
 0002:000008b0       __imp__strcat_s            100c38b0     ucrt:api-ms-win-crt-string-l1-1-0.dll
 0002:000008b4       __imp__strncpy_s           100c38b4     ucrt:api-ms-win-crt-string-l1-1-0.dll
 0002:000008b8       __imp__isdigit             100c38b8     ucrt:api-ms-win-crt-string-l1-1-0.dll
 0002:000008bc       __imp___strnicmp           100c38bc     ucrt:api-ms-win-crt-string-l1-1-0.dll
 0002:000008c0       __imp__strcpy_s            100c38c0     ucrt:api-ms-win-crt-string-l1-1-0.dll
 0002:000008c4       \177api-ms-win-crt-string-l1-1-0_NULL_THUNK_DATA 100c38c4     ucrt:api-ms-win-crt-string-l1-1-0.dll
 0002:000008c8       __imp__ldiv                100c38c8     ucrt:api-ms-win-crt-utility-l1-1-0.dll
 0002:000008cc       __imp__qsort_s             100c38cc     ucrt:api-ms-win-crt-utility-l1-1-0.dll
 0002:000008d0       __imp__qsort               100c38d0     ucrt:api-ms-win-crt-utility-l1-1-0.dll
 0002:000008d4       \177api-ms-win-crt-utility-l1-1-0_NULL_THUNK_DATA 100c38d4     ucrt:api-ms-win-crt-utility-l1-1-0.dll
 0002:000008d8       __imp_??1CListBox@@UAE@XZ  100c38d8     mfc140:mfc140.dll
 0002:000008dc       __imp_??1CObArray@@UAE@XZ  100c38dc     mfc140:mfc140.dll
 0002:000008e0       __imp_?Find@?$CStringT@DV?$StrTraitMFC_DLL@DV?$ChTraitsCRT@D@ATL@@@@@ATL@@QBEHPBDH@Z 100c38e0     mfc140:mfc140.dll
 0002:000008e4       __imp_??A?$CSimpleStringT@D$00@ATL@@QBEDH@Z 100c38e4     mfc140:mfc140.dll
 0002:000008e8       __imp_??1CComboBox@@UAE@XZ 100c38e8     mfc140:mfc140.dll
 0002:000008ec       __imp_?MakeUpper@?$CStringT@DV?$StrTraitMFC_DLL@DV?$ChTraitsCRT@D@ATL@@@@@ATL@@QAEAAV12@XZ 100c38ec     mfc140:mfc140.dll
 0002:000008f0       __imp_??Y?$CStringT@DV?$StrTraitMFC_DLL@DV?$ChTraitsCRT@D@ATL@@@@@ATL@@QAEAAV01@ABV?$CSimpleStringT@D$00@1@@Z 100c38f0     mfc140:mfc140.dll
 0002:000008f4       __imp_?ReleaseDispatch@COleDispatchDriver@@QAEXXZ 100c38f4     mfc140:mfc140.dll
 0002:000008f8       __imp_??0CClientDC@@QAE@PAVCWnd@@@Z 100c38f8     mfc140:mfc140.dll
 0002:000008fc       __imp_??1CClientDC@@UAE@XZ 100c38fc     mfc140:mfc140.dll
 0002:00000900       __imp_?GetRuntimeClass@CFont@@UBEPAUCRuntimeClass@@XZ 100c3900     mfc140:mfc140.dll
 0002:00000904       __imp_?CreatePointFontIndirect@CFont@@QAEHPBUtagLOGFONTA@@PAVCDC@@@Z 100c3904     mfc140:mfc140.dll
 0002:00000908       __imp_?SelectObject@CDC@@UAEPAVCFont@@PAV2@@Z 100c3908     mfc140:mfc140.dll
 0002:0000090c       __imp_?Copy@CByteArray@@QAEXABV1@@Z 100c390c     mfc140:mfc140.dll
 0002:00000910       __imp_?Insert@?$CStringT@DV?$StrTraitMFC_DLL@DV?$ChTraitsCRT@D@ATL@@@@@ATL@@QAEHHD@Z 100c3910     mfc140:mfc140.dll
 0002:00000914       __imp_??0CDWordArray@@QAE@XZ 100c3914     mfc140:mfc140.dll
 0002:00000918       __imp_??1CDWordArray@@UAE@XZ 100c3918     mfc140:mfc140.dll
 0002:0000091c       __imp_?SetSize@CDWordArray@@QAEXHH@Z 100c391c     mfc140:mfc140.dll
 0002:00000920       __imp_?SetAtGrow@CDWordArray@@QAEXHK@Z 100c3920     mfc140:mfc140.dll
 0002:00000924       __imp_?ExecuteSQL@CDatabase@@QAEXPBD@Z 100c3924     mfc140:mfc140.dll
 0002:00000928       __imp_?RFX_Text@@YGXPAVCFieldExchange@@PBDAAV?$CStringT@DV?$StrTraitMFC_DLL@DV?$ChTraitsCRT@D@ATL@@@@@ATL@@HHF@Z 100c3928     mfc140:mfc140.dll
 0002:0000092c       __imp_?RFX_Long@@YGXPAVCFieldExchange@@PBDAAJ@Z 100c392c     mfc140:mfc140.dll
 0002:00000930       __imp_?GetParentFrame@CWnd@@QBEPAVCFrameWnd@@XZ 100c3930     mfc140:mfc140.dll
 0002:00000934       __imp_?GetWindowTextA@CWnd@@QBEXAAV?$CStringT@DV?$StrTraitMFC_DLL@DV?$ChTraitsCRT@D@ATL@@@@@ATL@@@Z 100c3934     mfc140:mfc140.dll
 0002:00000938       __imp_??0CToolBar@@QAE@XZ  100c3938     mfc140:mfc140.dll
 0002:0000093c       __imp_??1CToolBar@@UAE@XZ  100c393c     mfc140:mfc140.dll
 0002:00000940       __imp_?GetThisMessageMap@CToolBar@@KGPBUAFX_MSGMAP@@XZ 100c3940     mfc140:mfc140.dll
 0002:00000944       __imp_?OnUpdateCmdUI@CToolBar@@UAEXPAVCFrameWnd@@H@Z 100c3944     mfc140:mfc140.dll
 0002:00000948       __imp_?GetRuntimeClass@CToolBar@@UBEPAUCRuntimeClass@@XZ 100c3948     mfc140:mfc140.dll
 0002:0000094c       __imp_?DestroyWindow@CControlBar@@UAEHXZ 100c394c     mfc140:mfc140.dll
 0002:00000950       __imp_?PreCreateWindow@CControlBar@@UAEHAAUtagCREATESTRUCTA@@@Z 100c3950     mfc140:mfc140.dll
 0002:00000954       __imp_?OnToolHitTest@CToolBar@@UBEHVCPoint@@PAUtagTOOLINFOA@@@Z 100c3954     mfc140:mfc140.dll
 0002:00000958       __imp_?get_accName@CToolBar@@UAEJUtagVARIANT@@PAPA_W@Z 100c3958     mfc140:mfc140.dll
 0002:0000095c       __imp_?PreTranslateMessage@CControlBar@@UAEHPAUtagMSG@@@Z 100c395c     mfc140:mfc140.dll
 0002:00000960       __imp_?WindowProc@CControlBar@@UAEJIIJ@Z 100c3960     mfc140:mfc140.dll
 0002:00000964       __imp_?PostNcDestroy@CControlBar@@UAEXXZ 100c3964     mfc140:mfc140.dll
 0002:00000968       __imp_?CalcFixedLayout@CToolBar@@UAE?AVCSize@@HH@Z 100c3968     mfc140:mfc140.dll
 0002:0000096c       __imp_?CalcDynamicLayout@CToolBar@@UAE?AVCSize@@HK@Z 100c396c     mfc140:mfc140.dll
 0002:00000970       __imp_?CalcInsideRect@CControlBar@@UBEXAAVCRect@@H@Z 100c3970     mfc140:mfc140.dll
 0002:00000974       __imp_?DoPaint@CControlBar@@UAEXPAVCDC@@@Z 100c3974     mfc140:mfc140.dll
 0002:00000978       __imp_?DrawBorders@CControlBar@@UAEXPAVCDC@@AAVCRect@@@Z 100c3978     mfc140:mfc140.dll
 0002:0000097c       __imp_?DrawGripper@CControlBar@@UAEXPAVCDC@@ABVCRect@@@Z 100c397c     mfc140:mfc140.dll
 0002:00000980       __imp_?DrawNCGripper@CControlBar@@UAEXPAVCDC@@ABVCRect@@@Z 100c3980     mfc140:mfc140.dll
 0002:00000984       __imp_?DrawThemedGripper@CControlBar@@UAEHPAVCDC@@ABVCRect@@H@Z 100c3984     mfc140:mfc140.dll
 0002:00000988       __imp_?DrawNonThemedGripper@CControlBar@@UAEHPAVCDC@@ABVCRect@@@Z 100c3988     mfc140:mfc140.dll
 0002:0000098c       __imp_?DelayShow@CControlBar@@UAEXH@Z 100c398c     mfc140:mfc140.dll
 0002:00000990       __imp_?IsVisible@CControlBar@@UBEHXZ 100c3990     mfc140:mfc140.dll
 0002:00000994       __imp_?RecalcDelayShow@CControlBar@@UAEKPAUAFX_SIZEPARENTPARAMS@@@Z 100c3994     mfc140:mfc140.dll
 0002:00000998       __imp_?IsDockBar@CControlBar@@UBEHXZ 100c3998     mfc140:mfc140.dll
 0002:0000099c       __imp_?OnBarStyleChange@CToolBar@@UAEXKK@Z 100c399c     mfc140:mfc140.dll
 0002:000009a0       __imp_?SetStatusText@CControlBar@@UAEHH@Z 100c39a0     mfc140:mfc140.dll
 0002:000009a4       __imp_?Create@CToolBar@@UAEHPAVCWnd@@KI@Z 100c39a4     mfc140:mfc140.dll
 0002:000009a8       __imp_?CreateEx@CToolBar@@UAEHPAVCWnd@@KKVCRect@@I@Z 100c39a8     mfc140:mfc140.dll
 0002:000009ac       __imp_?GetItemRect@CToolBar@@UBEXHPAUtagRECT@@@Z 100c39ac     mfc140:mfc140.dll
 0002:000009b0       __imp_?wndTopMost@CWnd@@2V1@B 100c39b0     mfc140:mfc140.dll
 0002:000009b4       __imp_?MeasureItem@CMenu@@UAEXPAUtagMEASUREITEMSTRUCT@@@Z 100c39b4     mfc140:mfc140.dll
 0002:000009b8       __imp_?DrawItem@CMenu@@UAEXPAUtagDRAWITEMSTRUCT@@@Z 100c39b8     mfc140:mfc140.dll
 0002:000009bc       __imp_?GetRuntimeClass@CMenu@@UBEPAUCRuntimeClass@@XZ 100c39bc     mfc140:mfc140.dll
 0002:000009c0       __imp_?DestroyMenu@CMenu@@QAEHXZ 100c39c0     mfc140:mfc140.dll
 0002:000009c4       __imp_?AfxFindResourceHandle@@YGPAUHINSTANCE__@@PBD0@Z 100c39c4     mfc140:mfc140.dll
 0002:000009c8       __imp_?Attach@CMenu@@QAEHPAUHMENU__@@@Z 100c39c8     mfc140:mfc140.dll
 0002:000009cc       __imp_?FromHandle@CMenu@@SGPAV1@PAUHMENU__@@@Z 100c39cc     mfc140:mfc140.dll
 0002:000009d0       __imp_?TrackPopupMenu@CMenu@@QAEHIHHPAVCWnd@@PBUtagRECT@@@Z 100c39d0     mfc140:mfc140.dll
 0002:000009d4       __imp_?SetFocus@CWnd@@QAEPAV1@XZ 100c39d4     mfc140:mfc140.dll
 0002:000009d8       __imp_?FromHandle@CDC@@SGPAV1@PAUHDC__@@@Z 100c39d8     mfc140:mfc140.dll
 0002:000009dc       __imp_??0CPen@@QAE@HHK@Z   100c39dc     mfc140:mfc140.dll
 0002:000009e0       __imp_?GetRuntimeClass@CPen@@UBEPAUCRuntimeClass@@XZ 100c39e0     mfc140:mfc140.dll
 0002:000009e4       __imp_?SelectObject@CDC@@QAEPAVCPen@@PAV2@@Z 100c39e4     mfc140:mfc140.dll
 0002:000009e8       __imp_?MoveTo@CDC@@QAE?AVCPoint@@HH@Z 100c39e8     mfc140:mfc140.dll
 0002:000009ec       __imp_?LineTo@CDC@@QAEHHH@Z 100c39ec     mfc140:mfc140.dll
 0002:000009f0       __imp_?InvokeHelper@CWnd@@QAAXJGGPAXPBEZZ 100c39f0     mfc140:mfc140.dll
 0002:000009f4       __imp_?SetScrollInfo@CWnd@@QAEHHPAUtagSCROLLINFO@@H@Z 100c39f4     mfc140:mfc140.dll
 0002:000009f8       __imp_?GetScrollInfo@CWnd@@QAEHHPAUtagSCROLLINFO@@I@Z 100c39f8     mfc140:mfc140.dll
 0002:000009fc       __imp_??0?$CStringT@DV?$StrTraitMFC_DLL@DV?$ChTraitsCRT@D@ATL@@@@@ATL@@QAE@PBE@Z 100c39fc     mfc140:mfc140.dll
 0002:00000a00       __imp_?IsWindowEnabled@CWnd@@QBEHXZ 100c3a00     mfc140:mfc140.dll
 0002:00000a04       __imp_?GetStyle@CWnd@@QBEKXZ 100c3a04     mfc140:mfc140.dll
 0002:00000a08       __imp_?RunModalLoop@CWnd@@QAEHK@Z 100c3a08     mfc140:mfc140.dll
 0002:00000a0c       __imp_?LoadToolBar@CToolBar@@QAEHPBD@Z 100c3a0c     mfc140:mfc140.dll
 0002:00000a10       __imp_?EndDialog@CDialog@@QAEXH@Z 100c3a10     mfc140:mfc140.dll
 0002:00000a14       __imp_?Default@CWnd@@IAEJXZ 100c3a14     mfc140:mfc140.dll
 0002:00000a18       __imp_?CharToItem@CListBox@@UAEHII@Z 100c3a18     mfc140:mfc140.dll
 0002:00000a1c       __imp_?VKeyToItem@CListBox@@UAEHII@Z 100c3a1c     mfc140:mfc140.dll
 0002:00000a20       __imp_?DeleteItem@CListBox@@UAEXPAUtagDELETEITEMSTRUCT@@@Z 100c3a20     mfc140:mfc140.dll
 0002:00000a24       __imp_?CompareItem@CListBox@@UAEHPAUtagCOMPAREITEMSTRUCT@@@Z 100c3a24     mfc140:mfc140.dll
 0002:00000a28       __imp_?MeasureItem@CListBox@@UAEXPAUtagMEASUREITEMSTRUCT@@@Z 100c3a28     mfc140:mfc140.dll
 0002:00000a2c       __imp_?DrawItem@CListBox@@UAEXPAUtagDRAWITEMSTRUCT@@@Z 100c3a2c     mfc140:mfc140.dll
 0002:00000a30       __imp_?Create@CListBox@@UAEHKABUtagRECT@@PAVCWnd@@I@Z 100c3a30     mfc140:mfc140.dll
 0002:00000a34       __imp_?OnChildNotify@CListBox@@MAEHIIJPAJ@Z 100c3a34     mfc140:mfc140.dll
 0002:00000a38       __imp_?GetRuntimeClass@CListBox@@UBEPAUCRuntimeClass@@XZ 100c3a38     mfc140:mfc140.dll
 0002:00000a3c       __imp_??0CStringArray@@QAE@XZ 100c3a3c     mfc140:mfc140.dll
 0002:00000a40       __imp_??1CStringArray@@UAE@XZ 100c3a40     mfc140:mfc140.dll
 0002:00000a44       __imp_?SetAtGrow@CStringArray@@QAEXHABV?$CStringT@DV?$StrTraitMFC_DLL@DV?$ChTraitsCRT@D@ATL@@@@@ATL@@@Z 100c3a44     mfc140:mfc140.dll
 0002:00000a48       __imp_?UpdateData@CWnd@@QAEHH@Z 100c3a48     mfc140:mfc140.dll
 0002:00000a4c       __imp_?Copy@CStringArray@@QAEXABV1@@Z 100c3a4c     mfc140:mfc140.dll
 0002:00000a50       __imp_?SetBkMode@CDC@@QAEHH@Z 100c3a50     mfc140:mfc140.dll
 0002:00000a54       __imp_?FillSolidRect@CDC@@QAEXPBUtagRECT@@K@Z 100c3a54     mfc140:mfc140.dll
 0002:00000a58       __imp_?GetProperty@COleDispatchDriver@@QBEXJGPAX@Z 100c3a58     mfc140:mfc140.dll
 0002:00000a5c       __imp_?DDX_Radio@@YGXPAVCDataExchange@@HAAH@Z 100c3a5c     mfc140:mfc140.dll
 0002:00000a60       __imp_?GetCheckedRadioButton@CWnd@@QBEHHH@Z 100c3a60     mfc140:mfc140.dll
 0002:00000a64       __imp_?Create@CScrollBar@@UAEHKABUtagRECT@@PAVCWnd@@I@Z 100c3a64     mfc140:mfc140.dll
 0002:00000a68       __imp_?GetRuntimeClass@CScrollBar@@UBEPAUCRuntimeClass@@XZ 100c3a68     mfc140:mfc140.dll
 0002:00000a6c       __imp_??1CScrollBar@@UAE@XZ 100c3a6c     mfc140:mfc140.dll
 0002:00000a70       __imp_?OnVScroll@CWnd@@IAEXIIPAVCScrollBar@@@Z 100c3a70     mfc140:mfc140.dll
 0002:00000a74       __imp_?GetWindowTextA@CWnd@@QBEHPADH@Z 100c3a74     mfc140:mfc140.dll
 0002:00000a78       __imp_?SetWindowPlacement@CWnd@@QAEHPBUtagWINDOWPLACEMENT@@@Z 100c3a78     mfc140:mfc140.dll
 0002:00000a7c       __imp_?DeleteItem@CComboBox@@UAEXPAUtagDELETEITEMSTRUCT@@@Z 100c3a7c     mfc140:mfc140.dll
 0002:00000a80       __imp_?CompareItem@CComboBox@@UAEHPAUtagCOMPAREITEMSTRUCT@@@Z 100c3a80     mfc140:mfc140.dll
 0002:00000a84       __imp_?MeasureItem@CComboBox@@UAEXPAUtagMEASUREITEMSTRUCT@@@Z 100c3a84     mfc140:mfc140.dll
 0002:00000a88       __imp_?DrawItem@CComboBox@@UAEXPAUtagDRAWITEMSTRUCT@@@Z 100c3a88     mfc140:mfc140.dll
 0002:00000a8c       __imp_?Create@CComboBox@@UAEHKABUtagRECT@@PAVCWnd@@I@Z 100c3a8c     mfc140:mfc140.dll
 0002:00000a90       __imp_?OnChildNotify@CComboBox@@MAEHIIJPAJ@Z 100c3a90     mfc140:mfc140.dll
 0002:00000a94       __imp_?GetRuntimeClass@CComboBox@@UBEPAUCRuntimeClass@@XZ 100c3a94     mfc140:mfc140.dll
 0002:00000a98       __imp_??0CImageList@@QAE@XZ 100c3a98     mfc140:mfc140.dll
 0002:00000a9c       __imp_??1CImageList@@UAE@XZ 100c3a9c     mfc140:mfc140.dll
 0002:00000aa0       __imp_?Create@CImageList@@QAEHIHHK@Z 100c3aa0     mfc140:mfc140.dll
 0002:00000aa4       __imp_?GetThisMessageMap@CWnd@@KGPBUAFX_MSGMAP@@XZ 100c3aa4     mfc140:mfc140.dll
 0002:00000aa8       __imp_?GetLBText@CComboBox@@QBEXHAAV?$CStringT@DV?$StrTraitMFC_DLL@DV?$ChTraitsCRT@D@ATL@@@@@ATL@@@Z 100c3aa8     mfc140:mfc140.dll
 0002:00000aac       __imp_?OnChildNotify@CStatic@@MAEHIIJPAJ@Z 100c3aac     mfc140:mfc140.dll
 0002:00000ab0       __imp_?DrawItem@CStatic@@UAEXPAUtagDRAWITEMSTRUCT@@@Z 100c3ab0     mfc140:mfc140.dll
 0002:00000ab4       __imp_??0COleDispatchDriver@@QAE@PAUIDispatch@@H@Z 100c3ab4     mfc140:mfc140.dll
 0002:00000ab8       __imp_?GetThisClass@CWnd@@SGPAUCRuntimeClass@@XZ 100c3ab8     mfc140:mfc140.dll
 0002:00000abc       __imp_?GetProperty@CWnd@@QBEXJGPAX@Z 100c3abc     mfc140:mfc140.dll
 0002:00000ac0       __imp_?SetProperty@CWnd@@QAAXJGZZ 100c3ac0     mfc140:mfc140.dll
 0002:00000ac4       __imp_?Create@CStatic@@UAEHPBDKABUtagRECT@@PAVCWnd@@I@Z 100c3ac4     mfc140:mfc140.dll
 0002:00000ac8       __imp_?GetRuntimeClass@CStatic@@UBEPAUCRuntimeClass@@XZ 100c3ac8     mfc140:mfc140.dll
 0002:00000acc       __imp_??1CStatic@@UAE@XZ   100c3acc     mfc140:mfc140.dll
 0002:00000ad0       __imp_??0CDC@@QAE@XZ       100c3ad0     mfc140:mfc140.dll
 0002:00000ad4       __imp_?GetRuntimeClass@CBitmap@@UBEPAUCRuntimeClass@@XZ 100c3ad4     mfc140:mfc140.dll
 0002:00000ad8       __imp_?Attach@CDC@@QAEHPAUHDC__@@@Z 100c3ad8     mfc140:mfc140.dll
 0002:00000adc       __imp_?SelectGdiObject@CDC@@KGPAVCGdiObject@@PAUHDC__@@PAX@Z 100c3adc     mfc140:mfc140.dll
 0002:00000ae0       __imp_??0CPaintDC@@QAE@PAVCWnd@@@Z 100c3ae0     mfc140:mfc140.dll
 0002:00000ae4       __imp_??1CPaintDC@@UAE@XZ  100c3ae4     mfc140:mfc140.dll
 0002:00000ae8       __imp_?OnSetFocus@CWnd@@IAEXPAV1@@Z 100c3ae8     mfc140:mfc140.dll
 0002:00000aec       __imp_?DDX_Check@@YGXPAVCDataExchange@@HAAH@Z 100c3aec     mfc140:mfc140.dll
 0002:00000af0       __imp_?RFX_Byte@@YGXPAVCFieldExchange@@PBDAAE@Z 100c3af0     mfc140:mfc140.dll
 0002:00000af4       __imp_?OnGetCheckPosition@CCheckListBox@@UAE?AVCRect@@V2@0@Z 100c3af4     mfc140:mfc140.dll
 0002:00000af8       __imp_?MeasureItem@CCheckListBox@@UAEXPAUtagMEASUREITEMSTRUCT@@@Z 100c3af8     mfc140:mfc140.dll
 0002:00000afc       __imp_?DrawItem@CCheckListBox@@UAEXPAUtagDRAWITEMSTRUCT@@@Z 100c3afc     mfc140:mfc140.dll
 0002:00000b00       __imp_?Create@CCheckListBox@@UAEHKABUtagRECT@@PAVCWnd@@I@Z 100c3b00     mfc140:mfc140.dll
 0002:00000b04       __imp_?OnChildNotify@CCheckListBox@@MAEHIIJPAJ@Z 100c3b04     mfc140:mfc140.dll
 0002:00000b08       __imp_?accDoDefaultAction@CCheckListBox@@MAEJUtagVARIANT@@@Z 100c3b08     mfc140:mfc140.dll
 0002:00000b0c       __imp_?get_accDefaultAction@CCheckListBox@@MAEJUtagVARIANT@@PAPA_W@Z 100c3b0c     mfc140:mfc140.dll
 0002:00000b10       __imp_?get_accState@CCheckListBox@@MAEJUtagVARIANT@@PAU2@@Z 100c3b10     mfc140:mfc140.dll
 0002:00000b14       __imp_?get_accRole@CCheckListBox@@MAEJUtagVARIANT@@PAU2@@Z 100c3b14     mfc140:mfc140.dll
 0002:00000b18       __imp_?GetMessageMap@CCheckListBox@@MBEPBUAFX_MSGMAP@@XZ 100c3b18     mfc140:mfc140.dll
 0002:00000b1c       __imp_?GetRuntimeClass@CCheckListBox@@UBEPAUCRuntimeClass@@XZ 100c3b1c     mfc140:mfc140.dll
 0002:00000b20       __imp_?SendDlgItemMessageA@CWnd@@QAEJHIIJ@Z 100c3b20     mfc140:mfc140.dll
 0002:00000b24       __imp_??0CDialogTemplate@@QAE@PBUDLGTEMPLATE@@@Z 100c3b24     mfc140:mfc140.dll
 0002:00000b28       __imp_??1CDialogTemplate@@QAE@XZ 100c3b28     mfc140:mfc140.dll
 0002:00000b2c       __imp_?OnVKeyToItem@CWnd@@IAEHIPAVCListBox@@I@Z 100c3b2c     mfc140:mfc140.dll
 0002:00000b30       __imp_?SetSize@CStringArray@@QAEXHH@Z 100c3b30     mfc140:mfc140.dll
 0002:00000b34       __imp_?AfxRegisterClass@@YGHPAUtagWNDCLASSA@@@Z 100c3b34     mfc140:mfc140.dll
 0002:00000b38       __imp_?AfxThrowResourceException@@YGXXZ 100c3b38     mfc140:mfc140.dll
 0002:00000b3c       __imp_?SetBkColor@CDC@@UAEKK@Z 100c3b3c     mfc140:mfc140.dll
 0002:00000b40       __imp_??1?$CStringT@_WV?$StrTraitMFC_DLL@_WV?$ChTraitsCRT@_W@ATL@@@@@ATL@@QAE@XZ 100c3b40     mfc140:mfc140.dll
 0002:00000b44       __imp_?BeginTrans@CDatabase@@QAEHXZ 100c3b44     mfc140:mfc140.dll
 0002:00000b48       __imp_?Rollback@CDatabase@@QAEHXZ 100c3b48     mfc140:mfc140.dll
 0002:00000b4c       __imp_?CommitTrans@CDatabase@@QAEHXZ 100c3b4c     mfc140:mfc140.dll
 0002:00000b50       __imp_?GetRuntimeClass@CEdit@@UBEPAUCRuntimeClass@@XZ 100c3b50     mfc140:mfc140.dll
 0002:00000b54       __imp_??1CEdit@@UAE@XZ     100c3b54     mfc140:mfc140.dll
 0002:00000b58       __imp_?SetSize@CByteArray@@QAEXHH@Z 100c3b58     mfc140:mfc140.dll
 0002:00000b5c       __imp_?Create@CSpinButtonCtrl@@UAEHKABUtagRECT@@PAVCWnd@@I@Z 100c3b5c     mfc140:mfc140.dll
 0002:00000b60       __imp_?GetRuntimeClass@CSpinButtonCtrl@@UBEPAUCRuntimeClass@@XZ 100c3b60     mfc140:mfc140.dll
 0002:00000b64       __imp_??1CSpinButtonCtrl@@UAE@XZ 100c3b64     mfc140:mfc140.dll
 0002:00000b68       __imp_?CheckRadioButton@CWnd@@QAEXHHH@Z 100c3b68     mfc140:mfc140.dll
 0002:00000b6c       __imp_??0CObArray@@QAE@XZ  100c3b6c     mfc140:mfc140.dll
 0002:00000b70       __imp_?SetAtGrow@CObArray@@QAEXHPAVCObject@@@Z 100c3b70     mfc140:mfc140.dll
 0002:00000b74       __imp_?GetRuntimeClass@CObArray@@UBEPAUCRuntimeClass@@XZ 100c3b74     mfc140:mfc140.dll
 0002:00000b78       __imp_?Serialize@CObArray@@UAEXAAVCArchive@@@Z 100c3b78     mfc140:mfc140.dll
 0002:00000b7c       __imp_??3@YAXPAX@Z         100c3b7c     mfc140:mfc140.dll
 0002:00000b80       __imp_?Check@CRecordset@@UBEHF@Z 100c3b80     mfc140:mfc140.dll
 0002:00000b84       __imp_?DoBulkFieldExchange@CRecordset@@UAEXPAVCFieldExchange@@@Z 100c3b84     mfc140:mfc140.dll
 0002:00000b88       __imp_?OnSetUpdateOptions@CRecordset@@UAEXPAX@Z 100c3b88     mfc140:mfc140.dll
 0002:00000b8c       __imp_?OnSetOptions@CRecordset@@UAEXPAX@Z 100c3b8c     mfc140:mfc140.dll
 0002:00000b90       __imp_?Requery@CRecordset@@UAEHXZ 100c3b90     mfc140:mfc140.dll
 0002:00000b94       __imp_?Delete@CRecordset@@UAEXXZ 100c3b94     mfc140:mfc140.dll
 0002:00000b98       __imp_?Update@CRecordset@@UAEHXZ 100c3b98     mfc140:mfc140.dll
 0002:00000b9c       __imp_?Edit@CRecordset@@UAEXXZ 100c3b9c     mfc140:mfc140.dll
 0002:00000ba0       __imp_?AddNew@CRecordset@@UAEXXZ 100c3ba0     mfc140:mfc140.dll
 0002:00000ba4       __imp_?CheckRowsetError@CRecordset@@UAEXF@Z 100c3ba4     mfc140:mfc140.dll
 0002:00000ba8       __imp_?SetRowsetSize@CRecordset@@UAEXK@Z 100c3ba8     mfc140:mfc140.dll
 0002:00000bac       __imp_?Move@CRecordset@@UAEXJG@Z 100c3bac     mfc140:mfc140.dll
 0002:00000bb0       __imp_?RFX_Int@@YGXPAVCFieldExchange@@PBDAAH@Z 100c3bb0     mfc140:mfc140.dll
 0002:00000bb4       __imp_??0CRecordset@@QAE@PAVCDatabase@@@Z 100c3bb4     mfc140:mfc140.dll
 0002:00000bb8       __imp_?GetThisClass@CRecordset@@SGPAUCRuntimeClass@@XZ 100c3bb8     mfc140:mfc140.dll
 0002:00000bbc       __imp_?CompareNoCase@?$CStringT@DV?$StrTraitMFC_DLL@DV?$ChTraitsCRT@D@ATL@@@@@ATL@@QBEHPBD@Z 100c3bbc     mfc140:mfc140.dll
 0002:00000bc0       __imp_??4?$CStringT@DV?$StrTraitMFC_DLL@DV?$ChTraitsCRT@D@ATL@@@@@ATL@@QAEAAV01@PBE@Z 100c3bc0     mfc140:mfc140.dll
 0002:00000bc4       __imp_?CreateControl@CWnd@@QAEHABU_GUID@@PBDKABUtagRECT@@PAV1@IPAVCFile@@HPA_W@Z 100c3bc4     mfc140:mfc140.dll
 0002:00000bc8       __imp_?MoveWindow@CWnd@@QAEXHHHHH@Z 100c3bc8     mfc140:mfc140.dll
 0002:00000bcc       __imp_?GetDlgCtrlID@CWnd@@QBEHXZ 100c3bcc     mfc140:mfc140.dll
 0002:00000bd0       __imp_?FromHandle@CWnd@@SGPAV1@PAUHWND__@@@Z 100c3bd0     mfc140:mfc140.dll
 0002:00000bd4       __imp_??0?$CStringT@DV?$StrTraitMFC_DLL@DV?$ChTraitsCRT@D@ATL@@@@@ATL@@QAE@PBD@Z 100c3bd4     mfc140:mfc140.dll
 0002:00000bd8       __imp_?Replace@?$CStringT@DV?$StrTraitMFC_DLL@DV?$ChTraitsCRT@D@ATL@@@@@ATL@@QAEHPBD0@Z 100c3bd8     mfc140:mfc140.dll
 0002:00000bdc       __imp_?EnableWindow@CWnd@@QAEHH@Z 100c3bdc     mfc140:mfc140.dll
 0002:00000be0       __imp_?SetWindowTextA@CWnd@@QAEXPBD@Z 100c3be0     mfc140:mfc140.dll
 0002:00000be4       __imp_?GetWindowPlacement@CWnd@@QBEHPAUtagWINDOWPLACEMENT@@@Z 100c3be4     mfc140:mfc140.dll
 0002:00000be8       __imp_?GetThisEventSinkMap@CCmdTarget@@KGPBUAFX_EVENTSINKMAP@@XZ 100c3be8     mfc140:mfc140.dll
 0002:00000bec       __imp_?ModifyStyle@CWnd@@QAEHKKI@Z 100c3bec     mfc140:mfc140.dll
 0002:00000bf0       __imp_?wndTop@CWnd@@2V1@B  100c3bf0     mfc140:mfc140.dll
 0002:00000bf4       __imp_?SetWindowPos@CWnd@@QAEHPBV1@HHHHI@Z 100c3bf4     mfc140:mfc140.dll
 0002:00000bf8       __imp_?ScreenToClient@CWnd@@QBEXPAUtagRECT@@@Z 100c3bf8     mfc140:mfc140.dll
 0002:00000bfc       __imp_?GetDlgItem@CWnd@@QBEPAV1@H@Z 100c3bfc     mfc140:mfc140.dll
 0002:00000c00       __imp_?DDX_Control@@YGXPAVCDataExchange@@HAAVCWnd@@@Z 100c3c00     mfc140:mfc140.dll
 0002:00000c04       __imp_?Attach@CGdiObject@@QAEHPAX@Z 100c3c04     mfc140:mfc140.dll
 0002:00000c08       __imp_??1CButton@@UAE@XZ   100c3c08     mfc140:mfc140.dll
 0002:00000c0c       __imp_??0CWnd@@QAE@XZ      100c3c0c     mfc140:mfc140.dll
 0002:00000c10       __imp_??1CWnd@@UAE@XZ      100c3c10     mfc140:mfc140.dll
 0002:00000c14       __imp_?GetRuntimeClass@CButton@@UBEPAUCRuntimeClass@@XZ 100c3c14     mfc140:mfc140.dll
 0002:00000c18       __imp_?OnCmdMsg@CCmdTarget@@UAEHIHPAXPAUAFX_CMDHANDLERINFO@@@Z 100c3c18     mfc140:mfc140.dll
 0002:00000c1c       __imp_?GetMessageMap@CWnd@@MBEPBUAFX_MSGMAP@@XZ 100c3c1c     mfc140:mfc140.dll
 0002:00000c20       __imp_?PreTranslateMessage@CWnd@@UAEHPAUtagMSG@@@Z 100c3c20     mfc140:mfc140.dll
 0002:00000c24       __imp_?PostNcDestroy@CWnd@@MAEXXZ 100c3c24     mfc140:mfc140.dll
 0002:00000c28       __imp_?OnChildNotify@CButton@@MAEHIIJPAJ@Z 100c3c28     mfc140:mfc140.dll
 0002:00000c2c       __imp_?CheckAutoCenter@CWnd@@UAEHXZ 100c3c2c     mfc140:mfc140.dll
 0002:00000c30       __imp_?SetOccDialogInfo@CWnd@@MAEHPAU_AFX_OCC_DIALOG_INFO@@@Z 100c3c30     mfc140:mfc140.dll
 0002:00000c34       __imp_?GetOccDialogInfo@CWnd@@MAEPAU_AFX_OCC_DIALOG_INFO@@XZ 100c3c34     mfc140:mfc140.dll
 0002:00000c38       __imp_?Create@CButton@@UAEHPBDKABUtagRECT@@PAVCWnd@@I@Z 100c3c38     mfc140:mfc140.dll
 0002:00000c3c       __imp_?DrawItem@CButton@@UAEXPAUtagDRAWITEMSTRUCT@@@Z 100c3c3c     mfc140:mfc140.dll
 0002:00000c40       __imp_?GetRuntimeClass@CGdiObject@@UBEPAUCRuntimeClass@@XZ 100c3c40     mfc140:mfc140.dll
 0002:00000c44       __imp_?DeleteObject@CGdiObject@@QAEHXZ 100c3c44     mfc140:mfc140.dll
 0002:00000c48       __imp_?GetRuntimeClass@CBrush@@UBEPAUCRuntimeClass@@XZ 100c3c48     mfc140:mfc140.dll
 0002:00000c4c       __imp_?GetThisClass@CDialog@@SGPAUCRuntimeClass@@XZ 100c3c4c     mfc140:mfc140.dll
 0002:00000c50       __imp_?TrimRight@?$CStringT@DV?$StrTraitMFC_DLL@DV?$ChTraitsCRT@D@ATL@@@@@ATL@@QAEAAV12@XZ 100c3c50     mfc140:mfc140.dll
 0002:00000c54       __imp_?Left@?$CStringT@DV?$StrTraitMFC_DLL@DV?$ChTraitsCRT@D@ATL@@@@@ATL@@QBE?AV12@H@Z 100c3c54     mfc140:mfc140.dll
 0002:00000c58       __imp_?EndWaitCursor@CCmdTarget@@QAEXXZ 100c3c58     mfc140:mfc140.dll
 0002:00000c5c       __imp_?AfxMessageBox@@YGHPBDII@Z 100c3c5c     mfc140:mfc140.dll
 0002:00000c60       __imp_?BeginWaitCursor@CCmdTarget@@QAEXXZ 100c3c60     mfc140:mfc140.dll
 0002:00000c64       __imp_?AfxGetModuleState@@YGPAVAFX_MODULE_STATE@@XZ 100c3c64     mfc140:mfc140.dll
 0002:00000c68       __imp_?Format@?$CStringT@DV?$StrTraitMFC_DLL@DV?$ChTraitsCRT@D@ATL@@@@@ATL@@QAAXPBDZZ 100c3c68     mfc140:mfc140.dll
 0002:00000c6c       __imp_??4?$CStringT@DV?$StrTraitMFC_DLL@DV?$ChTraitsCRT@D@ATL@@@@@ATL@@QAEAAV01@PBD@Z 100c3c6c     mfc140:mfc140.dll
 0002:00000c70       __imp_?Compare@?$CStringT@DV?$StrTraitMFC_DLL@DV?$ChTraitsCRT@D@ATL@@@@@ATL@@QBEHPBD@Z 100c3c70     mfc140:mfc140.dll
 0002:00000c74       __imp_?Empty@?$CSimpleStringT@D$00@ATL@@QAEXXZ 100c3c74     mfc140:mfc140.dll
 0002:00000c78       __imp_?Trim@?$CStringT@DV?$StrTraitMFC_DLL@DV?$ChTraitsCRT@D@ATL@@@@@ATL@@QAEAAV12@XZ 100c3c78     mfc140:mfc140.dll
 0002:00000c7c       __imp_?GetRuntimeClass@CObject@@UBEPAUCRuntimeClass@@XZ 100c3c7c     mfc140:mfc140.dll
 0002:00000c80       __imp_?Read@CArchive@@QAEIPAXI@Z 100c3c80     mfc140:mfc140.dll
 0002:00000c84       __imp_?AfxThrowArchiveException@@YGXHPBD@Z 100c3c84     mfc140:mfc140.dll
 0002:00000c88       __imp_?Write@CArchive@@QAEXPBXI@Z 100c3c88     mfc140:mfc140.dll
 0002:00000c8c       __imp_??_U@YAPAXI@Z        100c3c8c     mfc140:mfc140.dll
 0002:00000c90       __imp_?ReadCount@CArchive@@QAEKXZ 100c3c90     mfc140:mfc140.dll
 0002:00000c94       __imp_?WriteCount@CArchive@@QAEXK@Z 100c3c94     mfc140:mfc140.dll
 0002:00000c98       __imp_??_V@YAXPAX@Z        100c3c98     mfc140:mfc140.dll
 0002:00000c9c       __imp_?AfxThrowInvalidArgException@@YGXXZ 100c3c9c     mfc140:mfc140.dll
 0002:00000ca0       __imp_??1CRecordset@@UAE@XZ 100c3ca0     mfc140:mfc140.dll
 0002:00000ca4       __imp_??4?$CStringT@DV?$StrTraitMFC_DLL@DV?$ChTraitsCRT@D@ATL@@@@@ATL@@QAEAAV01@ABV01@@Z 100c3ca4     mfc140:mfc140.dll
 0002:00000ca8       __imp_?ReleaseBuffer@?$CSimpleStringT@D$00@ATL@@QAEXH@Z 100c3ca8     mfc140:mfc140.dll
 0002:00000cac       __imp_?GetBuffer@?$CSimpleStringT@D$00@ATL@@QAEPADH@Z 100c3cac     mfc140:mfc140.dll
 0002:00000cb0       __imp_?Open@CRecordset@@UAEHIPBDK@Z 100c3cb0     mfc140:mfc140.dll
 0002:00000cb4       __imp_?AfxTryCleanup@@YGXXZ 100c3cb4     mfc140:mfc140.dll
 0002:00000cb8       __imp_??0AFX_EXCEPTION_LINK@@QAE@XZ 100c3cb8     mfc140:mfc140.dll
 0002:00000cbc       __imp_??0?$CStringT@DV?$StrTraitMFC_DLL@DV?$ChTraitsCRT@D@ATL@@@@@ATL@@QAE@XZ 100c3cbc     mfc140:mfc140.dll
 0002:00000cc0       __imp_?AfxThrowMemoryException@@YGXXZ 100c3cc0     mfc140:mfc140.dll
 0002:00000cc4       __imp_??0?$CStringT@DV?$StrTraitMFC_DLL@DV?$ChTraitsCRT@D@ATL@@@@@ATL@@QAE@ABV01@@Z 100c3cc4     mfc140:mfc140.dll
 0002:00000cc8       __imp_??2@YAPAXI@Z         100c3cc8     mfc140:mfc140.dll
 0002:00000ccc       __imp_??B?$CSimpleStringT@D$00@ATL@@QBEPBDXZ 100c3ccc     mfc140:mfc140.dll
 0002:00000cd0       __imp_??1?$CStringT@DV?$StrTraitMFC_DLL@DV?$ChTraitsCRT@D@ATL@@@@@ATL@@QAE@XZ 100c3cd0     mfc140:mfc140.dll
 0002:00000cd4       __imp_?PreInitDialog@CDialog@@MAEXXZ 100c3cd4     mfc140:mfc140.dll
 0002:00000cd8       __imp_?OnCancel@CDialog@@MAEXXZ 100c3cd8     mfc140:mfc140.dll
 0002:00000cdc       __imp_?OnOK@CDialog@@MAEXXZ 100c3cdc     mfc140:mfc140.dll
 0002:00000ce0       __imp_?OnSetFont@CDialog@@UAEXPAVCFont@@@Z 100c3ce0     mfc140:mfc140.dll
 0002:00000ce4       __imp_?DoModal@CDialog@@UAEHXZ 100c3ce4     mfc140:mfc140.dll
 0002:00000ce8       __imp_?CreateIndirect@CDialog@@UAEHPBUDLGTEMPLATE@@PAVCWnd@@PAX@Z 100c3ce8     mfc140:mfc140.dll
 0002:00000cec       __imp_?CreateIndirect@CDialog@@UAEHPAXPAVCWnd@@@Z 100c3cec     mfc140:mfc140.dll
 0002:00000cf0       __imp_?GetOccDialogInfo@CDialog@@MAEPAU_AFX_OCC_DIALOG_INFO@@XZ 100c3cf0     mfc140:mfc140.dll
 0002:00000cf4       __imp_?SetOccDialogInfo@CDialog@@MAEHPAU_AFX_OCC_DIALOG_INFO@@@Z 100c3cf4     mfc140:mfc140.dll
 0002:00000cf8       __imp_?CreateControlSite@CWnd@@MAEHPAVCOleControlContainer@@PAPAVCOleControlSite@@IABU_GUID@@@Z 100c3cf8     mfc140:mfc140.dll
 0002:00000cfc       __imp_?CreateControlContainer@CWnd@@MAEHPAPAVCOleControlContainer@@@Z 100c3cfc     mfc140:mfc140.dll
 0002:00000d00       __imp_?IsFrameWnd@CWnd@@UBEHXZ 100c3d00     mfc140:mfc140.dll
 0002:00000d04       __imp_?CheckAutoCenter@CDialog@@UAEHXZ 100c3d04     mfc140:mfc140.dll
 0002:00000d08       __imp_?ResizeDynamicLayout@CWnd@@MAEXXZ 100c3d08     mfc140:mfc140.dll
 0002:00000d0c       __imp_?OnGesturePressAndTap@CWnd@@MAEHVCPoint@@J@Z 100c3d0c     mfc140:mfc140.dll
 0002:00000d10       __imp_?OnGestureTwoFingerTap@CWnd@@MAEHVCPoint@@@Z 100c3d10     mfc140:mfc140.dll
 0002:00000d14       __imp_?OnGestureRotate@CWnd@@MAEHVCPoint@@N@Z 100c3d14     mfc140:mfc140.dll
 0002:00000d18       __imp_?OnGesturePan@CWnd@@MAEHVCPoint@@0@Z 100c3d18     mfc140:mfc140.dll
 0002:00000d1c       __imp_?OnGestureZoom@CWnd@@MAEHVCPoint@@J@Z 100c3d1c     mfc140:mfc140.dll
 0002:00000d20       __imp_?GetGestureStatus@CWnd@@MAEKVCPoint@@@Z 100c3d20     mfc140:mfc140.dll
 0002:00000d24       __imp_?OnTouchInput@CWnd@@MAEHVCPoint@@HHPAUtagTOUCHINPUT@@@Z 100c3d24     mfc140:mfc140.dll
 0002:00000d28       __imp_?OnTouchInputs@CWnd@@MAEHIPAUtagTOUCHINPUT@@@Z 100c3d28     mfc140:mfc140.dll
 0002:00000d2c       __imp_?OnChildNotify@CWnd@@MAEHIIJPAJ@Z 100c3d2c     mfc140:mfc140.dll
 0002:00000d30       __imp_?DefWindowProcA@CWnd@@MAEJIIJ@Z 100c3d30     mfc140:mfc140.dll
 0002:00000d34       __imp_?OnWndMsg@CWnd@@MAEHIIJPAJ@Z 100c3d34     mfc140:mfc140.dll
 0002:00000d38       __imp_?WindowProc@CWnd@@MAEJIIJ@Z 100c3d38     mfc140:mfc140.dll
 0002:00000d3c       __imp_?OnAmbientProperty@CWnd@@UAEHPAVCOleControlSite@@JPAUtagVARIANT@@@Z 100c3d3c     mfc140:mfc140.dll
 0002:00000d40       __imp_?GetSuperWndProcAddr@CWnd@@MAEPAP6GJPAUHWND__@@IIJ@ZXZ 100c3d40     mfc140:mfc140.dll
 0002:00000d44       __imp_?OnNotify@CWnd@@MAEHIJPAJ@Z 100c3d44     mfc140:mfc140.dll
 0002:00000d48       __imp_?OnCommand@CWnd@@MAEHIJ@Z 100c3d48     mfc140:mfc140.dll
 0002:00000d4c       __imp_?CreateAccessibleProxy@CWnd@@UAEJIJPAJ@Z 100c3d4c     mfc140:mfc140.dll
 0002:00000d50       __imp_?SetProxy@CWnd@@UAEJPAUIAccessibleProxy@@@Z 100c3d50     mfc140:mfc140.dll
 0002:00000d54       __imp_?put_accValue@CWnd@@UAEJUtagVARIANT@@PA_W@Z 100c3d54     mfc140:mfc140.dll
 0002:00000d58       __imp_?put_accName@CWnd@@UAEJUtagVARIANT@@PA_W@Z 100c3d58     mfc140:mfc140.dll
 0002:00000d5c       __imp_?accDoDefaultAction@CWnd@@UAEJUtagVARIANT@@@Z 100c3d5c     mfc140:mfc140.dll
 0002:00000d60       __imp_?accHitTest@CWnd@@UAEJJJPAUtagVARIANT@@@Z 100c3d60     mfc140:mfc140.dll
 0002:00000d64       __imp_?accNavigate@CWnd@@UAEJJUtagVARIANT@@PAU2@@Z 100c3d64     mfc140:mfc140.dll
 0002:00000d68       __imp_?accLocation@CWnd@@UAEJPAJ000UtagVARIANT@@@Z 100c3d68     mfc140:mfc140.dll
 0002:00000d6c       __imp_?accSelect@CWnd@@UAEJJUtagVARIANT@@@Z 100c3d6c     mfc140:mfc140.dll
 0002:00000d70       __imp_?get_accDefaultAction@CWnd@@UAEJUtagVARIANT@@PAPA_W@Z 100c3d70     mfc140:mfc140.dll
 0002:00000d74       __imp_?get_accSelection@CWnd@@UAEJPAUtagVARIANT@@@Z 100c3d74     mfc140:mfc140.dll
 0002:00000d78       __imp_?get_accFocus@CWnd@@UAEJPAUtagVARIANT@@@Z 100c3d78     mfc140:mfc140.dll
 0002:00000d7c       __imp_?get_accKeyboardShortcut@CWnd@@UAEJUtagVARIANT@@PAPA_W@Z 100c3d7c     mfc140:mfc140.dll
 0002:00000d80       __imp_?get_accHelpTopic@CWnd@@UAEJPAPA_WUtagVARIANT@@PAJ@Z 100c3d80     mfc140:mfc140.dll
 0002:00000d84       __imp_?get_accHelp@CWnd@@UAEJUtagVARIANT@@PAPA_W@Z 100c3d84     mfc140:mfc140.dll
 0002:00000d88       __imp_?get_accState@CWnd@@UAEJUtagVARIANT@@PAU2@@Z 100c3d88     mfc140:mfc140.dll
 0002:00000d8c       __imp_?get_accRole@CWnd@@UAEJUtagVARIANT@@PAU2@@Z 100c3d8c     mfc140:mfc140.dll
 0002:00000d90       __imp_?get_accDescription@CWnd@@UAEJUtagVARIANT@@PAPA_W@Z 100c3d90     mfc140:mfc140.dll
 0002:00000d94       __imp_?get_accValue@CWnd@@UAEJUtagVARIANT@@PAPA_W@Z 100c3d94     mfc140:mfc140.dll
 0002:00000d98       __imp_?get_accName@CWnd@@UAEJUtagVARIANT@@PAPA_W@Z 100c3d98     mfc140:mfc140.dll
 0002:00000d9c       __imp_?get_accChild@CWnd@@UAEJUtagVARIANT@@PAPAUIDispatch@@@Z 100c3d9c     mfc140:mfc140.dll
 0002:00000da0       __imp_?get_accChildCount@CWnd@@UAEJPAJ@Z 100c3da0     mfc140:mfc140.dll
 0002:00000da4       __imp_?get_accParent@CWnd@@UAEJPAPAUIDispatch@@@Z 100c3da4     mfc140:mfc140.dll
 0002:00000da8       __imp_?EnsureStdObj@CWnd@@UAEJXZ 100c3da8     mfc140:mfc140.dll
 0002:00000dac       __imp_?OnDrawIconicThumbnailOrLivePreview@CWnd@@UAEXAAVCDC@@VCRect@@VCSize@@HAAH@Z 100c3dac     mfc140:mfc140.dll
 0002:00000db0       __imp_?EndModalLoop@CWnd@@UAEXH@Z 100c3db0     mfc140:mfc140.dll
 0002:00000db4       __imp_?ContinueModal@CWnd@@UAEHXZ 100c3db4     mfc140:mfc140.dll
 0002:00000db8       __imp_?WinHelpInternal@CWnd@@UAEXKI@Z 100c3db8     mfc140:mfc140.dll
 0002:00000dbc       __imp_?HtmlHelpA@CWnd@@UAEXKI@Z 100c3dbc     mfc140:mfc140.dll
 0002:00000dc0       __imp_?WinHelpA@CWnd@@UAEXKI@Z 100c3dc0     mfc140:mfc140.dll
 0002:00000dc4       __imp_?GetScrollBarCtrl@CWnd@@UBEPAVCScrollBar@@H@Z 100c3dc4     mfc140:mfc140.dll
 0002:00000dc8       __imp_?OnToolHitTest@CWnd@@UBEHVCPoint@@PAUtagTOOLINFOA@@@Z 100c3dc8     mfc140:mfc140.dll
 0002:00000dcc       __imp_?SetMenu@CWnd@@UAEHPAVCMenu@@@Z 100c3dcc     mfc140:mfc140.dll
 0002:00000dd0       __imp_?GetMenu@CWnd@@UBEPAVCMenu@@XZ 100c3dd0     mfc140:mfc140.dll
 0002:00000dd4       __imp_?CalcWindowRect@CWnd@@UAEXPAUtagRECT@@I@Z 100c3dd4     mfc140:mfc140.dll
 0002:00000dd8       __imp_?PreCreateWindow@CWnd@@UAEHAAUtagCREATESTRUCTA@@@Z 100c3dd8     mfc140:mfc140.dll
 0002:00000ddc       __imp_?DestroyWindow@CWnd@@UAEHXZ 100c3ddc     mfc140:mfc140.dll
 0002:00000de0       __imp_?CreateEx@CWnd@@UAEHKPBD0KHHHHPAUHWND__@@PAUHMENU__@@PAX@Z 100c3de0     mfc140:mfc140.dll
 0002:00000de4       __imp_?CreateEx@CWnd@@UAEHKPBD0KABUtagRECT@@PAV1@IPAX@Z 100c3de4     mfc140:mfc140.dll
 0002:00000de8       __imp_?Create@CWnd@@UAEHPBD0KABUtagRECT@@PAV1@IPAUCCreateContext@@@Z 100c3de8     mfc140:mfc140.dll
 0002:00000dec       __imp_?PreSubclassWindow@CWnd@@UAEXXZ 100c3dec     mfc140:mfc140.dll
 0002:00000df0       __imp_?GetConnectionHook@CCmdTarget@@MAEPAUIConnectionPoint@@ABU_GUID@@@Z 100c3df0     mfc140:mfc140.dll
 0002:00000df4       __imp_?GetExtraConnectionPoints@CCmdTarget@@MAEHPAVCPtrArray@@@Z 100c3df4     mfc140:mfc140.dll
 0002:00000df8       __imp_?GetInterfaceHook@CCmdTarget@@UAEPAUIUnknown@@PBX@Z 100c3df8     mfc140:mfc140.dll
 0002:00000dfc       __imp_?OnCreateAggregates@CCmdTarget@@UAEHXZ 100c3dfc     mfc140:mfc140.dll
 0002:00000e00       __imp_?GetEventSinkMap@CCmdTarget@@MBEPBUAFX_EVENTSINKMAP@@XZ 100c3e00     mfc140:mfc140.dll
 0002:00000e04       __imp_?GetInterfaceMap@CWnd@@MBEPBUAFX_INTERFACEMAP@@XZ 100c3e04     mfc140:mfc140.dll
 0002:00000e08       __imp_?GetConnectionMap@CCmdTarget@@MBEPBUAFX_CONNECTIONMAP@@XZ 100c3e08     mfc140:mfc140.dll
 0002:00000e0c       __imp_?SetAt@?$CSimpleStringT@D$00@ATL@@QAEXHD@Z 100c3e0c     mfc140:mfc140.dll
 0002:00000e10       __imp_?GetAt@?$CSimpleStringT@D$00@ATL@@QBEDH@Z 100c3e10     mfc140:mfc140.dll
 0002:00000e14       __imp_?AfxTermExtensionModule@@YGXAAUAFX_EXTENSION_MODULE@@H@Z 100c3e14     mfc140:mfc140.dll
 0002:00000e18       __imp_??0CDynLinkLibrary@@QAE@AAUAFX_EXTENSION_MODULE@@H@Z 100c3e18     mfc140:mfc140.dll
 0002:00000e1c       __imp_?AfxInitExtensionModule@@YGHAAUAFX_EXTENSION_MODULE@@PAUHINSTANCE__@@@Z 100c3e1c     mfc140:mfc140.dll
 0002:00000e20       __imp_?TrimLeft@?$CStringT@DV?$StrTraitMFC_DLL@DV?$ChTraitsCRT@D@ATL@@@@@ATL@@QAEAAV12@XZ 100c3e20     mfc140:mfc140.dll
 0002:00000e24       __imp_?Create@CPlex@@SGPAU1@AAPAU1@II@Z 100c3e24     mfc140:mfc140.dll
 0002:00000e28       __imp_?GetDispatchMap@CCmdTarget@@MBEPBUAFX_DISPMAP@@XZ 100c3e28     mfc140:mfc140.dll
 0002:00000e2c       __imp_?FreeDataChain@CPlex@@QAEXXZ 100c3e2c     mfc140:mfc140.dll
 0002:00000e30       __imp_?Delete@CException@@QAEXXZ 100c3e30     mfc140:mfc140.dll
 0002:00000e34       __imp_??1CByteArray@@UAE@XZ 100c3e34     mfc140:mfc140.dll
 0002:00000e38       __imp_?GetCommandMap@CCmdTarget@@MBEPBUAFX_OLECMDMAP@@XZ 100c3e38     mfc140:mfc140.dll
 0002:00000e3c       __imp_?GetTypeLib@CCmdTarget@@UAEJKPAPAUITypeLib@@@Z 100c3e3c     mfc140:mfc140.dll
 0002:00000e40       __imp_?GetTypeLibCache@CCmdTarget@@UAEPAVCTypeLibCache@@XZ 100c3e40     mfc140:mfc140.dll
 0002:00000e44       __imp_??0CByteArray@@QAE@XZ 100c3e44     mfc140:mfc140.dll
 0002:00000e48       __imp_?SetAtGrow@CByteArray@@QAEXHE@Z 100c3e48     mfc140:mfc140.dll
 0002:00000e4c       __imp_?SetSize@CPtrArray@@QAEXHH@Z 100c3e4c     mfc140:mfc140.dll
 0002:00000e50       __imp_?GetBuffer@?$CSimpleStringT@D$00@ATL@@QAEPADXZ 100c3e50     mfc140:mfc140.dll
 0002:00000e54       __imp_??1CPtrArray@@UAE@XZ 100c3e54     mfc140:mfc140.dll
 0002:00000e58       __imp_??0CPtrArray@@QAE@XZ 100c3e58     mfc140:mfc140.dll
 0002:00000e5c       __imp_?GetTypeInfoCount@CCmdTarget@@UAEIXZ 100c3e5c     mfc140:mfc140.dll
 0002:00000e60       __imp_?Right@?$CStringT@DV?$StrTraitMFC_DLL@DV?$ChTraitsCRT@D@ATL@@@@@ATL@@QBE?AV12@H@Z 100c3e60     mfc140:mfc140.dll
 0002:00000e64       __imp_??Y?$CStringT@DV?$StrTraitMFC_DLL@DV?$ChTraitsCRT@D@ATL@@@@@ATL@@QAEAAV01@PBD@Z 100c3e64     mfc140:mfc140.dll
 0002:00000e68       __imp_??0?$CStringT@DV?$StrTraitMFC_DLL@DV?$ChTraitsCRT@D@ATL@@@@@ATL@@QAE@PAUIAtlStringMgr@1@@Z 100c3e68     mfc140:mfc140.dll
 0002:00000e6c       __imp_?Concatenate@?$CSimpleStringT@D$00@ATL@@KAXAAV12@PBDH1H@Z 100c3e6c     mfc140:mfc140.dll
 0002:00000e70       __imp_?GetManager@?$CStringT@DV?$StrTraitMFC_DLL@DV?$ChTraitsCRT@D@ATL@@@@@ATL@@QBEPAUIAtlStringMgr@2@XZ 100c3e70     mfc140:mfc140.dll
 0002:00000e74       __imp_?Find@?$CStringT@DV?$StrTraitMFC_DLL@DV?$ChTraitsCRT@D@ATL@@@@@ATL@@QBEHDH@Z 100c3e74     mfc140:mfc140.dll
 0002:00000e78       __imp_?GetInterfaceMap@CCmdTarget@@MBEPBUAFX_INTERFACEMAP@@XZ 100c3e78     mfc140:mfc140.dll
 0002:00000e7c       __imp_?GetMessageMap@CCmdTarget@@MBEPBUAFX_MSGMAP@@XZ 100c3e7c     mfc140:mfc140.dll
 0002:00000e80       __imp_?OnFinalRelease@CCmdTarget@@UAEXXZ 100c3e80     mfc140:mfc140.dll
 0002:00000e84       __imp_?GetRuntimeClass@CCmdTarget@@UBEPAUCRuntimeClass@@XZ 100c3e84     mfc140:mfc140.dll
 0002:00000e88       __imp_?FromHandle@CGdiObject@@SGPAV1@PAX@Z 100c3e88     mfc140:mfc140.dll
 0002:00000e8c       __imp_?GetLBReallocSize@CRecordset@@MAEJJ@Z 100c3e8c     mfc140:mfc140.dll
 0002:00000e90       __imp_?GetLBFetchSize@CRecordset@@MAEJJ@Z 100c3e90     mfc140:mfc140.dll
 0002:00000e94       __imp_?GetDispatchIID@CCmdTarget@@UAEHPAU_GUID@@@Z 100c3e94     mfc140:mfc140.dll
 0002:00000e98       __imp_?AfxThrowDBException@@YGXFPAVCDatabase@@PAX@Z 100c3e98     mfc140:mfc140.dll
 0002:00000e9c       __imp_?PreBindFields@CRecordset@@UAEXXZ 100c3e9c     mfc140:mfc140.dll
 0002:00000ea0       __imp_?CreateEx@CSpinButtonCtrl@@UAEHKKABUtagRECT@@PAVCWnd@@I@Z 100c3ea0     mfc140:mfc140.dll
 0002:00000ea4       __imp_?SetRowsetCurrencyStatus@CRecordset@@UAEXFGJK@Z 100c3ea4     mfc140:mfc140.dll
 0002:00000ea8       __imp_?IsInvokeAllowed@CCmdTarget@@UAEHJ@Z 100c3ea8     mfc140:mfc140.dll
 0002:00000eac       __imp_?OnFinalRelease@CWnd@@UAEXXZ 100c3eac     mfc140:mfc140.dll
 0002:00000eb0       __imp_?OnCmdMsg@CDialog@@UAEHIHPAXPAUAFX_CMDHANDLERINFO@@@Z 100c3eb0     mfc140:mfc140.dll
 0002:00000eb4       __imp_?GetParentOwner@CWnd@@QBEPAV1@XZ 100c3eb4     mfc140:mfc140.dll
 0002:00000eb8       __imp_?ShowWindow@CWnd@@QAEHH@Z 100c3eb8     mfc140:mfc140.dll
 0002:00000ebc       __imp_?Create@CDialog@@UAEHPBDPAVCWnd@@@Z 100c3ebc     mfc140:mfc140.dll
 0002:00000ec0       __imp_?Close@CRecordset@@UAEXXZ 100c3ec0     mfc140:mfc140.dll
 0002:00000ec4       \177mfc140_NULL_THUNK_DATA 100c3ec4     mfc140:mfc140.dll
 0002:00000ec8       ___guard_check_icall_fptr  100c3ec8     msvcrt:guard_support.obj
 0002:00000ecc       ___xc_a                    100c3ecc     msvcrt:initializers.obj
 0002:00000ee0       ___xc_z                    100c3ee0     msvcrt:initializers.obj
 0002:00000ee4       ___xi_a                    100c3ee4     msvcrt:initializers.obj
 0002:00000eec       ___xi_z                    100c3eec     msvcrt:initializers.obj
 0002:00000ef0       ___xl_a                    100c3ef0     msvcrt:tlssup.obj
 0002:00000ef4       ___xl_z                    100c3ef4     msvcrt:tlssup.obj
 0002:00000ef8       ___xp_a                    100c3ef8     msvcrt:initializers.obj
 0002:00000efc       ___xp_z                    100c3efc     msvcrt:initializers.obj
 0002:00000f00       ___xt_a                    100c3f00     msvcrt:initializers.obj
 0002:00000f04       ___xt_z                    100c3f04     msvcrt:initializers.obj
 0002:00000f10       __sz_ZIM15_NpSub_dll       100c3f10     ZIM15_NpSub:ZIM15_NpSub.dll
 0002:00000f20       __sz_ZIM15_PbZmSub_dll     100c3f20     ZIM15_PbZmSub:ZIM15_PbZmSub.dll
 0002:00000f40       __sz_ICS15_jz2cloudopt_dll 100c3f40     ICS15_JZ2CLOUDOPT:ICS15_jz2cloudopt.dll
 0002:00000f60       __sz_ZIM15_SyzSykCom_dll   100c3f60     Zim15_SyzSykCom:ZIM15_SyzSykCom.dll
 0002:00000f74       ??_C@_1BK@DBDEIDLH@?$AAK?$AAE?$AAR?$AAN?$AAE?$AAL?$AA3?$AA2?$AA?4?$AAD?$AAL?$AAL@ 100c3f74     Delayimp:delayhlp.obj
 0002:00000f90       ??_C@_0BI@OMNLIJDB@AcquireSRWLockExclusive@ 100c3f90     Delayimp:delayhlp.obj
 0002:00000fa8       ??_C@_0BI@HMIEPCNJ@ReleaseSRWLockExclusive@ 100c3fa8     Delayimp:delayhlp.obj
 0002:00000fc0       ___pfnDliNotifyHook2       100c3fc0     Delayimp:delayhk2.obj
 0002:00000fc4       ___pfnDliFailureHook2      100c3fc4     Delayimp:delayhk1.obj
 0002:00000fc8       ??_C@_1EC@JIJBPKFM@?$AAa?$AAp?$AAi?$AA?9?$AAm?$AAs?$AA?9?$AAw?$AAi?$AAn?$AA?9?$AAc?$AAo?$AAr?$AAe@ 100c3fc8     msvcrt:thread_safe_statics.obj
 0002:0000100c       ??_C@_1BK@MGMFAEKH@?$AAk?$AAe?$AAr?$AAn?$AAe?$AAl?$AA3?$AA2?$AA?4?$AAd?$AAl?$AAl@ 100c400c     msvcrt:thread_safe_statics.obj
 0002:00001028       ??_C@_0BM@HLJJNPAH@InitializeConditionVariable@ 100c4028     msvcrt:thread_safe_statics.obj
 0002:00001044       ??_C@_0BJ@JEBJOJFJ@SleepConditionVariableCS@ 100c4044     msvcrt:thread_safe_statics.obj
 0002:00001060       ??_C@_0BJ@PGPPEPCC@WakeAllConditionVariable@ 100c4060     msvcrt:thread_safe_statics.obj
 0002:00001080       ??_7type_info@@6B@         100c4080     msvcrt:std_type_info_static.obj
 0002:0000108c       __pDefaultRawDllMain       100c408c     msvcrt:dll_dllmain.obj
 0002:00001090       __load_config_used         100c4090     msvcrt:loadcfg.obj
 0002:00001130       _GUID_ATLVer110            100c4130     atls:atlbase.obj
 0002:00001140       ??_C@_1IC@ONKHOIDK@?$AAE?$AAR?$AAR?$AAO?$AAR?$AA?5?$AA?3?$AA?5?$AAU?$AAn?$AAa?$AAb?$AAl?$AAe?$AA?5@ 100c4140     atls:atlbase.obj
 0002:000011f8       ??_7?$CArray@U_KOJI_CHK@@AAU1@@@6B@ 100c41f8     BmnChk.obj
 0002:00001210       ??_7?$CArray@U_BMN_CHK@@AAU1@@@6B@ 100c4210     BmnChk.obj
 0002:00001228       ??_7CKojiChkSub@@6B@       100c4228     BmnChk.obj
 0002:0000122c       ??_C@_00CNPNBAHC@@         100c422c     BmnChk.obj
 0002:00001234       ??_7CBmnChkSub@@6B@        100c4234     BmnChk.obj
 0002:0000123c       ??_7CKojiDataCheck@@6B@    100c423c     BmnChk.obj
 0002:00001244       ??_7CBmnHaniCheck@@6B@     100c4244     BmnChk.obj
 0002:00001248       ??_C@_05IEKKDAB@?$CF?414s@ 100c4248     BrnTky.obj
 0002:00001250       ??_C@_0CL@MGBFBOBF@ezbmn?5?$DN?5?$CFd?5AND?5ezkcd?5?$DN?5?8?$CFs?8?5AND@ 100c4250     BrnTky.obj
 0002:0000127c       ??_C@_08CNCBFNKJ@seq?5?$DN?513@ 100c427c     BrnTky.obj
 0002:00001288       ??_C@_0BM@GLCPJMPO@ezbmn?5?$DN?5?$CFd?5and?5ezkcd?5?$DN?5?8?$CFs?8@ 100c4288     BrnTky.obj
 0002:000012a4       ??_C@_03KEMCFGNA@?4?$CFs@  100c42a4     BrnTky.obj
 0002:000012a8       ??_C@_02DKCKIIND@?$CFs@    100c42a8     BrnTky.obj
 0002:000012ac       ??_C@_04HDOCAJNK@?$CFs?$CFs@ 100c42ac     BrnTky.obj
 0002:000012b4       ??_C@_07KOFECHGL@seq?5?$DN?53@ 100c42b4     BrnTky.obj
 0002:000012bc       ??_C@_06KKGCFJP@?$CF?$CF?4?$CFds@ 100c42bc     BrnTky.obj
 0002:000012c8       ??_7CBrnTky@@6B@           100c42c8     BrnTky.obj
 0002:000012cc       ??_C@_0BB@HBOOMJBF@?$CFTs?5?$CI?$CFTs?3?$CFd?$CJ?6?$CFTs@ 100c42cc     BrnTky.obj
 0002:000012e0       ??_C@_0HE@NADKACMK@c?3?2program?5files?5?$CIx86?$CJ?2microsof@ 100c42e0     BrnTky.obj
 0002:00001354       ??_C@_0BP@OIEOKIDM@Exception?5thrown?5in?5destructor@ 100c4354     BrnTky.obj
 0002:00001374       ??_C@_0N@OMEMOKLE@?$CFTs?5?$CI?$CFTs?3?$CFd?$CJ@ 100c4374     BrnTky.obj
 0002:00001388       ??_7CBrnTkySub@@6B@        100c4388     BrnTky.obj
 0002:0000138c       ??_C@_0N@FHBFDKND@CSkbnLiteDlg@ 100c438c     CSkbnLiteDlg.obj
 0002:0000139c       ??_C@_02CIBHKBEA@?$AC?$AD@ 100c439c     CSkbnLiteDlg.obj
 0002:000013a0       ??_C@_01JFALLOMD@?$AD@     100c43a0     CSkbnLiteDlg.obj
 0002:000013a4       ??_C@_02CJNFMLHH@?$AD?$AD@ 100c43a4     CSkbnLiteDlg.obj
 0002:000013a8       ??_C@_04EFKDDAEG@?$AD?$AD?$AD?$AD@ 100c43a8     CSkbnLiteDlg.obj
 0002:000013b0       ??_C@_04EAGJLKDN@?$AD?$AC?$AO?$AO@ 100c43b0     CSkbnLiteDlg.obj
 0002:000013b8       ??_C@_05NCJNDFJA@?$JA?E?5?$JH?$KG@ 100c43b8     CSkbnLiteDlg.obj
 0002:000013c0       ??_C@_01GAPBHFFA@T@        100c43c0     CSkbnLiteDlg.obj
 0002:000013c4       ??_C@_08KJHPLMJG@80?$CF?5?$INT?$IP?$JM@ 100c43c4     CSkbnLiteDlg.obj
 0002:000013d0       ??_C@_08FIDAFLMB@50?$CF?5?$INT?$IP?$JM@ 100c43d0     CSkbnLiteDlg.obj
 0002:000013dc       ??_C@_03KAEABGCI@T?$CFs@   100c43dc     CSkbnLiteDlg.obj
 0002:000013e0       ?clsid@?1??GetClsid@CICSDBEDT@@QAEABU_GUID@@XZ@4U3@B 100c43e0     CSkbnLiteDlg.obj
 0002:000013f0       ?clsid@?1??GetClsid@CICSSel@@QAEABU_GUID@@XZ@4U3@B 100c43f0     CSkbnLiteDlg.obj
 0002:00001400       ??_C@_02DPKJAMEF@?$CFd@    100c4400     CSkbnLiteDlg.obj
 0002:00001408       ?_eventsinkEntries@CSkbnLiteDlg@@0QBUAFX_EVENTSINKMAP_ENTRY@@B 100c4408     CSkbnLiteDlg.obj
 0002:000014f8       ?eventsinkMap@CSkbnLiteDlg@@1UAFX_EVENTSINKMAP@@B 100c44f8     CSkbnLiteDlg.obj
 0002:0000159c       ??_7CICSDBEDT@@6B@         100c459c     CSkbnLiteDlg.obj
 0002:0000170c       ??_7CICSSel@@6B@           100c470c     CSkbnLiteDlg.obj
 0002:0000187c       ??_7CButton@@6B@           100c487c     CSkbnLiteDlg.obj
 0002:000019f4       ??_7CGdiObject@@6B@        100c49f4     CSkbnLiteDlg.obj
 0002:00001a08       ??_C@_0HE@FGKOHAGE@c?3?2program?5files?5?$CIx86?$CJ?2microsof@ 100c4a08     CSkbnLiteDlg.obj
 0002:00001a80       ??_7CBrush@@6B@            100c4a80     CSkbnLiteDlg.obj
 0002:00001a98       ??_7CSkbnLiteDlg@@6BICSResize@@@ 100c4a98     CSkbnLiteDlg.obj
 0002:00001aa0       ??_7CSkbnLiteDlg@@6BCDialog@@@ 100c4aa0     CSkbnLiteDlg.obj
 0002:00001c38       ?classCSkbnLiteDlg@CSkbnLiteDlg@@2UCRuntimeClass@@B 100c4c38     CSkbnLiteDlg.obj
 0002:00001c68       ?SYZLITE_IDX@@3PAHA        100c4c68     CSkbnLiteDlg.obj
 0002:00001c80       __pRawDllMain              100c4c80     DBInpSub.obj
 0002:00001cdc       ?INI_AppName@@3PBDB        100c4cdc     stdafx.obj
 0002:00001ce0       ?INI_ItmName@@3PBDB        100c4ce0     stdafx.obj
 0002:00001ce4       ?BKCOLOR2@@3KA             100c4ce4     TkdicDlg.obj
 0002:00001ce8       ?BKCOLOR@@3KA              100c4ce8     TkdicDlg.obj
 0002:00001cec       ??_C@_0N@ILPCIMGN@CStRecordSet@ 100c4cec     CStRecordSet.obj
 0002:00001cfc       ??_C@_0P@NFANHBJG@ODBC?$DLDSN?$DNmydb?$DL@ 100c4cfc     CStRecordSet.obj
 0002:00001d0c       ??_C@_02BNFKEMBG@st@       100c4d0c     CStRecordSet.obj
 0002:00001d14       ??_7CStRecordSet@@6B@      100c4d14     CStRecordSet.obj
 0002:00001d80       ?classCStRecordSet@CStRecordSet@@2UCRuntimeClass@@B 100c4d80     CStRecordSet.obj
 0002:00001d9c       ??_C@_04MIIOBFJK@?$JF?$JE?$JG?e@ 100c4d9c     CTkyDelRepoDlg.obj
 0002:00001da4       ??_C@_04LBBAGOGH@?$IO?$HN?$JE?T@ 100c4da4     CTkyDelRepoDlg.obj
 0002:00001dac       ??_C@_04OCCELDNI@?$CF04d@  100c4dac     CTkyDelRepoDlg.obj
 0002:00001dbc       ??_SICSReportRecordItemText@@6B@ 100c4dbc     CTkyDelRepoDlg.obj
 0002:00001ea4       ??_SICSReportRecord@@6B@   100c4ea4     CTkyDelRepoDlg.obj
 0002:00001f0c       ??_SICSReportColumn@@6B@   100c4f0c     CTkyDelRepoDlg.obj
 0002:00001f68       ??_C@_01CLKCMJKC@?5@       100c4f68     CSWKDataSub.obj
 0002:00001f70       ??_7CSWKDataSub@@6B@       100c4f70     CSWKDataSub.obj
 0002:00001f78       ??_7CSWKDSubW@@6B@         100c4f78     CSWKDataSub.obj
 0002:00001f7c       ??_C@_0N@PKNDOCDO@sssssssssss9@ 100c4f7c     DataZeiCalqSub.obj
 0002:00001f8c       ??_C@_01GBGANLPD@0@        100c4f8c     DataZeiCalqSub.obj
 0002:00001f90       ??_C@_03GNABGMEE@100@      100c4f90     DataZeiCalqSub.obj
 0002:00001f94       ??_C@_0O@LCBCELOF@ssssssssssss9@ 100c4f94     DataZeiCalqSub.obj
 0002:00001fa8       ??_C@_0FF@PHMMDCBD@e?3?2usdb_80_svn?2zaimu?2dbdinp_syz@ 100c4fa8     DataZeiCalqSub.obj
 0002:00002000       ??_C@_0P@FDAEFGPI@src?5?$DN?5?$CFs?5?$FL?$CFd?$FN?6@ 100c5000     DataZeiCalqSub.obj
 0002:00002010       ??_C@_04FDOMGLFA@?$CF?42s@ 100c5010     DataZeiCalqSub.obj
 0002:00002018       ??_C@_02MJKFJHAM@02@       100c5018     DataZeiCalqSub.obj
 0002:0000201c       ??_C@_06LIKMPPMB@010602@   100c501c     DataZeiCalqSub.obj
 0002:00002028       ??_7?$CMap@KKPAUInKNREC@@PAU1@@@6B@ 100c5028     DataZeiCalqSub.obj
 0002:00002040       ??_7CDataZeiCalq@@6B@      100c5040     DataZeiCalqSub.obj
 0002:00002044       ??_C@_05LLAMLEHD@?$CFI64d@ 100c5044     DataZeiCalqSub.obj
 0002:00002050       ??_7CDataZeiCalqSub@@6B@   100c5050     DataZeiCalqSub.obj
 0002:00002054       ??_C@_06NAPFIIOK@?$CF?$CF0?$CFdd@ 100c5054     DBInpSub.obj
 0002:0000205c       ??_C@_06NFHGAMHM@?$CF?$CF0?$CFds@ 100c505c     DBInpSub.obj
 0002:00002064       ??_C@_02BADABIFP@?$IB?$EA@ 100c5064     DBInpSub.obj
 0002:00002068       ??_C@_04NEJBHOB@?$CF08x@   100c5068     DBInpSub.obj
 0002:00002070       ??_C@_08LFNDNOMC@?$CF02x?$CF02x@ 100c5070     DBInpSub.obj
 0002:0000207c       ??_C@_09IHPKKLBA@?$CF02x?4?$CF02x@ 100c507c     DBInpSub.obj
 0002:00002088       ??_C@_09EMKGHILF@?$CF02x?1?$CF02x@ 100c5088     DBInpSub.obj
 0002:00002094       ??_C@_06GGLIPOFD@?5?5?5?5?5?5@ 100c5094     DBInpSub.obj
 0002:0000209c       ??_C@_04NOJCDH@?$CF02x@    100c509c     DBInpSub.obj
 0002:000020a4       ??_C@_0P@HNKFAEAF@?$CF02d?4?$CF02d?4?$CF02d@ 100c50a4     DBInpSub.obj
 0002:000020b4       ??_C@_05NINEKCGD@?$CFs?4?$CFd@ 100c50b4     DBInpSub.obj
 0002:000020bc       ??_C@_03BEOHKAMK@?$CFs?4@  100c50bc     DBInpSub.obj
 0002:000020c0       ??_C@_07GMFAGFGH@?$CF?414s?$CFs@ 100c50c0     DBInpSub.obj
 0002:000020c8       ??_C@_0P@HAKPJIHD@?5?5?5?5?5?5?5?5?5?5?5?5?5?5@ 100c50c8     DBInpSub.obj
 0002:000020d8       ??_C@_04OBKAGHLG@?$CF06d@  100c50d8     DBInpSub.obj
 0002:000020e0       ??_C@_0BM@CKFNJGEH@ezkcd?5?$DN?5?8?$CFs?8?5AND?5ezecd?5?$DN?5?$CFd@ 100c50e0     DBInpSub.obj
 0002:000020fc       ??_C@_0N@HCHFOELB@SSSSSSSSSSS9@ 100c50fc     DBInpSub.obj
 0002:0000210c       ??_C@_0L@OBNDCOFN@?$IJ?$NL?$JA?E?$IB?$EA?$IB?$EA?$IB?$EA@ 100c510c     DBInpSub.obj
 0002:00002118       ??_C@_08KPJCDDHF@?$CF?910?410s@ 100c5118     DBInpSub.obj
 0002:00002124       ??_C@_0L@DKEIPBKK@?$JE?q?$IJ?$NL?$JA?E?$IB?$EA?$IB?$EA@ 100c5124     DBInpSub.obj
 0002:00002130       ??_C@_0L@BJDGPHFG@?$JFs?$IJ?$NL?$JA?E?$IB?$EA?$IB?$EA@ 100c5130     DBInpSub.obj
 0002:0000213c       ??_C@_0L@JOJMMEFL@?$IMo?$IJ?$NP?$IB?$HM?$ICR?$IB?$JD@ 100c513c     DBInpSub.obj
 0002:00002148       ??_C@_0L@GJGPLJHM@?$IO?$KJ?$JD?$KO?$IO?T?$JA?E?$JH?$KG@ 100c5148     DBInpSub.obj
 0002:00002154       ??_C@_0L@LLPHJLIH@?$IMo?$IJ?$NP?$IB?$HM?$ICT?$IB?$JD@ 100c5154     DBInpSub.obj
 0002:00002160       ??_C@_0L@KJECDEGJ@?$IMo?$IJ?$NP?$IB?$HM?$ICW?$IB?$JD@ 100c5160     DBInpSub.obj
 0002:0000216c       ??_C@_0L@BDELCJCL@?$IMy?$IM?$LI?$IB?$HM?$ICW?$IB?$JD@ 100c516c     DBInpSub.obj
 0002:00002178       ??_C@_0L@JFHCJHF@?$JFW?$IP?$IA?$IB?$HM10?$IB?$JD@ 100c5178     DBInpSub.obj
 0002:00002184       ??_C@_0CH@KJCMPAEN@tkana?5LIKE?5?8?$CFs?$CF?$CF?8?5COLLATE?5Japan@ 100c5184     DBInpSub.obj
 0002:000021ac       ??_C@_07MKDIOCGP@seq?5?$DN?57@ 100c51ac     DBInpSub.obj
 0002:000021b4       ??_C@_0N@LFHIOJBC@?$JDE?$JHv?$IK?V?$IMW?$JDo?$JI?$FO@ 100c51b4     DBInpSub.obj
 0002:000021c4       ??_C@_0CP@PNKDDBJB@?$JDE?$JHv?$IO?$KL?$IP?$JB?$IBE?$IJ?H?$JG?Z?$IB?$FO?$IOd?$JG?s?$JB?N?$IJ?$JO?$JDE?$JHv?$IC?L?$JD@ 100c51c4     DBInpSub.obj
 0002:000021f4       ??_C@_0DP@CKJCOCOA@?$IB?$JG?$JAV?$ILK?$IC?I?$JDE?$JHv?$IC?p?$JDo?$JI?$FO?$IC?$LH?$IC?i?$IP?j?$IN?$IH?$IBA?$IBw?$JD@ 100c51f4     DBInpSub.obj
 0002:00002234       ??_C@_0P@NMDNEMOJ@?9?9?9?9?9?9?9?9?9?9?9?9?9?9@ 100c5234     DBInpSub.obj
 0002:00002244       ??_C@_0N@CJJINLGL@?$JDE?$JHv?$IO?$KL?$IP?$JB?$JDo?$JI?$FO@ 100c5244     DBInpSub.obj
 0002:00002254       ??_C@_0CB@LCGGHGP@?$JDE?$JHv?$JH?$JD?$IC?$KJ?$IC?g?$JDE?$JHv?$IO?$KL?$IP?$JB?$IC?I?$JDo?$JI?$FO?$IC?$LF?$IC?$NM?$IC?$LH?$IB@ 100c5254     DBInpSub.obj
 0002:00002278       ??_C@_0BJ@KKABHOHK@?$IBu?$IO?X?$JF?$PL?$IBv?$IJ?H?$JG?Z?$JB?N?$IJ?$JO?$JDE?$JHv?$JDo?$JI?$FO@ 100c5278     DBInpSub.obj
 0002:00002294       ??_C@_0CD@OHEAJAGB@?$IBu?$CFs?$IBv?$IC?I?$JB?N?$IJ?$JO?$IC?$LF?$IC?$LN?$JDE?$JHv?$IC?p?$JDo?$JI?$FO?$IC?$LF?$IC?$NM?$IC@ 100c5294     DBInpSub.obj
 0002:000022b8       ??_C@_0BJ@JGPKNEHO@?$IBu?$JB?$NN?$JF?$PL?$IBv?$IJ?H?$JG?Z?$JB?N?$IJ?$JO?$JDE?$JHv?$JDo?$JI?$FO@ 100c52b8     DBInpSub.obj
 0002:000022d4       ??_C@_0BB@PJKAOLFL@?$IOd?$JG?s?$JB?N?$IJ?$JO?$JDE?$JHv?$JDo?$JI?$FO@ 100c52d4     DBInpSub.obj
 0002:000022e8       ??_C@_0BL@IFEHKEJG@?$IOd?$JG?s?$JB?N?$IJ?$JO?$JDE?$JHv?$IC?p?$JDo?$JI?$FO?$IC?$LF?$IC?$NM?$IC?$LH?$IBB@ 100c52e8     DBInpSub.obj
 0002:00002304       ??_C@_0P@NFEGEJMG@DBDINP?3TkyReg?$DL@ 100c5304     DBInpSub.obj
 0002:00002314       ??_C@_0CJ@LHCIMJJP@Software?2?$JD?z?$JG?$HLICS?$IK?$JE?$IO?$KO?$IJ?o?$IO?P?2?$CFs?2DBA@ 100c5314     DBInpSub.obj
 0002:00002340       ??_C@_04GPMDFGEJ@type@     100c5340     DBInpSub.obj
 0002:00002348       ??_C@_0O@IBKHJLLE@stdbt?5IS?5NULL@ 100c5348     DBInpSub.obj
 0002:00002358       ??_C@_0N@BHLINLBE@stdbt?5?$DN?5?8?$CFs?8@ 100c5358     DBInpSub.obj
 0002:00002368       ??_C@_0CF@KBCOAPKI@?5OR?5?$CIstdbt?5?$DN?5?8?$CFs?8?5AND?5stcre?5IS?5@ 100c5368     DBInpSub.obj
 0002:00002390       ??_C@_0EJ@ODBJHNCB@?5OR?5?$CIstdbt?5?$DN?5?8?$CFs?8?5AND?5stcre?5IS?5@ 100c5390     DBInpSub.obj
 0002:000023dc       ??_C@_0O@JDKFFMCG@stcre?5IS?5NULL@ 100c53dc     DBInpSub.obj
 0002:000023ec       ??_C@_0N@KCJGBJEN@stcre?5?$DN?5?8?$CFs?8@ 100c53ec     DBInpSub.obj
 0002:000023fc       ??_C@_0CF@LGFNIADH@?5OR?5?$CIstdbt?5IS?5NULL?5AND?5stcre?5?$DN?5@ 100c53fc     DBInpSub.obj
 0002:00002424       ??_C@_0M@NDEFLGPM@?$CI?$CFs?5AND?5?$CFs?$CJ@ 100c5424     DBInpSub.obj
 0002:00002430       ??_C@_08ECKIFNOJ@01040101@ 100c5430     DBInpSub.obj
 0002:0000243c       ??_C@_08OBFHHAJL@01070701@ 100c543c     DBInpSub.obj
 0002:00002448       ??_C@_08FKIFMCDO@04010101@ 100c5448     DBInpSub.obj
 0002:00002454       ??_C@_08FMMDLIJB@04050601@ 100c5454     DBInpSub.obj
 0002:00002460       ??_C@_08OEHPNPPE@04050701@ 100c5460     DBInpSub.obj
 0002:0000246c       ??_C@_08JNADHLEE@0B020102@ 100c546c     DBInpSub.obj
 0002:00002478       ??_C@_08NENBPLPP@01040500@ 100c5478     DBInpSub.obj
 0002:00002484       ??_C@_08EKEOPPDN@01071300@ 100c5484     DBInpSub.obj
 0002:00002490       ??_C@_08HEEAADEN@04010400@ 100c5490     DBInpSub.obj
 0002:0000249c       ??_C@_08IOFADIEF@04051A00@ 100c549c     DBInpSub.obj
 0002:000024a8       ??_C@_08JMOFJHKL@04051B00@ 100c54a8     DBInpSub.obj
 0002:000024b4       ??_C@_08MEAKLJFK@0B020A00@ 100c54b4     DBInpSub.obj
 0002:000024c0       ??_C@_08LJDEGAMN@01070801@ 100c54c0     DBInpSub.obj
 0002:000024cc       ??_C@_08FKHBAGJP@01040110@ 100c54cc     DBInpSub.obj
 0002:000024d8       ??_C@_08EEBKODOH@04050610@ 100c54d8     DBInpSub.obj
 0002:000024e4       ??_C@_08PMKGIEIC@04050710@ 100c54e4     DBInpSub.obj
 0002:000024f0       ??_C@_04PFOHOKJK@?5?5?5?5@ 100c54f0     DBInpSub.obj
 0002:000024f8       ??_C@_0BJ@MGFHOFCG@?$JBS?5?5?5?5?$IO?$JG?5?5?5?5?$IL?F?5?5?5?5?$JE?o?5?5?5?5@ 100c54f8     DBInpSub.obj
 0002:00002514       ??_C@_08BAFHGMMM@?$CF?924?424s@ 100c5514     DBInpSub.obj
 0002:00002520       ??_C@_0BI@OBDDKCMA@?$IB?$EA?$IB?$EA?$IB?$EA?$IB?$EA?$IB?$EA?$IB?$EA?$IB?$EA?$IB?$EA?$IB?$EA?$IB?$EA?$IB?$EA?5@ 100c5520     DBInpSub.obj
 0002:00002538       ??_C@_04LEFIFLIN@?$IBE?5?5@ 100c5538     DBInpSub.obj
 0002:00002540       ??_C@_0BJ@DHBHJDHO@?$JBS?5?5?5?5?$IK?G?5?5?5?5?$JH?$JN?5?5?5?5?$JE?o?5?5?5?5@ 100c5540     DBInpSub.obj
 0002:0000255c       ??_C@_0BJ@LDEGIJEA@?$IB?$EA?$IB?$EA?$IB?$EA?$IB?$EA?$IB?$EA?$IB?$EA?$IB?$EA?$IB?$EA?$IB?$EA?$IB?$EA?$IB?$EA?$IB?$EA@ 100c555c     DBInpSub.obj
 0002:00002578       ??_C@_08BCGFMMFK@01010101@ 100c5578     DBInpSub.obj
 0002:00002584       ??_C@_08INFKJE@03040101@   100c5584     DBInpSub.obj
 0002:00002590       ??_C@_08FAEAMLCH@03010101@ 100c5590     DBInpSub.obj
 0002:0000259c       ??_C@_07PDOKBEAM@?$CF?$CF?40?$CFdd@ 100c559c     DBInpSub.obj
 0002:000025a4       ??_C@_0DD@IKAEMGG@select?5vers?5as?5st?5from?5vtbl?5whe@ 100c55a4     DBInpSub.obj
 0002:000025d8       ??_C@_0CB@GIBPLLMB@?$IDo?$IB?$FL?$IDW?$ID?$IH?$ID?$JD?$ID?$GA?$IDF?$IDb?$IDN?$IC?$KK?$INs?$IC?$KG?$IC?$NM?$IC?$LJ?$IC?q?$IB@ 100c55d8     DBInpSub.obj
 0002:000025fc       ??_C@_0DC@PPPPIMHC@apl_name?5?$DN?5?8?$CFs?8?5AND?5itm_name?5?$DN?5@ 100c55fc     DBInpSub.obj
 0002:00002630       ??_C@_02EHOCIOPF@?$JD?$PM@ 100c5630     DBInpSub.obj
 0002:00002634       ??_C@_02ILCANDI@?$IPo@     100c5634     DBInpSub.obj
 0002:00002638       ??_C@_02DKGBDHAM@?$JAU@    100c5638     DBInpSub.obj
 0002:0000263c       ??_C@_0N@HDEOHFLN@?$CF02x?$CF02x?$CF02x@ 100c563c     DBInpSub.obj
 0002:0000264c       ??_C@_0BC@LHLKIMDH@DBDINP?3KanaStype?$DL@ 100c564c     DBInpSub.obj
 0002:00002660       ??_C@_0BC@PECMCABB@invno?5IS?5NOT?5NULL@ 100c5660     DBInpSub.obj
 0002:00002678       ??_C@_0DFD@CBMGDADL@and?5?$CIdbt?5IN?$CIselect?5kncod?5FROM?5k@ 100c5678     DBInpSub.obj
 0002:000029d0       ??_C@_0GFM@JMFOFCIB@and?5?$CI?5?$CIdbt?5IN?$CIselect?5kncod?5FROM@ 100c59d0     DBInpSub.obj
 0002:0000302c       ??_C@_0BA@KNAKIKP@DBDINP?3SyzStop?$DL@ 100c602c     DBInpSub.obj
 0002:00003040       ??_7CFont@@6B@             100c6040     DBInpSub.obj
 0002:0000305c       ??_C@_02NJNOFBBI@?$CFx@    100c605c     dbzmgdtsub.obj
 0002:00003060       ??_C@_08BFJDBPGB@00000101@ 100c6060     dbzmgdtsub.obj
 0002:0000306c       ??_C@_06ILLINJHH@and?5?$CFs@ 100c606c     DenpScan.obj
 0002:00003074       ??_C@_04MBNHLBPB@?5OR?5@   100c6074     DenpScan.obj
 0002:0000307c       ??_C@_0N@LOHELEGI@dtype?5?$DN?50x10@ 100c607c     DenpScan.obj
 0002:0000308c       ??_C@_0N@LMDCAKDB@dtype?5?$DN?50x20@ 100c608c     DenpScan.obj
 0002:0000309c       ??_C@_0N@LNPAGAAG@dtype?5?$DN?50x30@ 100c609c     DenpScan.obj
 0002:000030ac       ??_C@_0L@MFKLIFBG@and?5?$CI?5?$CFs?5?$CJ@ 100c60ac     DenpScan.obj
 0002:000030b8       ??_C@_0O@CCHIMEAG@and?5dtype?5?$DO?50@ 100c60b8     DenpScan.obj
 0002:000030c8       ??_C@_0EG@IHODDDFP@?$CIcast?$CIcast?$CIdsign?5as?5binary?$CI1?$CJ?$CJ?5@ 100c60c8     DenpScan.obj
 0002:00003110       ??_C@_0EB@KGBDNEMB@?$CIcast?$CIcast?$CIdsign?5as?5binary?$CI1?$CJ?$CJ?5@ 100c6110     DenpScan.obj
 0002:00003154       ??_C@_0BD@OLBABOEK@vector?$DMT?$DO?5too?5long@ 100c6154     DenpScan.obj
 0002:0000316c       ??_7?$CArray@Utag_IcnoInfo@@AAU1@@@6B@ 100c616c     DenpScan.obj
 0002:00003184       ??_7?$CArray@Utag_SheetTable@@AAU1@@@6B@ 100c6184     DenpScan.obj
 0002:0000319c       ??_7CDenpScan@@6B@         100c619c     DenpScan.obj
 0002:000031a0       ??_C@_04FBLNPEBP@DATE@     100c61a0     DinpINI.obj
 0002:000031a8       ??_C@_04PINLKDPK@DENP@     100c61a8     DinpINI.obj
 0002:000031b0       ??_C@_04GHKMCLFN@BMON@     100c61b0     DinpINI.obj
 0002:000031b8       ??_C@_04JFKNJPJK@DEBT@     100c61b8     DinpINI.obj
 0002:000031c0       ??_C@_04KFMOCIHI@CRED@     100c61c0     DinpINI.obj
 0002:000031c8       ??_C@_04NILOGANB@BILL@     100c61c8     DinpINI.obj
 0002:000031d0       ??_C@_05JMNGBLAK@HUSEN@    100c61d0     DinpINI.obj
 0002:000031d8       ??_C@_03OOGECIAA@BRN@      100c61d8     DinpINI.obj
 0002:000031dc       ??_C@_05GPMNCIIA@BRTEK@    100c61dc     DinpINI.obj
 0002:000031e4       ??_C@_05PNMIDNCM@HJIYU@    100c61e4     DinpINI.obj
 0002:000031ec       ??_C@_07FLEKIECI@BRTOTKY@  100c61ec     DinpINI.obj
 0002:000031f4       ??_C@_06IBCDAGCO@SYGBRN@   100c61f4     DinpINI.obj
 0002:000031fc       ??_C@_05MABKFGOO@BRCPY@    100c61fc     DinpINI.obj
 0002:00003204       ??_C@_06BKHAGCO@BMNCHK@    100c6204     DinpINI.obj
 0002:0000320c       ??_C@_06GPLFMDKM@SWKTEK@   100c620c     DinpINI.obj
 0002:00003214       ??_C@_06JKLCIMDP@SYOBUZ@   100c6214     DinpINI.obj
 0002:0000321c       ??_C@_06CFDFLJJM@BMNDSP@   100c621c     DinpINI.obj
 0002:00003224       ??_C@_06BGCHFECF@BMNSEL@   100c6224     DinpINI.obj
 0002:0000322c       ??_C@_06CKHAGMJI@RDDATE@   100c622c     DinpINI.obj
 0002:00003234       ??_C@_05JCNHABMK@RDBRN@    100c6234     DinpINI.obj
 0002:0000323c       ??_C@_04KMAEBGCI@KMPG@     100c623c     DinpINI.obj
 0002:00003244       ??_C@_04HCGFBCFK@KMNO@     100c6244     DinpINI.obj
 0002:0000324c       ??_C@_04CEBHFCNB@DCKM@     100c624c     DinpINI.obj
 0002:00003254       ??_C@_07KFKMKOCJ@DSPLINE@  100c6254     DinpINI.obj
 0002:0000325c       ??_C@_07OILPLMEE@DSPDENP@  100c625c     DinpINI.obj
 0002:00003264       ??_C@_07HHMIDEOD@DSPBMON@  100c6264     DinpINI.obj
 0002:0000326c       ??_C@_07JJFLMKDF@DSPKOJI@  100c626c     DinpINI.obj
 0002:00003274       ??_C@_07OPAMONND@DSPTGNO@  100c6274     DinpINI.obj
 0002:0000327c       ??_C@_07ELKNKDJP@DSPTGDT@  100c627c     DinpINI.obj
 0002:00003284       ??_C@_05GBNKEKCB@RESOL@    100c6284     DinpINI.obj
 0002:0000328c       ??_C@_04LPKHJIEL@WSEQ@     100c628c     DinpINI.obj
 0002:00003294       ??_C@_05DHNGJKOO@WDATE@    100c6294     DinpINI.obj
 0002:0000329c       ??_C@_05JOLAMNAL@WDENP@    100c629c     DinpINI.obj
 0002:000032a4       ??_C@_05BMHEFKM@WBMON@     100c62a4     DinpINI.obj
 0002:000032ac       ??_C@_05OPFELLHK@WKOJI@    100c62ac     DinpINI.obj
 0002:000032b4       ??_C@_05PDMGPBGL@WDEBT@    100c62b4     DinpINI.obj
 0002:000032bc       ??_C@_05MDKFEGIJ@WCRED@    100c62bc     DinpINI.obj
 0002:000032c4       ??_C@_04HABMKMLJ@WVAL@     100c62c4     DinpINI.obj
 0002:000032cc       ??_C@_04EALEEPJI@WZEI@     100c62cc     DinpINI.obj
 0002:000032d4       ??_C@_04EJGPBLJE@WSYZ@     100c62d4     DinpINI.obj
 0002:000032dc       ??_C@_04OADHAHPA@WTKY@     100c62dc     DinpINI.obj
 0002:000032e4       ??_C@_08OPBIEHJG@KANADISP@ 100c62e4     DinpINI.obj
 0002:000032f0       ??_C@_04IJDPNFIL@KOJI@     100c62f0     DinpINI.obj
 0002:000032f8       ??_C@_07BADEENKK@KJTOTKY@  100c62f8     DinpINI.obj
 0002:00003300       ??_C@_05EGHGJAAK@SCNCD@    100c6300     DinpINI.obj
 0002:00003308       ??_C@_08NBABMHLI@DSPHJIYU@ 100c6308     DinpINI.obj
 0002:00003314       ??_C@_06JDIEJANI@DSPZEI@   100c6314     DinpINI.obj
 0002:0000331c       ??_C@_07MLCEIKBP@ZEIMDFY@  100c631c     DinpINI.obj
 0002:00003324       ??_C@_06LDIHFBML@DELSWK@   100c6324     DinpINI.obj
 0002:0000332c       ??_C@_06IEPAELLG@INP2BK@   100c632c     DinpINI.obj
 0002:00003334       ??_C@_06OJLGNMDM@INDSGN@   100c6334     DinpINI.obj
 0002:0000333c       ??_C@_05KJHJDPIK@NPJGY@    100c633c     DinpINI.obj
 0002:00003344       ??_C@_05PNOALKKL@NPKNR@    100c6344     DinpINI.obj
 0002:0000334c       ??_C@_06GGANPBOA@SCNCLR@   100c634c     DinpINI.obj
 0002:00003354       ??_C@_06PJBMPIBJ@KJIINP@   100c6354     DinpINI.obj
 0002:0000335c       ??_C@_06BHPLBNIF@KANKJI@   100c635c     DinpINI.obj
 0002:00003364       ??_C@_06PIGFEFFB@KJIKMK@   100c6364     DinpINI.obj
 0002:0000336c       ??_C@_06DJECKFAA@BRNKAK@   100c636c     DinpINI.obj
 0002:00003374       ??_C@_07NONCNMKD@SLIPSEQ@  100c6374     DinpINI.obj
 0002:0000337c       ??_C@_04CCPGAMGO@BLKD@     100c637c     DinpINI.obj
 0002:00003384       ??_C@_05LCNJANAM@STKYD@    100c6384     DinpINI.obj
 0002:0000338c       ??_C@_06NGMKOFIK@DOCEVI@   100c638c     DinpINI.obj
 0002:00003394       ??_C@_07JLPOEKOM@BMNTKBR@  100c6394     DinpINI.obj
 0002:0000339c       ??_C@_07OPJAPOAK@BRNKANA@  100c639c     DinpINI.obj
 0002:000033a4       ??_C@_05GBCOJABM@RTSWK@    100c63a4     DinpINI.obj
 0002:000033ac       ??_C@_08FBFLIAHI@BMNTOTKY@ 100c63ac     DinpINI.obj
 0002:000033b8       ??_C@_06JKFPMENE@DSPSYZ@   100c63b8     DinpINI.obj
 0002:000033c0       ??_C@_06CIKDKIDN@WDHJYU@   100c63c0     DinpINI.obj
 0002:000033c8       ??_C@_05MEDBHDM@AWSEQ@     100c63c8     DinpINI.obj
 0002:000033d0       ??_C@_06PJAEJKPO@AWDATE@   100c63d0     DinpINI.obj
 0002:000033d8       ??_C@_06FAGCMNBL@AWDENP@   100c63d8     DinpINI.obj
 0002:000033e0       ??_C@_06MPBFEFLM@AWBMON@   100c63e0     DinpINI.obj
 0002:000033e8       ??_C@_06CBIGLLGK@AWKOJI@   100c63e8     DinpINI.obj
 0002:000033f0       ??_C@_05CHNAMDCP@AWKMK@    100c63f0     DinpINI.obj
 0002:000033f8       ??_C@_05GJPELLOK@AWNKN@    100c63f8     DinpINI.obj
 0002:00003400       ??_C@_05MLIHDEKI@AWSKN@    100c6400     DinpINI.obj
 0002:00003408       ??_C@_05PDFAMAOP@AWZEI@    100c6408     DinpINI.obj
 0002:00003410       ??_C@_05PKILJEOD@AWSYZ@    100c6410     DinpINI.obj
 0002:00003418       ??_C@_05FDNDIIIH@AWTKY@    100c6418     DinpINI.obj
 0002:00003420       ??_C@_06KJOPHBPM@AWHJYU@   100c6420     DinpINI.obj
 0002:00003428       ??_C@_06MMKCOCIH@WDSYON@   100c6428     DinpINI.obj
 0002:00003430       ??_C@_06ENOODLEG@AWSYON@   100c6430     DinpINI.obj
 0002:00003438       ??_C@_04KPGPJCNC@WIDE@     100c6438     DinpINI.obj
 0002:00003440       ??_C@_0BP@KAKBBICK@update?5zvolume?5set?5in_opt?5?$DN?5?$CFd@ 100c6440     DinpINI.obj
 0002:00003460       ??_C@_06BPEIKNIA@NARROW@   100c6460     DinpINI.obj
 0002:00003468       ??_C@_01IDAFKMJL@_@        100c6468     DinpINI.obj
 0002:0000346c       ??_C@_05JKHIFKBC@?$CFs?$DN?$CFd@ 100c646c     DinpINI.obj
 0002:00003474       ??_C@_08EMIPLNFF@?$CFs?$DN?$CFd?$CL?$CFs@ 100c6474     DinpINI.obj
 0002:00003480       ??_C@_01IHBHIGKO@?0@       100c6480     DinpINI.obj
 0002:00003488       ??_7CDinpINI@@6B@          100c6488     DinpINI.obj
 0002:0000348c       ??_C@_0M@EPMCCHFP@SELECTCODSN@ 100c648c     DInputSub.obj
 0002:00003498       ??_C@_0CB@FNNFNCAD@?$IDR?$ID?$IC?$ID?$JD?$IP?n?$JF?q?$IC?L?$IO?f?$JD?$LO?$IC?I?$IO?$LI?$JEs?$IC?$LF?$IC?$NM?$IC?$LF?$IC?$LN?$IB@ 100c6498     DInputSub.obj
 0002:000034bc       ??_C@_0BM@KDCIIIDO@IsCloudSansyoMode?5ret?5?$CB?$DN?50?6@ 100c64bc     DInputSub.obj
 0002:000034d8       ??_C@_0BM@NHDMEKNO@IsCloudSansyoMode?5ret?5?$DN?$DN?50?6@ 100c64d8     DInputSub.obj
 0002:000034f4       ??_C@_05PAINHOJB@KJVOL@    100c64f4     DInputSub.obj
 0002:000034fc       ??_C@_0CB@CPMAMPFM@select?5VOL_MTYP?5as?5st?5from?5KJVO@ 100c64fc     DInputSub.obj
 0002:00003520       ??_C@_0CL@GNHGJHGC@?$INH?$IO?$JG?$ID?$HN?$IDX?$ID?$FO?$IB?$FL?$ID?$FO?$IDC?$IDv?$IC?L?$ID?$GA?$IDF?$IDb?$IDN?$IC?$KK?$IN@ 100c6520     DInputSub.obj
 0002:0000354c       ??_C@_0CJ@CJACABA@?$IO?$HN?$JE?T?$JDE?$JHv?$IP?$II?$JH?$JN?$IC?L?$IP?$IJ?$IK?z?$IJ?$LL?$IC?$KK?$IC?E?$IC?$KL?$IC?$NM?$IC?$LJ?$IC@ 100c654c     DInputSub.obj
 0002:00003578       ??_C@_0CF@HLBLJPCO@?$JBI?$JB?p?$IP?$II?$JH?$JN?$IC?L?$IP?$IJ?$IK?z?$IJ?$LL?$IC?$KK?$IC?E?$IC?$KL?$IC?$NM?$IC?$LJ?$IC?q?$IC?E?$IC@ 100c6578     DInputSub.obj
 0002:000035a0       ??_C@_07JMGCEFOJ@seq?5?$DN?51@ 100c65a0     DInputSub.obj
 0002:000035a8       ??_C@_0CL@IFKPDPLI@?$JDE?$JHv?$ID?$IK?$ID?$JD?$IDN?$IDe?$IB?$FL?$IDu?$ID?$IL?$IC?L?$IDI?$IB?$FL?$IDv?$ID?$JD?$IC?I?$IO@ 100c65a8     DInputSub.obj
 0002:000035d4       ??_C@_0CJ@OIPJDFAJ@?$JDE?$JHv?$IOd?$JG?s?$IDe?$IB?$FL?$IDu?$ID?$IL?$IC?L?$IDI?$IB?$FL?$IDv?$ID?$JD?$IC?I?$IO?$LI?$JE@ 100c65d4     DInputSub.obj
 0002:00003600       ??_C@_0CL@MMIIFMLI@?$JDE?$JHv?$JB?N?$IJ?$JO?$IDI?$IDu?$IDW?$IDF?$IDN?$IDg?$IC?L?$IN?l?$JA?$KM?$IC?I?$IO?$LI?$JE@ 100c6600     DInputSub.obj
 0002:0000362c       ??_C@_0CN@HHJEGPDJ@?$JDE?$JHv?$JB?N?$IJ?$JO?$IDI?$IDu?$IDW?$IDF?$IDN?$IDg?$IC?L?$IP?$IJ?$IK?z?$IJ?$LL?$IC?I?$IO@ 100c662c     DInputSub.obj
 0002:0000365c       ??_C@_08MDPEJNJG@seq?5?$DN?5?$CFd@ 100c665c     DInputSub.obj
 0002:00003668       ??_C@_04NIHLNFAK@?$IO?X?$JF?$PL@ 100c6668     DInputSub.obj
 0002:00003670       ??_C@_04NBFCFGL@?$JB?$NN?$JF?$PL@ 100c6670     DInputSub.obj
 0002:00003678       ??_C@_0CP@JJCHHBB@?$IO?$HN?$JE?T?$ID?$HN?$IDX?$ID?$FO?$IB?$FL?$IC?E?$IC?M?$IC?H?$IC?$KC?$IC?$LN?$IC?$NP?$IO?$HN?$JE?T?$IC?M?$IO@ 100c6678     DInputSub.obj
 0002:000036a8       ??_C@_0DB@GOICIDJP@?$IM?$II?$IOZ?$IKm?$JC?h?$IP?s?$JB?T?$IC?L?$IC?$LN?$IC?$NP?$IBA?$JAV?$ILK?$IC?L?$IO?$HN?$JE?T?$IC@ 100c66a8     DInputSub.obj
 0002:000036dc       ??_C@_0DA@FDAKBFOH@?6?6?$CFs?$IJ?H?$JG?Z?$IBu?$CF?414s?$IBv?$IC?L?$IO?$HN?$JE?T?$CFs?$IC?M?$IDL?$ID?$ID@ 100c66dc     DInputSub.obj
 0002:0000370c       ??_C@_0DF@PMKKLPEE@?$CFs?$IBu?$CF?414s?4?$CFs?$IBv?$IBi?$IDR?$IB?$FL?$IDh?$DN?$CFs?4?$CFs?$IBj?$IC@ 100c670c     DInputSub.obj
 0002:00003748       ??_C@_0EO@HNBOLGIE@?$IBs?$IO?$HN?$JE?T?$JG?$KC?$JDo?$JI?$FO?$IBt?6?6?$CFs?$IJ?H?$JG?Z?$IBu?$CF?414s?$IBv@ 100c6748     DInputSub.obj
 0002:00003798       ??_C@_0EC@ENJGMMFN@?6?6?$IBu?$IC?$KC?$IC?$KC?$IC?$KG?$IBv?$IC?L?$IP?j?$IN?$IH?$IBA?$CFs?$IJ?H?$JG?Z?$IBu?$CF?41@ 100c6798     DInputSub.obj
 0002:000037dc       ??_C@_0L@CMPFHCLH@?$IC?$KC?$IC?$KC?$IC?$KG?$CI?$CGN?$CJ@ 100c67dc     DInputSub.obj
 0002:000037e8       ??_C@_0N@BMMPOCBD@?$ID?$FL?$ID?$IN?$JDo?$JI?$FO?$CI?$CGZ?$CJ@ 100c67e8     DInputSub.obj
 0002:000037f8       ??_C@_08KIGIMELD@?$IC?M?$IC?$KC?$CI?$CGY?$CJ@ 100c67f8     DInputSub.obj
 0002:00003804       ??_C@_0CO@BECMBKJD@?$CFs?$IBu?$CF?414s?$IBv?$IC?L?$IJ?H?$JG?Z?$IDR?$IB?$FL?$IDh?$IC?M?$JDo?$JI?$FO?$IC?$LD@ 100c6804     DInputSub.obj
 0002:00003834       ??_C@_0DO@ILGDEGCE@?$CFs?5?$JF?$JE?$JG?e?$FL?$CFd?$FN?$IBu?$CF?414s?4?$CFs?$IBv?$IBi?$IDR?$IB?$FL?$IDh@ 100c6834     DInputSub.obj
 0002:00003874       ??_C@_0CL@HNKOEICH@ezbmn?5?$DN?5?$CFd?5AND?5ezkcd?5?$DN?5?8?$CFs?8?5AND@ 100c6874     DInputSub.obj
 0002:000038a0       ??_C@_0DD@OLKNLAPF@?$JDd?$IOq?$JC?$KA?$JF?k?$JF?$NL?$JB?$LG?$ID?$HN?$IDX?$ID?$FO?$IB?$FL?$IC?E?$IC?M?$IBA?$IOd?$JG?s?$IC@ 100c68a0     DInputSub.obj
 0002:000038d4       ??_C@_04MCKFEFME@?$JF?O?$IO?$JG@ 100c68d4     DInputSub.obj
 0002:000038dc       ??_C@_04PJMPKNCL@?$JAU?$IJ?H@ 100c68dc     DInputSub.obj
 0002:000038e4       ??_C@_04JHPBCBBP@?$JD?$OA?$JF?$JE@ 100c68e4     DInputSub.obj
 0002:000038ec       ??_C@_04BKJDCAHE@?$IO?$JB?$JC?$LC@ 100c68ec     DInputSub.obj
 0002:000038f4       ??_C@_08CBGIIEKM@?$JF?O?$JD?$KO?$IO?$JG?$JHR@ 100c68f4     DInputSub.obj
 0002:00003900       ??_C@_08MODLCLKK@?$JAU?$JB?V?$IJ?H?$JG?Z@ 100c6900     DInputSub.obj
 0002:0000390c       ??_C@_08JMLIIMJP@?$JD?$OA?$JF?$JE?$IO?f?$II?x@ 100c690c     DInputSub.obj
 0002:00003918       ??_C@_08BJDEPKJP@?$IO?$JB?$IL?$OA?$JC?$LC?$JA?$KO@ 100c6918     DInputSub.obj
 0002:00003924       ??_C@_02LHAEJHHH@?$JF?O@   100c6924     DInputSub.obj
 0002:00003928       ??_C@_02KBJFNDKI@?$JD?$OA@ 100c6928     DInputSub.obj
 0002:0000392c       ??_C@_02IDEPKLDM@?$IO?$JB@ 100c692c     DInputSub.obj
 0002:00003930       ??_C@_0DH@KKHLPGHL@select?5top?$CI1?$CJ?5seq?5as?5st?5from?5da@ 100c6930     DInputSub.obj
 0002:00003968       ??_C@_0BK@HAJMDGLH@?$IN?E?$IPISEQ?$IC?p?$JC?$LC?$IC?W?$IC?g?$IC?j?$IC?$NM?$IC?$LJ?$IC?q?$IBI@ 100c6968     DInputSub.obj
 0002:00003984       ??_C@_0N@GPJGHHHM@kncod?5?$DN?5?8?$CFs?8@ 100c6984     DInputSub.obj
 0002:00003994       ??_C@_0L@MBNOMPDC@bnbcd?5?$DN?5?$CFd@ 100c6994     DInputSub.obj
 0002:000039a0       ??_C@_0DK@JGOOFMNI@?$IB?$KB?$IB?$KB?5seq?$DN?$CFd?0?5newdata?5inv?5?$DN?5?$CFs?0?5@ 100c69a0     DInputSub.obj
 0002:000039e0       ??_C@_0EH@HELEJMOH@?$IB?$KB?$IB?$KB?5seq?$DN?$CFd?0?5m_ksign?$CI?$CFd?$CJ?5m_ddat@ 100c69e0     DInputSub.obj
 0002:00003a28       ??_C@_0EH@EIOPDMKO@?$IB?$KA?$IB?$KA?5seq?$DN?$CFd?0?5m_ksign?$CI?$CFd?$CJ?5m_ddat@ 100c6a28     DInputSub.obj
 0002:00003a70       ??_C@_0EF@GHLLPAFJ@?$IB?$KB?$IB?$KB?5m_val?$DN?$CF02x?$CF02x?$CF02x?$CF02x?$CF02x@ 100c6a70     DInputSub.obj
 0002:00003ab8       ??_C@_0EF@ELGPMFGE@?$IB?$KA?$IB?$KA?5m_val?$DN?$CF02x?$CF02x?$CF02x?$CF02x?$CF02x@ 100c6ab8     DInputSub.obj
 0002:00003b00       ??_C@_0FD@ENMFEKHL@?$IB?$KB?$IB?$KB?5m_dkno?$DN?$CFs?0?5m_dbt?$CI?$CFs?$CJ?5m_dbr@ 100c6b00     DInputSub.obj
 0002:00003b58       ??_C@_0FD@JIIDDDCL@?$IB?$KA?$IB?$KA?5m_dkno?$DN?$CFs?0?5m_dbt?$CI?$CFs?$CJ?5m_dbr@ 100c6b58     DInputSub.obj
 0002:00003bb0       ??_C@_0GB@BJLJMAE@?$IB?$KB?$IB?$KB?5m_owner?$DN?$CFd?0?5m_dtype?$CI?$CFd?$CJ?5m_@ 100c6bb0     DInputSub.obj
 0002:00003c18       ??_C@_0GB@LKKHHHBM@?$IB?$KA?$IB?$KA?5m_owner?$DN?$CFd?0?5m_dtype?$CI?$CFd?$CJ?5m_@ 100c6c18     DInputSub.obj
 0002:00003c80       ??_C@_0EL@JCPCEFLA@?$IB?$KB?$IB?$KB?5m_udate?$DN?$CFd?0?5m_icno?$CI?$CFd?$CJ?5m_s@ 100c6c80     DInputSub.obj
 0002:00003cd0       ??_C@_0EL@NLLGPHHP@?$IB?$KA?$IB?$KA?5m_udate?$DN?$CFd?0?5m_icno?$CI?$CFd?$CJ?5m_s@ 100c6cd0     DInputSub.obj
 0002:00003d1c       ??_C@_0CI@FMAGFABL@?$IB?$KB?$IB?$KB?5m_taika?5?$DN?$CF02x?$CF02x?$CF02x?$CF02x?$CF@ 100c6d1c     DInputSub.obj
 0002:00003d44       ??_C@_0CI@JCHPEMKN@?$IB?$KA?$IB?$KA?5m_taika?5?$DN?$CF02x?$CF02x?$CF02x?$CF02x?$CF@ 100c6d44     DInputSub.obj
 0002:00003d6c       ??_C@_0BF@GNDKFINC@?$IB?$KB?$IB?$KB?5m_rnumber?$CI?$CFs?$CJ?5?6@ 100c6d6c     DInputSub.obj
 0002:00003d84       ??_C@_0BF@OHAPNFHF@?$IB?$KA?$IB?$KA?5m_rnumber?$CI?$CFs?$CJ?5?6@ 100c6d84     DInputSub.obj
 0002:00003d9c       ??_C@_06FPAFPODE@61?$CF02x@ 100c6d9c     DInputSub.obj
 0002:00003da4       ??_C@_06NJJBIMJK@62?$CF02x@ 100c6da4     DInputSub.obj
 0002:00003dac       ??_C@_06BCMNFPDP@63?$CF02x@ 100c6dac     DInputSub.obj
 0002:00003db4       ??_C@_06PHIJBIKL@00?$CF02x@ 100c6db4     DInputSub.obj
 0002:00003dbc       ??_C@_0BP@JEAFIKOK@new?5invno?5?$DN?5?$CFs?0?5moto?5inv?5?$DN?5?$CFs?6@ 100c6dbc     DInputSub.obj
 0002:00003ddc       ??_C@_06HFCLIBOB@?$CF02x00@ 100c6ddc     DInputSub.obj
 0002:00003de4       ??_C@_04OGKJMPGK@?$CF02d@  100c6de4     DInputSub.obj
 0002:00003df0       ??_7?$CArray@VjcMasterXml@@V1@@@6B@ 100c6df0     DInputSub.obj
 0002:00003e08       ??_SCZIM_TkjourUtil@@6B@   100c6e08     DInputSub.obj
 0002:00003e10       ??_7CDInputSub@@6B@        100c6e10     DInputSub.obj
 0002:00003e18       ??_7jcMasterXmlArray@@6B@  100c6e18     DInputSub.obj
 0002:00003e68       ??_7CDlgToolBar@@6B@       100c6e68     DlgToolBar.obj
 0002:00004020       ??_C@_0BD@IIICLDHB@?$AN?6?5?$CI?$IJ?f?$JG?J?$JE?T?$IN?$IG?$JHD?$JA?f?$CJ?5@ 100c7020     DnpBaseClass.obj
 0002:00004034       ??_C@_0BD@OILBLGLL@?$AN?6?5?$CI?$JF?$JE?$JG?e?$JE?T?$IN?$IG?$JHD?$JA?f?$CJ?5@ 100c7034     DnpBaseClass.obj
 0002:00004048       ??_C@_0BD@FAAHHGJC@?$AN?6?5?$CI?$INH?$IO?$JG?$JE?T?$IN?$IG?$JHD?$JA?f?$CJ?5@ 100c7048     DnpBaseClass.obj
 0002:0000405c       ??_C@_0BC@HAPOIEMO@?$AN?6?5?$FL?$CK?$FN?$IC?M?$IK?$KO?$JA?$KM?$INH?$IO?$JG?5@ 100c705c     DnpBaseClass.obj
 0002:00004070       ??_C@_0CN@KNJLEMI@select?5kzbmn?5from?5bmkzrec?5where@ 100c7070     DnpBaseClass.obj
 0002:000040a0       ??_C@_0CP@NEPOFGFJ@?$JF?$JE?$JG?e?$JG?$KC?$JD?$PM?$JH?M?$ID?$IM?$IDR?$IB?$FL?$IDh?$IDZ?$IDb?$IDg?$IC?p?$IDI?$IB?$FL?$ID@ 100c70a0     DnpBaseClass.obj
 0002:000040d0       ??_C@_0CH@MONIPICD@?$JF?$JE?$JG?e?$ID?$GA?$IDF?$IDb?$IDN?$IDN?$ID?$IJ?$IDX?$IC?L?$IN?l?$JA?$KM?$IC?$KK?$IC?E?$IC?$KL?$IC@ 100c70d0     DnpBaseClass.obj
 0002:000040f8       ??_C@_0CJ@MONAEMNG@?$JF?$JE?$JG?e?$ID?$GA?$IDF?$IDb?$IDN?$IDN?$ID?$IJ?$IDX?$IC?L?$IP?$IJ?$IK?z?$IJ?$LL?$IC?$KK?$IC?E?$IC@ 100c70f8     DnpBaseClass.obj
 0002:00004124       ??_C@_0CL@MIGAAHJP@?$INH?$IO?$JG?$JE?T?$IN?$IG?$ID?$GA?$IDF?$IDb?$IDN?$IDN?$ID?$IJ?$IDX?$IC?L?$IN?l?$JA?$KM?$IC?$KK?$IC@ 100c7124     DnpBaseClass.obj
 0002:00004150       ??_C@_0CN@KLKCEEFH@?$INH?$IO?$JG?$JE?T?$IN?$IG?$ID?$GA?$IDF?$IDb?$IDN?$IDN?$ID?$IJ?$IDX?$IC?L?$IP?$IJ?$IK?z?$IJ?$LL?$IC@ 100c7150     DnpBaseClass.obj
 0002:00004180       ??_C@_0CJ@NFBJEDJE@?$IP?A?$JE?o?$JA?E?$JD?$PM?$JH?M?$IDI?$IDu?$IDW?$IDF?$IDN?$IDg?$IC?$KK?$IN?l?$JA?$KM?$IC?E?$IC@ 100c7180     DnpBaseClass.obj
 0002:000041ac       ??_C@_0BP@LPMOKKLN@?$JAU?$JB?V?$JD?$GA?$JF?$FL?$IJ?f?$JG?J?$IC?p?$IN?l?$JA?$KM?$IC?E?$IC?$KL?$IC?$NM?$IC?$LJ?$IC?q?$IBI@ 100c71ac     DnpBaseClass.obj
 0002:000041cc       ??_C@_0CB@NKGDJGDC@?$JD?$PM?$IPo?$IL?$OA?$JD?$GA?$JF?$FL?$IJ?f?$JG?J?$IC?p?$IN?l?$JA?$KM?$IC?E?$IC?$KL?$IC?$NM?$IC?$LJ?$IC?q?$IB@ 100c71cc     DnpBaseClass.obj
 0002:000041f0       ??_C@_06BLJHMOCM@DBDINP@   100c71f0     DnpBaseClass.obj
 0002:000041f8       ??_C@_07INHJDNIE@ValCopy@  100c71f8     DnpBaseClass.obj
 0002:00004200       ??_C@_05MNEDMNBI@Tktab@    100c7200     DnpBaseClass.obj
 0002:00004208       ??_C@_05PEDALNN@?$CF?410s@ 100c7208     DnpBaseClass.obj
 0002:00004210       ??_C@_0N@DHJDIDAG@?$IBs?$JDo?$JI?$FO?$JE?T?$IN?$IG?$IBt@ 100c7210     DnpBaseClass.obj
 0002:00004220       ??_C@_0L@PHCNBNPJ@?$IBs?$IP?A?$JE?o?$JA?E?$IBt@ 100c7220     DnpBaseClass.obj
 0002:0000422c       ??_C@_0CH@NIIFOOEA@?$JFt?b?$LD?$JD?$PM?$JH?M?$IDI?$IDu?$IDW?$IDF?$IDN?$IDg?$IC?$KK?$IN?l?$JA?$KM?$IC?E?$IC?$KL?$IC@ 100c722c     DnpBaseClass.obj
 0002:00004254       ??_C@_0CL@FPNEDGCG@?$JF?O?$JD?$KO?$IO?$JG?$JHR?$JD?$PM?$JH?M?$IDI?$IDu?$IDW?$IDF?$IDN?$IDg?$IC?$KK?$IN?l?$JA?$KM?$IC@ 100c7254     DnpBaseClass.obj
 0002:00004280       ??_C@_0IC@LCPMIFHC@?$IBs?$IK?$KO?$JA?$KM?$INH?$IO?$JG?$JE?T?$IN?$IG?$ID?$GA?$IDF?$IDb?$IDN?$IBt?6?6?$CFs?$IJ?H?$JG@ 100c7280     DnpBaseClass.obj
 0002:00004308       ??_C@_0FK@BGOOECNI@?$IBs?$JF?$JE?$JG?e?$JG?$KC?$JD?$PM?$JH?M?$IBt?6?6?$CFs?$IJ?H?$JG?Z?$IBu?$CF?414s?$IBv@ 100c7308     DnpBaseClass.obj
 0002:00004364       ??_C@_0DI@OPLHONC@?$CFs?$IJ?H?$JG?Z?$IBu?$CF?414s?$IBv?$IC?p?$IOg?$JHp?$IC?$LD?$IC?j?$IC?D?$IC?$KC?$IC?$NM@ 100c7364     DnpBaseClass.obj
 0002:000043a0       ??_C@_0GC@NAFEEEJC@?$IBs?$INH?$IO?$JG?$JE?T?$IN?$IG?$JG?$KC?$JD?$PM?$JH?M?$IBt?6?6?$CFs?$IJ?H?$JG?Z?$IBu?$CF?41@ 100c73a0     DnpBaseClass.obj
 0002:00004404       ??_C@_0CF@OFLDBFFP@?$IBu?$JD?z?$JFt?$IBv?$IC?L?$IBu?$IM?$IO?$IBv?$IC?p?$JD?$PM?$JH?M?$IC?$LF?$IC?D?$IC?$KN?$IC?$LO?$IC@ 100c7404     DnpBaseClass.obj
 0002:0000442c       ??_C@_0CF@JBJILIID@?$IBu?$JD?z?$JFt?$IBv?$IC?L?$IBu?$JD?z?$IBv?$IC?p?$JD?$PM?$JH?M?$IC?$LF?$IC?D?$IC?$KN?$IC?$LO?$IC@ 100c742c     DnpBaseClass.obj
 0002:00004454       ??_C@_0BN@KIDDHKED@?$IBu?$JD?z?$JFt?$IBv?$IC?p?$JD?$PM?$JH?M?$IC?$LF?$IC?D?$IC?$KN?$IC?$LO?$IC?$LD?$IC?$KC?$IBB@ 100c7454     DnpBaseClass.obj
 0002:00004474       ??_C@_0BN@DIMBNPNB@?$IBu?$JD?z?$JFt?$IBv?$IC?$KK?$IC?$NM?$IC?$LP?$IC?$KK?$IC?A?$IC?D?$IC?$KC?$IC?$NM?$IC?$LH?$IBB@ 100c7474     DnpBaseClass.obj
 0002:00004494       ??_C@_0CD@JKGNOHPN@?$IBu?$JD?z?$JFt?$IBv?$IC?$KK?$IM?$IO?$JBI?$JB?p?$IC?L?$JE?M?$II?M?$IOw?$JC?h?$IKO?$IC?E?$IC@ 100c7494     DnpBaseClass.obj
 0002:000044b8       ??_C@_0BA@FHMPPKLA@sss?0sss?0sss?0ss9@ 100c74b8     DnpBaseClass.obj
 0002:000044c8       ??_C@_0FD@CLEAHDLM@e?3?2usdb_80_svn?2zaimu?2dbdinp_syz@ 100c74c8     DnpBaseClass.obj
 0002:0000451c       ??_C@_0N@DGBANIEM@sy_chg?5?$DN?5?$CFd?6@ 100c751c     DnpBaseClass.obj
 0002:0000452c       ??_C@_0CF@DOEAIALC@?$IP?A?$JE?o?$JA?E?$JD?$PM?$JH?M?$IDI?$IDu?$IDW?$IDF?$IDN?$IDg?$IC?$KK?$IC?$KA?$IC?h?$IC?$NM?$IC@ 100c752c     DnpBaseClass.obj
 0002:00004554       ??_C@_0CH@MGKGEND@?$JF?O?$JD?$KO?$IO?$JG?$JHR?$JD?$PM?$JH?M?$IDI?$IDu?$IDW?$IDF?$IDN?$IDg?$IC?$KK?$IC?$KA?$IC?h?$IC@ 100c7554     DnpBaseClass.obj
 0002:0000457c       ??_C@_0CD@FGPFIKL@?$JFt?b?$LD?$JD?$PM?$JH?M?$IDI?$IDu?$IDW?$IDF?$IDN?$IDg?$IC?$KK?$IC?$KA?$IC?h?$IC?$NM?$IC?$LJ?$IC@ 100c757c     DnpBaseClass.obj
 0002:000045a0       ??_C@_08GJPKLMPL@?$JF?$KB?$IN?$IH?$IOd?$JG?s@ 100c75a0     DnpBaseClass.obj
 0002:000045ac       ??_C@_08NIAIPGMF@?$JCP?$II?j?$IOd?$JG?s@ 100c75ac     DnpBaseClass.obj
 0002:000045b8       ??_C@_08MJHJFHMJ@?$JF?$KB?$IN?$IH?$JD?$PM?$JH?M@ 100c75b8     DnpBaseClass.obj
 0002:000045c4       ??_C@_08HIILBNPH@?$JCP?$II?j?$JD?$PM?$JH?M@ 100c75c4     DnpBaseClass.obj
 0002:000045d0       ??_C@_04FOHLOOIG@?$CF?48s@ 100c75d0     DnpBaseClass.obj
 0002:000045d8       ??_C@_04PEHIFCKK@?$ICP?$ICp@ 100c75d8     DnpBaseClass.obj
 0002:000045e0       ??_C@_04FDNPALDI@?$JC?$IG?$IK?T@ 100c75e0     DnpBaseClass.obj
 0002:000045e8       ??_C@_04FOHBJKCB@?$ICR?$ICp@ 100c75e8     DnpBaseClass.obj
 0002:000045f0       ??_C@_04FEBLILNO@?$IM?$II?$IPC@ 100c75f0     DnpBaseClass.obj
 0002:000045f8       ??_C@_0BL@NEHGAILN@?$IN?$IH?$IMv?$JF?$JE?$JG?e?$IC?M?$JD?$PM?$JH?M?$IC?E?$IC?$KL?$IC?$NM?$IC?$LJ?$IC?q?$IBI@ 100c75f8     DnpBaseClass.obj
 0002:00004618       ??_C@_0EF@GHBMAKGI@?$EAItemSet?5?$FLTOP?$FN?5ln?5?$DN?5?$CFd?0?5pn?5?$DN?5?$CFd@ 100c7618     DnpBaseClass.obj
 0002:00004660       ??_C@_0N@MAKBDELL@?$EAItemSet?$CI2?$CJ?6@ 100c7660     DnpBaseClass.obj
 0002:00004670       ??_C@_0CL@OJCCFAAF@ItemSet?$CI?$CFd?$CJ?5brnitm_to_tky?5m_SYd@ 100c7670     DnpBaseClass.obj
 0002:0000469c       ??_C@_0BO@PIGBOPNJ@ItemSet?$CI?$CFd?$CJ?5now?5_sy_chg?5?$CI?$CFd?$CJ?6@ 100c769c     DnpBaseClass.obj
 0002:000046bc       ??_C@_04DOMBPHEP@?$IB?$EA?$IB?$EA@ 100c76bc     DnpBaseClass.obj
 0002:000046c4       ??_C@_08GOAGKJOA@?$INH?$IO?$JG?$JE?T?$IN?$IG@ 100c76c4     DnpBaseClass.obj
 0002:000046d0       ??_C@_0P@DAJBDNBA@?$JF?$JE?$JG?e?$IBE?$INH?$IO?$JG?$JE?T?$IN?$IG@ 100c76d0     DnpBaseClass.obj
 0002:000046e0       ??_C@_0FK@CFNLDAIC@?$IO?X?$JF?$PL?$IBE?$JB?$NN?$JF?$PL?$IC?E?$IBA?$II?Y?$IC?H?$IC?i?5?$CFs?5?$IC?$KK?$JDo?$JI?$FO?$IC@ 100c76e0     DnpBaseClass.obj
 0002:0000473c       ??_C@_08EMGKICDA@?$JAU?$JB?V?$JD?$GA?$JF?$FL@ 100c773c     DnpBaseClass.obj
 0002:00004748       ??_C@_08NBGIGFGC@?$JD?$PM?$IL?$OA?$JD?$GA?$JF?$FL@ 100c7748     DnpBaseClass.obj
 0002:00004754       ??_C@_08DKJDGHBF@?$IPo?$IL?$OA?$JD?$GA?$JF?$FL@ 100c7754     DnpBaseClass.obj
 0002:00004760       ??_C@_04PGCLGFAI@?$JD?z?$JFt@ 100c7760     DnpBaseClass.obj
 0002:00004768       ??_C@_02GNEHOMBK@?$IBE@    100c7768     DnpBaseClass.obj
 0002:0000476c       ??_C@_08OIDIIMLO@?$JD?$GA?$JF?$FL?$JE?T?$IN?$IG@ 100c776c     DnpBaseClass.obj
 0002:00004778       ??_C@_08LHGGODNE@?$IP?X?$JM?$NP?$JE?T?$IN?$IG@ 100c7778     DnpBaseClass.obj
 0002:00004784       ??_C@_0DB@DNKCLPPJ@?$CFs?$IC?$KK?$II?Y?$IC?H?$IC?i?$IOd?$JG?s?$IC?$KK?$IC?$KA?$IC?i?$IC?$LN?$IC?$NP?$IBA?$CFs?$IC?p?$JF@ 100c7784     DnpBaseClass.obj
 0002:000047b8       ??_C@_0CD@GLPICDIJ@?$CFs?$IC?p?$JD?$JN?$II?j?$IC?$LF?$IC?D?$CFs?$IC?p?$JF?2?$IO?$KG?$IC?$LF?$IC?$NM?$IC?$LH?$IC?$KJ?$IBH?$AN@ 100c77b8     DnpBaseClass.obj
 0002:000047dc       ??_C@_0BI@IKPLDKMF@DisplayScanData?5ln?$DN?5?$CFd?6@ 100c77dc     DnpBaseClass.obj
 0002:000047f4       ??_C@_0BI@NNCGMAFP@DisplayScanData?5sw?$DN?5?$CFd?6@ 100c77f4     DnpBaseClass.obj
 0002:0000480c       ??_C@_0BK@HJCFPFJO@DisplayScanData_2?5sw?$DN?5?$CFd?6@ 100c780c     DnpBaseClass.obj
 0002:00004828       ??_C@_0CB@FCNIHAFL@m_rnumber?5len?5?$DN?5?$CFd?0?5sizeof?5?$DN?5?$CFd@ 100c7828     DnpBaseClass.obj
 0002:0000484c       ??_C@_0CJ@GHFHGHAG@SetScanData?5keybuf?9?$DOSYDATA?4TKin@ 100c784c     DnpBaseClass.obj
 0002:00004878       ??_C@_0BC@OBMLAMIH@?$JD?$PM?$IL?$OA?$IJ?H?$JG?Z?$IBw?$CF?414s?$IBx@ 100c7878     DnpBaseClass.obj
 0002:0000488c       ??_C@_0BC@CNNGCAIE@?$IPo?$IL?$OA?$IJ?H?$JG?Z?$IBw?$CF?414s?$IBx@ 100c788c     DnpBaseClass.obj
 0002:000048a0       ??_C@_0HE@NGAONOLK@?$IN?E?$IM?c?$IC?L?$JD?$GA?$JF?$FL?$IC?L?$IBu?$IOd?$JG?s?$JDo?$JI?$FO?$IBv?$IC?$KK?$INs?$IC?m?$IC@ 100c78a0     DnpBaseClass.obj
 0002:00004914       ??_C@_0DJ@PIHEGIGB@?$JD?$GA?$JF?$FL?$JE?T?$IN?$IG?$CI?$CF7d?$CJ?5?$IC?M?$IC?$LH?$IC?E?$IC?I?$IOg?$JHp?$IC?$LD?$IC?j?$IC@ 100c7914     DnpBaseClass.obj
 0002:00004950       ??_C@_0FO@BCMIPIJG@?$IO?$HN?$JE?T?$IC?L?$JG?$LD?$IC?$KC?$IJ?H?$JG?Z?$IC?$KK?$IC?$KA?$IC?h?$IC?$NM?$IC?$LH?$IBB?6?$JD?$GA?$JF?$FL@ 100c7950     DnpBaseClass.obj
 0002:000049b0       ??_C@_0DE@FINCBBK@?$IO?$HN?$JE?T?$IC?L?$JG?$LD?$IC?$KC?$IJ?H?$JG?Z?$IC?$KK?$IC?$KA?$IC?h?$IC?$NM?$IC?$LH?$IBB?6?$JD?$GA?$JF?$FL@ 100c79b0     DnpBaseClass.obj
 0002:000049e8       ??_C@_0KF@LLOLIBKN@?$JB?$NN?$IO?X?$IL?$OA?$IKz?$IC?$KK?$II?j?$JCv?$IC?$LF?$IC?D?$IC?$KC?$IC?$NM?$IC?$LJ?$IC?q?$IBB?6?$IC?$LB@ 100c79e8     DnpBaseClass.obj
 0002:00004a90       ??_C@_0FO@CKCBIAMN@?$IP?$JB?$IC?$KL?$IN?$JO?$IC?$NO?$IDf?$IB?$FL?$ID?$FO?$IC?$KK?$JHL?$IC?h?$IC?$NM?$IC?$LJ?$IC?q?$IBB?6?$JD?$GA@ 100c7a90     DnpBaseClass.obj
 0002:00004af0       ??_C@_0DC@DOHHCKGK@select?5count?$CI?$CK?$CJ?5as?5st?5from?5data@ 100c7af0     DnpBaseClass.obj
 0002:00004b24       ??_C@_0CF@PBDMEGNN@?$JD?$GA?$JF?$FL?$JE?T?$IN?$IG?$IC?L?$IOg?$JHp?$ID?$GA?$IDF?$IDb?$IDN?$IC?$KK?$INs?$IC?$KG?$IC?$NM?$IC@ 100c7b24     DnpBaseClass.obj
 0002:00004b4c       ??_C@_0BH@IFLMFGJB@?$IBs?$JF?$JE?$JG?e?$JE?M?$II?M?$ID?$GA?$IDF?$IDb?$IDN?$IBt?$AN?6@ 100c7b4c     DnpBaseClass.obj
 0002:00004b64       ??_C@_0DE@CIONHGDK@?$AN?6?$IJ?H?$JG?Z?$IBu?$CF?414s?$IBv?$IC?I?$IBA?$JF?$JE?$JG?e?$JE?T?$IN?$IG?$IBw?$CFs@ 100c7b64     DnpBaseClass.obj
 0002:00004b98       ??_C@_0EL@HOLLJCDJ@?$AN?6?$AN?6?$IOd?$JG?s?$IC?p?$IPC?$JA?$LD?$IC?$LF?$IC?$NM?$IC?$LH?$IC?$KJ?$IBH?$AN?6?$IC?$KC?$IC?$KC?$IC@ 100c7b98     DnpBaseClass.obj
 0002:00004be4       ??_C@_0BM@HHKOCJIE@?$IBs?$INH?$IO?$JG?$JE?T?$IN?$IG?5?$IJ?H?$JG?Z?$ID?$GA?$IDF?$IDb?$IDN?$IBt?$AN?6@ 100c7be4     DnpBaseClass.obj
 0002:00004c00       ??_C@_0DE@NJLPCEOF@?$AN?6?$IJ?H?$JG?Z?$IBu?$CF?414s?$IBv?$IC?I?$IBA?$INH?$IO?$JG?$JE?T?$IN?$IG?$IBw?$CFs@ 100c7c00     DnpBaseClass.obj
 0002:00004c38       ??_C@_0EP@NBJJHEHH@?$AN?6?$AN?6?$IOd?$JG?s?$IC?p?$IPC?$JA?$LD?$IC?$LF?$IC?$NM?$IC?$LH?$IC?$KJ?$IBH?$AN?6?$IC?$KC?$IC?$KC?$IC@ 100c7c38     DnpBaseClass.obj
 0002:00004c88       ??_C@_0FM@FDJJLHML@?5?$JF?$JE?$JG?e?$FL?$CFs?$FN?$IC?M?$JDo?$JI?$FO?$IC?$LD?$IC?j?$IC?D?$IC?$KC?$IC?$NM?$IC?$LJ?$IC?q?$IBI@ 100c7c88     DnpBaseClass.obj
 0002:00004ce8       ??_C@_0GC@MAHJFCIB@?5?$INH?$IO?$JG?$FL?$CFs?$FN?$IC?M?$JDo?$JI?$FO?$IC?$LD?$IC?j?$IC?D?$IC?$KC?$IC?$NM?$IC?$LJ?$IC?q?$IBI@ 100c7ce8     DnpBaseClass.obj
 0002:00004d4c       ??_C@_0O@LGODGCHH@DBDINP_SETUP2@ 100c7d4c     DnpBaseClass.obj
 0002:00004d5c       ??_C@_06BGGMADFA@DBDinp@   100c7d5c     DnpBaseClass.obj
 0002:00004d68       ??_C@_0FI@GDKNMMPM@?$JB?$NN?$IO?X?$IL?$OA?$IKz?$IC?$KK?$II?j?$JCv?$IC?$LF?$IC?D?$IC?$KC?$IC?$NM?$IC?$LJ?$IC?q?$IBB?6?$JD?$GA@ 100c7d68     DnpBaseClass.obj
 0002:00004dc0       ??_C@_0BH@LJAEBGIN@?$IBs?$INH?$IO?$JG?$JE?T?$IN?$IG?$ID?$GA?$IDF?$IDb?$IDN?$IBt?$AN?6@ 100c7dc0     DnpBaseClass.obj
 0002:00004dd8       ??_C@_0BJ@MKDGAFFC@?$IBs?$IO?$HN?$JE?T?$JG?$KC?$JD?$PM?$JH?M?$ID?$GA?$IDF?$IDb?$IDN?$IBt?$AN?6@ 100c7dd8     DnpBaseClass.obj
 0002:00004df4       ??_C@_0N@NOABFDFO@?$AN?6?$CI?$JB?$LM?5?$CFd?5?$IM?$IP?$CJ@ 100c7df4     DnpBaseClass.obj
 0002:00004e08       ??_C@_0FD@CNAPFPMC@?$AN?6?$AN?6?$IOd?$JG?s?$IC?p?$IPC?$JA?$LD?$IC?$LF?$IC?$NM?$IC?$LH?$IC?$KJ?$IBH?$AN?6?$IC?$KC?$IC?$KC?$IC@ 100c7e08     DnpBaseClass.obj
 0002:00004e5c       ??_C@_0BB@IDEMLEGI@?$IBs?$JF?$JE?$JG?e?$JG?$KC?$JD?$PM?$JH?M?$IBt?6?6@ 100c7e5c     DnpBaseClass.obj
 0002:00004e70       ??_C@_02PCIJFNDE@?$AN?6@   100c7e70     DnpBaseClass.obj
 0002:00004e78       ??_C@_0FD@CCMILIKI@?$AN?6?$AN?6?$IOd?$JG?s?$IC?p?$IPC?$JA?$LD?$IC?$LF?$IC?$NM?$IC?$LH?$IC?$KJ?$IBH?$AN?6?$IC?$KC?$IC?$KC?$IC@ 100c7e78     DnpBaseClass.obj
 0002:00004ecc       ??_C@_0DG@HPHPMMBB@?$AN?6?$CFs?$IJ?H?$JG?Z?$IBu?$CF?414s?$IBv?$IC?I?$IBA?$INH?$IO?$JG?$JE?T?$IN?$IG?$IBw@ 100c7ecc     DnpBaseClass.obj
 0002:00004f04       ??_C@_0DG@IOCNJOMO@?$AN?6?$CFs?$IJ?H?$JG?Z?$IBu?$CF?414s?$IBv?$IC?I?$IBA?$JF?$JE?$JG?e?$JE?T?$IN?$IG?$IBw@ 100c7f04     DnpBaseClass.obj
 0002:00004f3c       ??_C@_0DA@KMIMKBEA@?$AN?6?$CFs?$IJ?H?$JG?Z?$IBu?$CF?414s?$IBv?$IC?I?$IBA?$IO?$HN?$JE?T?$IC?$KK?$JD?$PM?$JH?M@ 100c7f3c     DnpBaseClass.obj
 0002:00004f6c       ??_C@_08BGODJDHN@?$JB?$NN?$JF?$PL?$IJ?H?$JG?Z@ 100c7f6c     DnpBaseClass.obj
 0002:00004f78       ??_C@_0CN@OHKLGLDM@SetSkbnLineDisp?5keybuf?9?$DOSYDATA?4@ 100c7f78     DnpBaseClass.obj
 0002:00004fa8       ??_C@_0DA@HEHNCILH@SetSkbnLineDisp?$CI2?$CJ?5keybuf?9?$DOSYDA@ 100c7fa8     DnpBaseClass.obj
 0002:00004fd8       ??_C@_0DP@MDBMGAPM@?$IKm?$JC?h?$IOd?$JG?s?$IBE?$JD?$FN?$JB?$JH?$IN?O?$IC?$NN?$IOd?$JG?s?$IC?$KK?$IK?$NM?$IC?$NM?$IC?j?$IC@ 100c7fd8     DnpBaseClass.obj
 0002:00005018       ??_C@_0BN@OOFKGFEJ@?$IPC?$JA?$LD?$JC?$IG?$IC?L?$JD?$GA?$JF?$FL?$IC?p?$IN?m?$IP?$JM?$IC?$LF?$IC?$NM?$IC?$LH?$IC?$KJ?$IBH@ 100c8018     DnpBaseClass.obj
 0002:00005038       ??_C@_0BE@JONHPENG@map?1set?$DMT?$DO?5too?5long@ 100c8038     DnpBaseClass.obj
 0002:00005050       ??_7?$CArray@VCDBINPDataRec@@AAV1@@@6B@ 100c8050     DnpBaseClass.obj
 0002:00005068       ??_7?$CArray@U_ICS_TKJOUR_PAC_@@AAU1@@@6B@ 100c8068     DnpBaseClass.obj
 0002:00005080       ??_7CPen@@6B@              100c8080     DnpBaseClass.obj
 0002:000050c8       ??_7CMenu@@6B@             100c80c8     DnpBaseClass.obj
 0002:000050e8       ??_7CDnpBaseClass@@6B@     100c80e8     DnpBaseClass.obj
 0002:000050ec       ??_C@_01EEMJAFIK@?6@       100c80ec     DnpBaseDlg.obj
 0002:000050f0       ??_C@_0M@HPNBMEDG@CDnpBaseDlg@ 100c80f0     DnpBaseDlg.obj
 0002:000050fc       ??_C@_09BFCPGCDP@?$IKm?$JC?h?5?$JD?$GA?$JF?$FL@ 100c80fc     DnpBaseDlg.obj
 0002:00005108       ??_C@_09KDHILCDC@?$JD?$GA?$JF?$FL?5?$IPC?$JA?$LD@ 100c8108     DnpBaseDlg.obj
 0002:00005114       ??_C@_05DIJNPLOP@?$CF?440s@ 100c8114     DnpBaseDlg.obj
 0002:0000511c       ??_C@_04OHGLKFFN@?$CF03d@  100c811c     DnpBaseDlg.obj
 0002:00005124       ??_C@_0BC@KMBIILNC@S?0SSS?0SSS?0SSS?0SSS@ 100c8124     DnpBaseDlg.obj
 0002:00005138       ??_C@_0BA@OCKLKEHL@SSS?0SSS?0SSS?0SSS@ 100c8138     DnpBaseDlg.obj
 0002:00005148       ??_C@_0BC@DPEFPKNB@?$CKSSSS?0SSS?0SSS?0SSS@ 100c8148     DnpBaseDlg.obj
 0002:0000515c       ??_C@_0BB@NLHAPDDA@?$CKSSS?0SSS?0SSS?0SSS@ 100c815c     DnpBaseDlg.obj
 0002:0000521c       ??_7CDnpBaseDlg@@6BICSResize@@@ 100c821c     DnpBaseDlg.obj
 0002:00005224       ??_7CDnpBaseDlg@@6BCDialog@@@ 100c8224     DnpBaseDlg.obj
 0002:000053e0       ?classCDnpBaseDlg@CDnpBaseDlg@@2UCRuntimeClass@@B 100c83e0     DnpBaseDlg.obj
 0002:000053fc       ??_C@_0O@CIJNMNMF@CDnpInpDialog@ 100c83fc     DnpInpDialog.obj
 0002:00005410       ?_eventsinkEntries@CDnpInpDialog@@0QBUAFX_EVENTSINKMAP_ENTRY@@B 100c8410     DnpInpDialog.obj
 0002:00005488       ?eventsinkMap@CDnpInpDialog@@1UAFX_EVENTSINKMAP@@B 100c8488     DnpInpDialog.obj
 0002:000055ec       ??_7CDnpInpDialog@@6BICSResize@@@ 100c85ec     DnpInpDialog.obj
 0002:000055f4       ??_7CDnpInpDialog@@6BCDialog@@@ 100c85f4     DnpInpDialog.obj
 0002:0000578c       ?classCDnpInpDialog@CDnpInpDialog@@2UCRuntimeClass@@B 100c878c     DnpInpDialog.obj
 0002:000057a8       ??_C@_0BB@LFLALPJ@?$IJ?H?$JG?Z?$IO?$HN?$JE?T?$IKJ?$IOn?$IOc?$IN?$IC@ 100c87a8     EdaRegDlg.obj
 0002:000057bc       ??_C@_03OFGFGCJH@?$AD?$AD?$AD@ 100c87bc     EdaRegDlg.obj
 0002:000057c0       ??_C@_03OAKPOIOM@?$AC?$AO?$AO@ 100c87c0     EdaRegDlg.obj
 0002:000057c4       ??_C@_0P@JCLLFJKG@?$FL?$CF6d?$FN?5?$CF?940?440s@ 100c87c4     EdaRegDlg.obj
 0002:000057d4       ??_C@_0P@OCBFDFNG@?$FL?$CF6d?$FN?5?$CF?939?439s@ 100c87d4     EdaRegDlg.obj
 0002:000057e4       ??_C@_0N@DKJBKMIE@ezkcd?5?$DN?5?8?$CFs?8@ 100c87e4     EdaRegDlg.obj
 0002:000057f4       ??_C@_07NIIHKMCI@?$FL?$CFs?$FN?5?$CFs@ 100c87f4     EdaRegDlg.obj
 0002:00005800       ??_C@_0FD@FCKFFIPI@?$JD?$KP?$IC?$LG?$IJ?H?$JG?Z?$IC?I?$JD?$KP?$II?j?$JG?$LM?$IP?L?$IC?$KK?$IK?y?$IC?I?$JDo?$JI?$FO?$IN?O?$IC@ 100c8800     EdaRegDlg.obj
 0002:00005854       ??_C@_0BP@FJNLAAHA@?$IPd?$JF?$KB?$IC?$LF?$IC?D?$IC?$KC?$IC?i?$IO?$HN?$JE?T?$IDR?$IB?$FL?$IDh?$IBE?$JG?$LM?$IP?L?$IBF@ 100c8854     EdaRegDlg.obj
 0002:00005874       ??_C@_04IAGIIACO@?$IB?$EA?$IBc@ 100c8874     EdaRegDlg.obj
 0002:0000587c       ??_C@_0CB@KFJFHGDK@?$AN?6?$IB?$EA?$IB?$EA?$IB?$EA?$IB?$EA?$IB?$EA?$IB?$EA?$IB?$EA?$IB?$EA?$IB?$EA?$IB?$EA?$IB?$EA?$IB?$EA?$IB?$EA?$IB?$EA?$IB@ 100c887c     EdaRegDlg.obj
 0002:000058a0       ??_C@_0BL@MPOLKHNC@?$IJ?H?$JG?Z?$JG?$LM?$IP?L?$IC?p?$IO?f?$JD?$LO?$IC?E?$IC?$KL?$IC?$NM?$IC?$LJ?$IC?q?$IBI@ 100c88a0     EdaRegDlg.obj
 0002:000058bc       ??_C@_01HIHLOKLC@1@        100c88bc     EdaRegDlg.obj
 0002:000058c0       ??_C@_0CJ@MCEBIJBA@?$FL?$JDE?$JHv?$JDo?$JI?$FO?$FN?$AN?6?$AN?6?$JDE?$JHv?$IC?$KK?$JD?$PM?$JH?M?$IC?$LD?$IC?j?$IC?D?$IC@ 100c88c0     EdaRegDlg.obj
 0002:000058f0       ??_C@_0FB@BGLFFAO@?$FL?$JDE?$JHv?$JDo?$JI?$FO?$FN?$AN?6?$AN?6?$IOw?$JC?h?$IC?$LD?$IC?j?$IC?$LN?$JDE?$JHv?$JE?T?$IN@ 100c88f0     EdaRegDlg.obj
 0002:00005944       ??_C@_0DN@DPHEHLPI@?$FL?$JDE?$JHv?$JDo?$JI?$FO?$FN?$AN?6?$AN?6?$IN?E?$JB?e?$JDo?$JI?$FO?$JA?$JE?$IC?$NM?$IC?E?$JDo?$JI@ 100c8944     EdaRegDlg.obj
 0002:00005984       ??_C@_0BJ@KENLNKCO@?$CF6d?5?5?5?$CF?940?440s?5?5?$FL?$CF?94?44s?$FN@ 100c8984     EdaRegDlg.obj
 0002:000059a0       ??_C@_0DH@EJCKCIMF@?$JD?$KP?$JHl?$IC?H?$JDE?$JHv?$IO?$KL?$IP?$JB?$IC?$KK?$IM?$KJ?$IC?B?$IC?$KJ?$IC?h?$IC?$NM?$IC?$LF?$IC?$LN?$IB@ 100c89a0     EdaRegDlg.obj
 0002:000059d8       ?_eventsinkEntries@CEdaRegDlg@@0QBUAFX_EVENTSINKMAP_ENTRY@@B 100c89d8     EdaRegDlg.obj
 0002:00005d20       ?eventsinkMap@CEdaRegDlg@@1UAFX_EVENTSINKMAP@@B 100c8d20     EdaRegDlg.obj
 0002:00005d94       ??_7CListBox@@6B@          100c8d94     EdaRegDlg.obj
 0002:00005f20       ??_7CEdaRegDlg@@6BICSResize@@@ 100c8f20     EdaRegDlg.obj
 0002:00005f28       ??_7CEdaRegDlg@@6BCDialog@@@ 100c8f28     EdaRegDlg.obj
 0002:000060f4       ??_7CForksel@@6BICSResize@@@ 100c90f4     Forksel.obj
 0002:000060fc       ??_7CForksel@@6BCDialog@@@ 100c90fc     Forksel.obj
 0002:00006294       ??_C@_08CIEFJMN@CFuriDlg@  100c9294     FuriDlg.obj
 0002:000062a0       ??_C@_04FPDODJCK@?$AC?$AC?$AC?$AN@ 100c92a0     FuriDlg.obj
 0002:000062a8       ??_C@_01IMBAIPIC@?$AC@     100c92a8     FuriDlg.obj
 0002:000062ac       ??_C@_02JNLJNPAN@?$AC?$AO@ 100c92ac     FuriDlg.obj
 0002:000062b0       ??_C@_02JMHLLFDK@?$AD?$AO@ 100c92b0     FuriDlg.obj
 0002:000062b4       ??_C@_0CA@MIDHEGL@1?$IOd?$JG?s?$IC?$LC?$IC?F?$IC?I?$JF?$JE?$JG?e?$IBE?$INH?$IO?$JG?$JE?T?$IN?$IG?$IC?p?$JD?$PM?$JH?M@ 100c92b4     FuriDlg.obj
 0002:000062d4       ??_C@_0BG@CJHEPNLO@1?$IOd?$JG?s?$IC?$LC?$IC?F?$IC?I?$JF?$JE?$JG?e?$IC?p?$JD?$PM?$JH?M@ 100c92d4     FuriDlg.obj
 0002:000062ec       ??_C@_0BK@PJJNNALH@1?$IOd?$JG?s?$IC?$LC?$IC?F?$IC?I?$INH?$IO?$JG?$JE?T?$IN?$IG?$IC?p?$JD?$PM?$JH?M@ 100c92ec     FuriDlg.obj
 0002:00006308       ??_C@_08GIIIKMFO@?5?$CFs?5?$JFt?b?$LD@ 100c9308     FuriDlg.obj
 0002:00006314       ??_C@_0BP@LBKKNBEA@?$JF?$JE?$JG?e?$IB?$EA?$INH?$IO?$JG?$JE?T?$IN?$IG?$AN?6?$IO?X?$IB?$EA?$IB?$EA?$IB?$EA?$IB?$EA?$IB?$EA?$JF?$PL@ 100c9314     FuriDlg.obj
 0002:00006334       ??_C@_0BP@CFODODPP@?$JF?$JE?$JG?e?$IB?$EA?$INH?$IO?$JG?$JE?T?$IN?$IG?$AN?6?$JB?$NN?$IB?$EA?$IB?$EA?$IB?$EA?$IB?$EA?$IB?$EA?$JF?$PL@ 100c9334     FuriDlg.obj
 0002:00006354       ??_C@_0BP@GFPKDCGJ@?$JF?$JE?$JG?e?$IB?$EA?$IB?$EA?$IB?$EA?$IB?$EA?$IB?$EA?$AN?6?$IO?X?$IB?$EA?$IB?$EA?$IB?$EA?$IB?$EA?$IB?$EA?$JF?$PL@ 100c9354     FuriDlg.obj
 0002:00006374       ??_C@_0BP@PBLDAANG@?$JF?$JE?$JG?e?$IB?$EA?$IB?$EA?$IB?$EA?$IB?$EA?$IB?$EA?$AN?6?$JB?$NN?$IB?$EA?$IB?$EA?$IB?$EA?$IB?$EA?$IB?$EA?$JF?$PL@ 100c9374     FuriDlg.obj
 0002:00006394       ??_C@_0BP@FDOLPFBM@?$IB?$EA?$IB?$EA?$IB?$EA?$INH?$IO?$JG?$JE?T?$IN?$IG?$AN?6?$IO?X?$IB?$EA?$IB?$EA?$IB?$EA?$IB?$EA?$IB?$EA?$JF?$PL@ 100c9394     FuriDlg.obj
 0002:000063b4       ??_C@_0BP@MHKCMHKD@?$IB?$EA?$IB?$EA?$IB?$EA?$INH?$IO?$JG?$JE?T?$IN?$IG?$AN?6?$JB?$NN?$IB?$EA?$IB?$EA?$IB?$EA?$IB?$EA?$IB?$EA?$JF?$PL@ 100c93b4     FuriDlg.obj
 0002:000063d4       ??_C@_0BB@ODAKNNNP@?$AN?6?$IO?X?$IB?$EA?$IB?$EA?$IB?$EA?$IB?$EA?$IB?$EA?$JF?$PL@ 100c93d4     FuriDlg.obj
 0002:000063e8       ??_C@_0BB@HHEDOPGA@?$AN?6?$JB?$NN?$IB?$EA?$IB?$EA?$IB?$EA?$IB?$EA?$IB?$EA?$JF?$PL@ 100c93e8     FuriDlg.obj
 0002:000063fc       ??_C@_0BE@CBCAJFGO@?$IN?E?$JB?e?$CF3d?$INs?5?$FL?$CF3d?1?$CF3d?$FN@ 100c93fc     FuriDlg.obj
 0002:00006410       ??_C@_09KHDHPKIB@?$IN?E?$JB?e?$CF3d?$INs@ 100c9410     FuriDlg.obj
 0002:0000641c       ?clsid@?1??GetClsid@CICSDisp@@QAEABU_GUID@@XZ@4U3@B 100c941c     FuriDlg.obj
 0002:00006430       ?_eventsinkEntries@CFuriDlg@@0QBUAFX_EVENTSINKMAP_ENTRY@@B 100c9430     FuriDlg.obj
 0002:00006638       ?eventsinkMap@CFuriDlg@@1UAFX_EVENTSINKMAP@@B 100c9638     FuriDlg.obj
 0002:000066b4       ??_7CICSDisp@@6B@          100c96b4     FuriDlg.obj
 0002:00006824       ??_7CIcsdiag8ctrl@@6B@     100c9824     FuriDlg.obj
 0002:00006994       ??_7CScrollBar@@6B@        100c9994     FuriDlg.obj
 0002:00006b08       ??_7CFuriDlg@@6BICSResize@@@ 100c9b08     FuriDlg.obj
 0002:00006b10       ??_7CFuriDlg@@6BCDialog@@@ 100c9b10     FuriDlg.obj
 0002:00006ccc       ?classCFuriDlg@CFuriDlg@@2UCRuntimeClass@@B 100c9ccc     FuriDlg.obj
 0002:00006ce8       ?clsid@?1??GetClsid@CIcsdiag8ctrl@@QAEABU_GUID@@XZ@4U3@B 100c9ce8     FuriDlg.obj
 0002:00006cf8       ??_C@_09DBKPAMII@CHjiyuDlg@ 100c9cf8     HjiyuDlg.obj
 0002:00006d6c       ??_7CHjiyuDlg@@6BICSResize@@@ 100c9d6c     HjiyuDlg.obj
 0002:00006d74       ??_7CHjiyuDlg@@6BCDialog@@@ 100c9d74     HjiyuDlg.obj
 0002:00006f0c       ?classCHjiyuDlg@CHjiyuDlg@@2UCRuntimeClass@@B 100c9f0c     HjiyuDlg.obj
 0002:00006f2c       ??_7CHjiyuInp@@6B@         100c9f2c     HjiyuInp.obj
 0002:00006f30       ??_C@_04DKABLIOK@?$IC?H?$IC?$LF@ 100c9f30     HusenCombo.obj
 0002:00006f38       ??_C@_08LKFDBFKH@?$JFt?b?$LD?$IC?H?$IC?$LF@ 100c9f38     HusenCombo.obj
 0002:00006f80       ??_7CHusenComboEX@@6B@     100c9f80     HusenCombo.obj
 0002:00007104       ??_7CHusenCombo@@6B@       100ca104     HusenCombo.obj
 0002:00007288       ??_7CComboBox@@6B@         100ca288     HusenCombo.obj
 0002:00007408       ?_eventsinkEntries@CHusenDlg@@0QBUAFX_EVENTSINKMAP_ENTRY@@B 100ca408     HusenDlg.obj
 0002:000074d0       ?eventsinkMap@CHusenDlg@@1UAFX_EVENTSINKMAP@@B 100ca4d0     HusenDlg.obj
 0002:00007574       ??_7CHusenDlg@@6BICSResize@@@ 100ca574     HusenDlg.obj
 0002:0000757c       ??_7CHusenDlg@@6BCDialog@@@ 100ca57c     HusenDlg.obj
 0002:00007718       ??_7CHusenInp@@6B@         100ca718     HusenInp.obj
 0002:0000771c       ??_C@_0N@EMGKCOFO@CHusenStatic@ 100ca71c     HusenStatic.obj
 0002:00007748       ??_7CHusenStatic@@6BCXTThemeManagerStyleHost@@@ 100ca748     HusenStatic.obj
 0002:00007758       ??_7CHusenStatic@@6BCStatic@@@ 100ca758     HusenStatic.obj
 0002:00007900       ?classCHusenStatic@CHusenStatic@@2UCRuntimeClass@@B 100ca900     HusenStatic.obj
 0002:0000791c       ??_C@_09BNJCPOEC@CICSDBEDT@ 100ca91c     icsdbedt.obj
 0002:00007928       ?classCICSDBEDT@CICSDBEDT@@2UCRuntimeClass@@B 100ca928     icsdbedt.obj
 0002:00007944       ??_C@_0O@CHMPCDOD@CIcsdiag8ctrl@ 100ca944     icsdiag8ctrl.obj
 0002:00007954       ?classCIcsdiag8ctrl@CIcsdiag8ctrl@@2UCRuntimeClass@@B 100ca954     icsdiag8ctrl.obj
 0002:00007970       ??_C@_08KFBHPBBH@CICSDisp@ 100ca970     icsdisp.obj
 0002:0000797c       ?classCICSDisp@CICSDisp@@2UCRuntimeClass@@B 100ca97c     icsdisp.obj
 0002:00007a1c       ??_7ICSListBox@@6B@        100caa1c     ICSListBox.obj
 0002:00007ba4       ??_C@_0M@DKBCNFHF@CICSListInp@ 100caba4     icslistinp.obj
 0002:00007bb0       ?classCICSListInp@CICSListInp@@2UCRuntimeClass@@B 100cabb0     icslistinp.obj
 0002:00007bd0       ??_7CICSListInp@@6B@       100cabd0     icslistinp.obj
 0002:00007d3c       ?clsid@?1??GetClsid@CICSListInp@@QAEABU_GUID@@XZ@4U3@B 100cad3c     icslistinp.obj
 0002:00007d4c       ??_C@_07EEMPJFMH@CICSSel@  100cad4c     icssel.obj
 0002:00007d54       ?classCICSSel@CICSSel@@2UCRuntimeClass@@B 100cad54     icssel.obj
 0002:00007da4       ??_7CICSTbarDlg@@6BICSResize@@@ 100cada4     ICSTbarDlg.obj
 0002:00007dac       ??_7CICSTbarDlg@@6BCDialog@@@ 100cadac     ICSTbarDlg.obj
 0002:00007f48       ??_C@_0BB@BOJAPLCC@?$IB?$ID?$IDC?$ID?$IB?$IB?$FL?$IDW?$JDE?$JHv?$IB?$IE@ 100caf48     ImageStatic.obj
 0002:00007fe4       ??_7CBitmap@@6B@           100cafe4     ImageStatic.obj
 0002:00007ffc       ??_7ImageStatic@@6B@       100caffc     ImageStatic.obj
 0002:00008170       ??_C@_0L@NFEDKLGJ@CIndkmkDlg@ 100cb170     IndkmkDlg.obj
 0002:000081fc       ??_7CIndkmkDlg@@6BICSResize@@@ 100cb1fc     IndkmkDlg.obj
 0002:00008204       ??_7CIndkmkDlg@@6BCDialog@@@ 100cb204     IndkmkDlg.obj
 0002:0000839c       ?classCIndkmkDlg@CIndkmkDlg@@2UCRuntimeClass@@B 100cb39c     IndkmkDlg.obj
 0002:000083b8       ??_C@_0N@EBGIAJHI@CKJKKIrecord@ 100cb3b8     KJKKI.obj
 0002:000083c8       ??_C@_0O@HKEKMGAL@?$FLdbo?$FN?4?$FLKJKKI?$FN@ 100cb3c8     KJKKI.obj
 0002:000083d8       ??_C@_0L@JAMOHOPH@?$FLKKI_KJCD?$FN@ 100cb3d8     KJKKI.obj
 0002:000083e4       ??_C@_0L@HIOCOHPL@?$FLKKI_KN50?$FN@ 100cb3e4     KJKKI.obj
 0002:000083f0       ??_C@_0L@CJLDJCBE@?$FLKKI_PGEN?$FN@ 100cb3f0     KJKKI.obj
 0002:000083fc       ??_C@_0L@DOEABGMO@?$FLKKI_PYMD?$FN@ 100cb3fc     KJKKI.obj
 0002:00008408       ??_C@_0L@KMPBOCCB@?$FLKKI_CGEN?$FN@ 100cb408     KJKKI.obj
 0002:00008414       ??_C@_0L@LLACGGPL@?$FLKKI_CYMD?$FN@ 100cb414     KJKKI.obj
 0002:00008420       ??_C@_0L@OLMMDNM@?$FLKKI_YGEN?$FN@ 100cb420     KJKKI.obj
 0002:0000842c       ??_C@_0L@BJEPEHAG@?$FLKKI_YYMD?$FN@ 100cb42c     KJKKI.obj
 0002:00008438       ??_C@_0L@EAKCGAEM@?$FLKKI_KGEN?$FN@ 100cb438     KJKKI.obj
 0002:00008444       ??_C@_0L@FHFBOEJG@?$FLKKI_KYMD?$FN@ 100cb444     KJKKI.obj
 0002:00008450       ??_C@_0L@NLDAJEC@?$FLKKI_HAIF?$FN@ 100cb450     KJKKI.obj
 0002:0000845c       ??_C@_0L@COJNMOND@?$FLKKI_FURI?$FN@ 100cb45c     KJKKI.obj
 0002:00008468       ??_C@_0L@NDOFIPHI@?$FLKKI_HSAG?$FN@ 100cb468     KJKKI.obj
 0002:00008474       ??_C@_0L@GBIKDNEI@?$FLKKI_HACD?$FN@ 100cb474     KJKKI.obj
 0002:00008480       ??_C@_0L@ONGEGFFH@?$FLKKI_EICD?$FN@ 100cb480     KJKKI.obj
 0002:0000848c       ??_C@_0L@NHHMPFEN@?$FLKKI_GBCD?$FN@ 100cb48c     KJKKI.obj
 0002:00008498       ??_C@_0M@CPNOGPHG@?$FLKKI_RIT01?$FN@ 100cb498     KJKKI.obj
 0002:000084a4       ??_C@_0M@CNJINBCP@?$FLKKI_RIT02?$FN@ 100cb4a4     KJKKI.obj
 0002:000084b0       ??_C@_0M@CMFKLLBI@?$FLKKI_RIT03?$FN@ 100cb4b0     KJKKI.obj
 0002:000084bc       ??_C@_0L@FGMOMDFB@?$FLKKI_NAME?$FN@ 100cb4bc     KJKKI.obj
 0002:000084c8       ??_C@_0L@GOOMCDKE@?$FLKKI_RYNM?$FN@ 100cb4c8     KJKKI.obj
 0002:000084d4       ??_C@_0L@KAIKIC@?$FLKKI_SENM?$FN@ 100cb4d4     KJKKI.obj
 0002:000084e0       ??_C@_0L@DJIAJCOB@?$FLKKI_BIKO?$FN@ 100cb4e0     KJKKI.obj
 0002:000084ec       ??_C@_0L@JDLLINDC@?$FLKKI_GENB?$FN@ 100cb4ec     KJKKI.obj
 0002:000084f8       ??_C@_0L@NMLHJLKA@?$FLREG_DATE?$FN@ 100cb4f8     KJKKI.obj
 0002:00008504       ??_C@_0L@MCAAMKOP@?$FLREG_TIME?$FN@ 100cb504     KJKKI.obj
 0002:00008510       ??_C@_0L@PPNBALHD@?$FLREG_USER?$FN@ 100cb510     KJKKI.obj
 0002:0000851c       ??_C@_0L@FGLDIAAE@?$FLUPD_DATE?$FN@ 100cb51c     KJKKI.obj
 0002:00008528       ??_C@_0L@EIAENBEL@?$FLUPD_TIME?$FN@ 100cb528     KJKKI.obj
 0002:00008534       ??_C@_0L@HFNFBANH@?$FLUPD_USER?$FN@ 100cb534     KJKKI.obj
 0002:00008544       ??_7CKJKKIrecord@@6B@      100cb544     KJKKI.obj
 0002:000085b0       ?classCKJKKIrecord@CKJKKIrecord@@2UCRuntimeClass@@B 100cb5b0     KJKKI.obj
 0002:000085d0       ??_7CKJnamAccess@@6B@      100cb5d0     KJKKI.obj
 0002:000085d4       ??_C@_05CIIAKNEK@KJKKI@    100cb5d4     KJNamRec.obj
 0002:000085dc       ??_C@_0DL@HEMNNMPJ@space?$CI?512?9len?$CIkki_kjcd?$CJ?$CJ?5?$CL?5kki_@ 100cb5dc     KJNamRec.obj
 0002:00008618       ??_C@_0BE@KCJDHDOP@Memory?5Alloc?5Error?$CB@ 100cb618     KJNamRec.obj
 0002:0000862c       ??_C@_06KJMAGPKI@CKJVOL@   100cb62c     KJVOL.obj
 0002:00008634       ??_C@_0O@GLJDMAIE@?$FLdbo?$FN?4?$FLKJVOL?$FN@ 100cb634     KJVOL.obj
 0002:00008644       ??_C@_0L@KFGKDEKN@?$FLVOL_IDCD?$FN@ 100cb644     KJVOL.obj
 0002:00008650       ??_C@_0L@OPDEHEFE@?$FLVOL_CODE?$FN@ 100cb650     KJVOL.obj
 0002:0000865c       ??_C@_0L@CCGGLALO@?$FLVOL_APNO?$FN@ 100cb65c     KJVOL.obj
 0002:00008668       ??_C@_0L@HKJAFNGO@?$FLVOL_MTYP?$FN@ 100cb668     KJVOL.obj
 0002:00008674       ??_C@_0N@MJILIOGH@?$FLVOL_PEDA01?$FN@ 100cb674     KJVOL.obj
 0002:00008684       ??_C@_0N@MLMNDADO@?$FLVOL_PEDA02?$FN@ 100cb684     KJVOL.obj
 0002:00008694       ??_C@_0N@MKAPFKAJ@?$FLVOL_PEDA03?$FN@ 100cb694     KJVOL.obj
 0002:000086a4       ??_C@_0N@HLLAKNGB@?$FLVOL_PUCD01?$FN@ 100cb6a4     KJVOL.obj
 0002:000086b4       ??_C@_0N@HJPGBDDI@?$FLVOL_PUCD02?$FN@ 100cb6b4     KJVOL.obj
 0002:000086c4       ??_C@_0N@HIDEHJAP@?$FLVOL_PUCD03?$FN@ 100cb6c4     KJVOL.obj
 0002:000086d4       ??_C@_0N@HNHLGPIK@?$FLVOL_PUCD04?$FN@ 100cb6d4     KJVOL.obj
 0002:000086e4       ??_C@_0N@HMLJAFLN@?$FLVOL_PUCD05?$FN@ 100cb6e4     KJVOL.obj
 0002:000086f4       ??_C@_0N@HOPPLLOE@?$FLVOL_PUCD06?$FN@ 100cb6f4     KJVOL.obj
 0002:00008704       ??_C@_0N@HPDNNBND@?$FLVOL_PUCD07?$FN@ 100cb704     KJVOL.obj
 0002:00008714       ??_C@_0N@HEGBJGOO@?$FLVOL_PUCD08?$FN@ 100cb714     KJVOL.obj
 0002:00008724       ??_C@_0N@HFKDPMNJ@?$FLVOL_PUCD09?$FN@ 100cb724     KJVOL.obj
 0002:00008734       ??_C@_0N@MCMOKADD@?$FLVOL_PUCD10?$FN@ 100cb734     KJVOL.obj
 0002:00008744       ??_C@_0L@FKIPPONO@?$FLVOL_HFSW?$FN@ 100cb744     KJVOL.obj
 0002:00008750       ??_C@_0L@JECBCJNG@?$FLVOL_HKJC?$FN@ 100cb750     KJVOL.obj
 0002:0000875c       ??_C@_0N@CFEGPKBM@?$FLVOL_HTUK01?$FN@ 100cb75c     KJVOL.obj
 0002:0000876c       ??_C@_0N@CHAAEEEF@?$FLVOL_HTUK02?$FN@ 100cb76c     KJVOL.obj
 0002:0000877c       ??_C@_0N@CGMCCOHC@?$FLVOL_HTUK03?$FN@ 100cb77c     KJVOL.obj
 0002:0000878c       ??_C@_0N@CDINDIPH@?$FLVOL_HTUK04?$FN@ 100cb78c     KJVOL.obj
 0002:0000879c       ??_C@_0N@CCEPFCMA@?$FLVOL_HTUK05?$FN@ 100cb79c     KJVOL.obj
 0002:000087ac       ??_C@_0N@CAAJOMJJ@?$FLVOL_HTUK06?$FN@ 100cb7ac     KJVOL.obj
 0002:000087bc       ??_C@_0N@CBMLIGKO@?$FLVOL_HTUK07?$FN@ 100cb7bc     KJVOL.obj
 0002:000087cc       ??_C@_0N@CKJHMBJD@?$FLVOL_HTUK08?$FN@ 100cb7cc     KJVOL.obj
 0002:000087dc       ??_C@_0N@CLFFKLKE@?$FLVOL_HTUK09?$FN@ 100cb7dc     KJVOL.obj
 0002:000087ec       ??_C@_0N@JMDIPHEO@?$FLVOL_HTUK10?$FN@ 100cb7ec     KJVOL.obj
 0002:000087fc       ??_C@_0N@JNPKJNHJ@?$FLVOL_HTUK11?$FN@ 100cb7fc     KJVOL.obj
 0002:0000880c       ??_C@_0N@JPLMCDCA@?$FLVOL_HTUK12?$FN@ 100cb80c     KJVOL.obj
 0002:0000881c       ??_C@_0N@JOHOEJBH@?$FLVOL_HTUK13?$FN@ 100cb81c     KJVOL.obj
 0002:0000882c       ??_C@_0N@JLDBFPJC@?$FLVOL_HTUK14?$FN@ 100cb82c     KJVOL.obj
 0002:0000883c       ??_C@_0N@JKPDDFKF@?$FLVOL_HTUK15?$FN@ 100cb83c     KJVOL.obj
 0002:0000884c       ??_C@_0N@JILFILPM@?$FLVOL_HTUK16?$FN@ 100cb84c     KJVOL.obj
 0002:0000885c       ??_C@_0N@PEHGMBMC@?$FLVOL_HCSW01?$FN@ 100cb85c     KJVOL.obj
 0002:0000886c       ??_C@_0N@PGDAHPJL@?$FLVOL_HCSW02?$FN@ 100cb86c     KJVOL.obj
 0002:0000887c       ??_C@_0N@PHPCBFKM@?$FLVOL_HCSW03?$FN@ 100cb87c     KJVOL.obj
 0002:0000888c       ??_C@_0N@PCLNADCJ@?$FLVOL_HCSW04?$FN@ 100cb88c     KJVOL.obj
 0002:0000889c       ??_C@_0N@PDHPGJBO@?$FLVOL_HCSW05?$FN@ 100cb89c     KJVOL.obj
 0002:000088ac       ??_C@_0N@PBDJNHEH@?$FLVOL_HCSW06?$FN@ 100cb8ac     KJVOL.obj
 0002:000088bc       ??_C@_0N@IJLGIECM@?$FLVOL_HCLQ01?$FN@ 100cb8bc     KJVOL.obj
 0002:000088cc       ??_C@_0N@ILPADKHF@?$FLVOL_HCLQ02?$FN@ 100cb8cc     KJVOL.obj
 0002:000088dc       ??_C@_0N@IKDCFAEC@?$FLVOL_HCLQ03?$FN@ 100cb8dc     KJVOL.obj
 0002:000088ec       ??_C@_0N@IPHNEGMH@?$FLVOL_HCLQ04?$FN@ 100cb8ec     KJVOL.obj
 0002:000088fc       ??_C@_0N@NCBDJNJH@?$FLVOL_FKSW01?$FN@ 100cb8fc     KJVOL.obj
 0002:0000890c       ??_C@_0N@NAFFCDMO@?$FLVOL_FKSW02?$FN@ 100cb90c     KJVOL.obj
 0002:0000891c       ??_C@_0N@NBJHEJPJ@?$FLVOL_FKSW03?$FN@ 100cb91c     KJVOL.obj
 0002:0000892c       ??_C@_0L@BMAJACMJ@?$FLVOL_FKKM?$FN@ 100cb92c     KJVOL.obj
 0002:00008938       ??_C@_0L@PPOJKDG@?$FLVOL_FKKT?$FN@ 100cb938     KJVOL.obj
 0002:00008944       ??_C@_0L@KEHGBGLM@?$FLVOL_PRKM?$FN@ 100cb944     KJVOL.obj
 0002:00008950       ??_C@_0L@LHIBIOED@?$FLVOL_PRKT?$FN@ 100cb950     KJVOL.obj
 0002:0000895c       ??_C@_0N@JKIBHMCG@?$FLVOL_PRSW01?$FN@ 100cb95c     KJVOL.obj
 0002:0000896c       ??_C@_0N@JIMHMCHP@?$FLVOL_PRSW02?$FN@ 100cb96c     KJVOL.obj
 0002:0000897c       ??_C@_0N@JJAFKIEI@?$FLVOL_PRSW03?$FN@ 100cb97c     KJVOL.obj
 0002:0000898c       ??_C@_0N@PDOGKPNA@?$FLVOL_DMSW01?$FN@ 100cb98c     KJVOL.obj
 0002:0000899c       ??_C@_0N@PBKABBIJ@?$FLVOL_DMSW02?$FN@ 100cb99c     KJVOL.obj
 0002:000089ac       ??_C@_0N@PAGCHLLO@?$FLVOL_DMSW03?$FN@ 100cb9ac     KJVOL.obj
 0002:000089bc       ??_C@_0N@PFCNGNDL@?$FLVOL_DMSW04?$FN@ 100cb9bc     KJVOL.obj
 0002:000089cc       ??_C@_0N@PEOPAHAM@?$FLVOL_DMSW05?$FN@ 100cb9cc     KJVOL.obj
 0002:000089dc       ??_C@_0N@PGKJLJFF@?$FLVOL_DMSW06?$FN@ 100cb9dc     KJVOL.obj
 0002:000089ec       ??_C@_0N@PHGLNDGC@?$FLVOL_DMSW07?$FN@ 100cb9ec     KJVOL.obj
 0002:000089fc       ??_C@_0N@PMDHJEFP@?$FLVOL_DMSW08?$FN@ 100cb9fc     KJVOL.obj
 0002:00008a0c       ??_C@_0N@PNPFPOGI@?$FLVOL_DMSW09?$FN@ 100cba0c     KJVOL.obj
 0002:00008a1c       ??_C@_0N@EKJIKCIC@?$FLVOL_DMSW10?$FN@ 100cba1c     KJVOL.obj
 0002:00008a2c       ??_C@_0N@BMDOGCNG@?$FLVOL_DMNO01?$FN@ 100cba2c     KJVOL.obj
 0002:00008a3c       ??_C@_0N@BOHINMIP@?$FLVOL_DMNO02?$FN@ 100cba3c     KJVOL.obj
 0002:00008a4c       ??_C@_0N@BPLKLGLI@?$FLVOL_DMNO03?$FN@ 100cba4c     KJVOL.obj
 0002:00008a5c       ??_C@_0N@BKPFKADN@?$FLVOL_DMNO04?$FN@ 100cba5c     KJVOL.obj
 0002:00008a6c       ??_C@_0N@BLDHMKAK@?$FLVOL_DMNO05?$FN@ 100cba6c     KJVOL.obj
 0002:00008a7c       ??_C@_0N@GGPODBLG@?$FLVOL_DMNM01?$FN@ 100cba7c     KJVOL.obj
 0002:00008a8c       ??_C@_0N@GELIIPOP@?$FLVOL_DMNM02?$FN@ 100cba8c     KJVOL.obj
 0002:00008a9c       ??_C@_0N@GFHKOFNI@?$FLVOL_DMNM03?$FN@ 100cba9c     KJVOL.obj
 0002:00008aac       ??_C@_0N@GADFPDFN@?$FLVOL_DMNM04?$FN@ 100cbaac     KJVOL.obj
 0002:00008abc       ??_C@_0N@GBPHJJGK@?$FLVOL_DMNM05?$FN@ 100cbabc     KJVOL.obj
 0002:00008ad0       ??_7CKJVOL@@6B@            100cbad0     KJVOL.obj
 0002:00008b3c       ?classCKJVOL@CKJVOL@@2UCRuntimeClass@@B 100cbb3c     KJVOL.obj
 0002:00008b58       ??_C@_08KBGMGCBC@CKpubDlg@ 100cbb58     KpubDlg.obj
 0002:00008b64       ??_C@_0BF@FAOIHNBG@?$JBS?$IB?$EA?$IB?$EA?$IO?$JG?$IB?$EA?$IB?$EA?$IL?F?$IB?$EA?$IB?$EA?$JE?o@ 100cbb64     KpubDlg.obj
 0002:00008b7c       ??_C@_0BF@CCCIGMGL@?$JBS?$IB?$EA?$IB?$EA?$IK?G?$IB?$EA?$IB?$EA?$JH?$JN?$IB?$EA?$IB?$EA?$JE?o@ 100cbb7c     KpubDlg.obj
 0002:00008bc8       ??_7CKpubDlg@@6BICSResize@@@ 100cbbc8     KpubDlg.obj
 0002:00008bd0       ??_7CKpubDlg@@6BCDialog@@@ 100cbbd0     KpubDlg.obj
 0002:00008d68       ?classCKpubDlg@CKpubDlg@@2UCRuntimeClass@@B 100cbd68     KpubDlg.obj
 0002:00008d84       ??_C@_0CH@LFBCCFGI@?$JDE?$JHv?$IO?$KL?$IP?$JB?$IC?I?$JC?G?$IJ?A?$IC?$LF?$IC?D?$IBA?$JB?N?$IJ?$JO?$JDE?$JHv?$IC?I?$JD@ 100cbd84     KsrcStr.obj
 0002:00008dac       ??_C@_0CH@LJFCOGDF@?$JDE?$JHv?$IO?$KL?$IP?$JB?$IC?p?$JCu?$IK?$LH?$IC?$LF?$IC?D?$IBA?$JB?N?$IJ?$JO?$JDE?$JHv?$IC?I?$JD@ 100cbdac     KsrcStr.obj
 0002:00008dd4       ??_C@_0BN@GDNKDDFJ@?$JH?$NO?$IO?$JH?$JDE?$JHv?$IC?p?$JB?N?$IJ?$JO?$JDE?$JHv?$IC?I?$JDo?$JI?$FO?$IC?$LH?$IC?i@ 100cbdd4     KsrcStr.obj
 0002:00008e5c       ??_7CKsrcStr@@6BICSResize@@@ 100cbe5c     KsrcStr.obj
 0002:00008e64       ??_7CKsrcStr@@6BCDialog@@@ 100cbe64     KsrcStr.obj
 0002:00008ffc       ??_C@_0L@NAAMFKKD@CNSDenpDlg@ 100cbffc     NSDenpDlg.obj
 0002:00009008       ??_C@_0M@PLOHFPHC@?$JD?$PM?5?$IL?$OA?5?$JD?$GA?5?$JF?$FL@ 100cc008     NSDenpDlg.obj
 0002:00009014       ??_C@_0M@LCAAGIFK@?$IPo?5?$IL?$OA?5?$JD?$GA?5?$JF?$FL@ 100cc014     NSDenpDlg.obj
 0002:00009020       ??_C@_08KDGLOAHK@?$CFs?5?5?$JFt?b?$LD@ 100cc020     NSDenpDlg.obj
 0002:00009030       ?_eventsinkEntries@CNSDenpDlg@@0QBUAFX_EVENTSINKMAP_ENTRY@@B 100cc030     NSDenpDlg.obj
 0002:00009238       ?eventsinkMap@CNSDenpDlg@@1UAFX_EVENTSINKMAP@@B 100cc238     NSDenpDlg.obj
 0002:0000929c       ??_7CNSDenpDlg@@6BICSResize@@@ 100cc29c     NSDenpDlg.obj
 0002:000092a4       ??_7CNSDenpDlg@@6BCDialog@@@ 100cc2a4     NSDenpDlg.obj
 0002:00009460       ?classCNSDenpDlg@CNSDenpDlg@@2UCRuntimeClass@@B 100cc460     NSDenpDlg.obj
 0002:0000947c       ??_C@_08NLCBIMAP@?$IBi?$IC?H?$IC?$LF?$IBj@ 100cc47c     ScanKey.obj
 0002:00009488       ??_C@_04OAFKFEMM@?$JE?$IE?$IP?c@ 100cc488     ScanKey.obj
 0002:00009490       ??_C@_08LAGLGCHA@?$JB?$NN?$JD?$HM?$JB?$LJ?$IO?$LI@ 100cc490     ScanKey.obj
 0002:0000949c       ??_C@_08GFAPNCCH@?$JB?$NN?$JD?$HM?$IJ?q?$IO?$PL@ 100cc49c     ScanKey.obj
 0002:000094a8       ??_C@_08BDILHFKJ@?$JHA?$JD?$PM?$IOd?$JD?$PM@ 100cc4a8     ScanKey.obj
 0002:000094b4       ??_C@_0P@EEOFHMM@?$JE?q?$IJ?$NL?$JA?E?$JHA?$IPo?$JE?$IE?$IP?c@ 100cc4b4     ScanKey.obj
 0002:000094c4       ??_C@_0P@HPBBINDG@?$JE?L?$JE?$IE?$IP?$KH?$JH?c?$IL?$OA?$IO?$PL?$JD?$PM@ 100cc4c4     ScanKey.obj
 0002:000094d4       ??_C@_0P@BKAFLNEG@?$JE?L?$JE?$IE?$IP?$KH?$JH?c?$IL?$OA?$JE?o?$JHp@ 100cc4d4     ScanKey.obj
 0002:000094e4       ??_C@_08PFJOIDNM@?$IOd?$JD?$PM?$IK?$IE?$II?x@ 100cc4e4     ScanKey.obj
 0002:000094f0       ??_C@_08BNFOCIKG@?$JE?$IE?$IP?c?$IK?$IE?$II?x@ 100cc4f0     ScanKey.obj
 0002:000094fc       ??_C@_0P@IEBGADPJ@?$JCI?$IJ?$LF?$JC?$LC?$JA?$KO?$IJ?A?$IOZ?$IKz@ 100cc4fc     ScanKey.obj
 0002:0000950c       ??_C@_0P@PKADHAFH@?$JCI?$IJ?$LF?$JC?$LC?$JA?$KO?$IM?$LI?$IOZ?$IKz@ 100cc50c     ScanKey.obj
 0002:0000951c       ??_C@_08MEOHNGP@?$JHA?$IPo?$JE?$IE?$IP?c@ 100cc51c     ScanKey.obj
 0002:00009528       ??_C@_08NPDCNJPL@?$IO?$JB?$IOY?$IO?f?$JD?$LO@ 100cc528     ScanKey.obj
 0002:00009534       ??_C@_08ILMPAFKO@?$IO?$JB?$IOY?$IP?w?$JDn@ 100cc534     ScanKey.obj
 0002:00009540       ??_C@_08FIAMDPBB@?$JE?$IE?$IP?c?$JF?T?$IK?R@ 100cc540     ScanKey.obj
 0002:0000954c       ??_C@_08NIPEIALH@?$IO?s?$IO?f?$JH?$JI?$JB?$KH@ 100cc54c     ScanKey.obj
 0002:00009558       ??_C@_04MEBDMOFN@?$IOd?$JD?$PM@ 100cc558     ScanKey.obj
 0002:00009560       ??_C@_08LAMMJEGL@?$IOd?$JD?$PM?$JF?T?$IK?R@ 100cc560     ScanKey.obj
 0002:0000956c       ??_C@_04NHCENCL@?$IMo?$JE?o@ 100cc56c     ScanKey.obj
 0002:00009574       ??_C@_0L@CGEHPFCA@?$IP?A?$JE?o?$JA?E?$JA?$LI?$IOZ@ 100cc574     ScanKey.obj
 0002:00009580       ??_C@_0N@PFMBCEML@?$JD?A?$JC?h?$IJ?$NL?$JA?E?$IOd?$JD?$PM@ 100cc580     ScanKey.obj
 0002:00009590       ??_C@_0BB@GOECNIMC@?$JD?A?$JC?h?$IJ?$NL?$JA?E?$IOd?$JD?$PM?$JF?T?$IK?R@ 100cc590     ScanKey.obj
 0002:000095a4       ??_C@_0BB@KEKPGAFD@?$JHA?$JD?$PM?$IP?A?$JE?o?$JA?E?$CI?$IN?$JB?$JA?E?$CJ@ 100cc5a4     ScanKey.obj
 0002:000095b8       ??_C@_0BD@BGANPPND@?$JHA?$JD?$PM?$IP?A?$JE?o?$JA?E?$CI?$JCn?$JF?$PL?$JA?E?$CJ@ 100cc5b8     ScanKey.obj
 0002:000095cc       ??_C@_0BF@MHGCOGKN@?$JHA?$JD?$PM?$IP?A?$JE?o?$JA?E?$CI?$IN?$JB?$JCn?$IN?$IH?$IOZ?$CJ@ 100cc5cc     ScanKey.obj
 0002:000095e4       ??_C@_0L@HIPDCHNF@?$IK?$KO?$JA?$KM?$IO?$JO?$JAU?$JB?V@ 100cc5e4     ScanKey.obj
 0002:000095f0       ??_C@_04OPCMMJBL@10?$IB?$JD@ 100cc5f0     ScanKey.obj
 0002:000095f8       ??_C@_08BNDHMIDN@?$ICW?$IB?$JD?$IMy?$IM?$LI@ 100cc5f8     ScanKey.obj
 0002:00009604       ??_C@_04BOLKHEGF@?$ICW?$IB?$JD@ 100cc604     ScanKey.obj
 0002:0000960c       ??_C@_04MAPNLIL@?$ICT?$IB?$JD@ 100cc60c     ScanKey.obj
 0002:00009614       ??_C@_04CJGEIEFH@?$ICR?$IB?$JD@ 100cc614     ScanKey.obj
 0002:0000961c       ??_C@_04ILBHALBF@?$ICO?$IB?$JD@ 100cc61c     ScanKey.obj
 0002:00009624       ??_C@_04DCJKIPOB@?$JD?$OA?$JA?E@ 100cc624     ScanKey.obj
 0002:0000962c       ??_C@_04EKGCHDEB@?$IKO?$JA?E@ 100cc62c     ScanKey.obj
 0002:00009634       ??_C@_04IIGHFKII@?$JF?J?$ILL@ 100cc634     ScanKey.obj
 0002:0000963c       ??_C@_06KBOHMPJC@?$JE?q?$IJ?$NL?$JA?E@ 100cc63c     ScanKey.obj
 0002:00009644       ??_C@_06FEOIHBPF@?$JFs?$IJ?$NL?$JA?E@ 100cc644     ScanKey.obj
 0002:0000964c       ??_C@_06DGHCJHD@?$IJ?$LF?$JE?$IE?$IL?F@ 100cc64c     ScanKey.obj
 0002:00009654       ??_C@_06EEGOEPBK@?$IP?$KM?$JE?$IE?$IL?F@ 100cc654     ScanKey.obj
 0002:0000965c       ??_C@_06IGJCOOIM@?$JA?$LL?$JB?$KC?$IL?F@ 100cc65c     ScanKey.obj
 0002:00009664       ??_C@_06EOALLJND@?$IC?$LL?$IC?L?$JB?$LM@ 100cc664     ScanKey.obj
 0002:0000966c       ??_C@_0L@MEMNPFCA@?$IDT?$IB?$FL?$IDr?$IDX?$IL?F@ 100cc66c     ScanKey.obj
 0002:00009678       ??_C@_08IOAOKMBO@?$JFs?$JD?$KO?$IOY?$IL?F@ 100cc678     ScanKey.obj
 0002:00009684       ??_C@_08PPBNJCBK@?$IJ?$NL?$JA?E?$JE?$IE?$IP?c@ 100cc684     ScanKey.obj
 0002:00009690       ??_C@_0L@OENDFCCJ@?$JE?q?$IJ?$NL?$JA?E?$JE?$IE?$IP?c@ 100cc690     ScanKey.obj
 0002:0000969c       ??_C@_08MCFCJKFM@?$IL?$KE?$JC?J?$JE?$IE?$IP?c@ 100cc69c     ScanKey.obj
 0002:000096a8       ??_C@_08MGEPBLLE@?$JD?A?$JC?h?$IO?$PL?$JD?$PM@ 100cc6a8     ScanKey.obj
 0002:000096b4       ??_C@_0N@GCGCMDDE@?$IJ?$NL?$JA?E?$JD?A?$JC?h?$IO?$PL?$JD?$PM@ 100cc6b4     ScanKey.obj
 0002:000096c4       ??_C@_0P@MOEPDBBH@?$JE?q?$IJ?$NL?$JA?E?$JD?A?$JC?h?$IO?$PL?$JD?$PM@ 100cc6c4     ScanKey.obj
 0002:000096d4       ??_C@_0N@PNIHIKLG@?$IL?$KE?$JC?J?$JD?A?$JC?h?$IO?$PL?$JD?$PM@ 100cc6d4     ScanKey.obj
 0002:000096e4       ??_C@_0L@POPPNNHL@?$JFs?$JD?A?$JC?h?$IO?$PL?$JD?$PM@ 100cc6e4     ScanKey.obj
 0002:000096f0       ??_C@_0L@LBDOIPMA@?$IKO?$JD?A?$JC?h?$IO?$PL?$JD?$PM@ 100cc6f0     ScanKey.obj
 0002:000096fc       ??_C@_0N@MLABNGKF@?$JD?A?$JC?h?$IO?$PL?$JD?$PM?$CI5?$CF?$CJ@ 100cc6fc     ScanKey.obj
 0002:0000970c       ??_C@_0BB@FEFDDJAI@?$IJ?$NL?$JA?E?$JD?A?$JC?h?$IO?$PL?$JD?$PM?$CI5?$CF?$CJ@ 100cc70c     ScanKey.obj
 0002:00009720       ??_C@_0BD@KPNOCLEK@?$JE?q?$IJ?$NL?$JA?E?$JD?A?$JC?h?$IO?$PL?$JD?$PM?$CI5?$CF?$CJ@ 100cc720     ScanKey.obj
 0002:00009734       ??_C@_0BB@CPPBHIIL@?$IL?$KE?$JC?J?$JD?A?$JC?h?$IO?$PL?$JD?$PM?$CI5?$CF?$CJ@ 100cc734     ScanKey.obj
 0002:00009748       ??_C@_0P@LMMKNECB@?$JFs?$JD?A?$JC?h?$IO?$PL?$JD?$PM?$CI5?$CF?$CJ@ 100cc748     ScanKey.obj
 0002:00009758       ??_C@_0N@DJGLAOHI@?$JD?A?$JC?h?$IO?$PL?$JD?$PM?$CI8?$CF?$CJ@ 100cc758     ScanKey.obj
 0002:00009768       ??_C@_0BB@KGDJOBNF@?$IJ?$NL?$JA?E?$JD?A?$JC?h?$IO?$PL?$JD?$PM?$CI8?$CF?$CJ@ 100cc768     ScanKey.obj
 0002:0000977c       ??_C@_0BD@FNLEPDJH@?$JE?q?$IJ?$NL?$JA?E?$JD?A?$JC?h?$IO?$PL?$JD?$PM?$CI8?$CF?$CJ@ 100cc77c     ScanKey.obj
 0002:00009790       ??_C@_0BB@NNJLKAFG@?$IL?$KE?$JC?J?$JD?A?$JC?h?$IO?$PL?$JD?$PM?$CI8?$CF?$CJ@ 100cc790     ScanKey.obj
 0002:000097a4       ??_C@_0P@EOKAAMPM@?$JFs?$JD?A?$JC?h?$IO?$PL?$JD?$PM?$CI8?$CF?$CJ@ 100cc7a4     ScanKey.obj
 0002:000097b4       ??_C@_0BB@OIIOKEDO@?$JD?A?$JC?h?$IO?$PL?$JD?$PM?$CI8?$CF?$IMy?$IM?$LI?$CJ@ 100cc7b4     ScanKey.obj
 0002:000097c8       ??_C@_0BF@BNAMEDHI@?$IJ?$NL?$JA?E?$JD?A?$JC?h?$IO?$PL?$JD?$PM?$CI8?$CF?$IMy?$IM?$LI?$CJ@ 100cc7c8     ScanKey.obj
 0002:000097e0       ??_C@_0BH@JHPBGJEC@?$JE?q?$IJ?$NL?$JA?E?$JD?A?$JC?h?$IO?$PL?$JD?$PM?$CI8?$CF?$IMy?$IM?$LI?$CJ@ 100cc7e0     ScanKey.obj
 0002:000097f8       ??_C@_0BF@MIFOMLIF@?$IL?$KE?$JC?J?$JD?A?$JC?h?$IO?$PL?$JD?$PM?$CI8?$CF?$IMy?$IM?$LI?$CJ@ 100cc7f8     ScanKey.obj
 0002:00009810       ??_C@_0BD@GPFOLLCG@?$JFs?$JD?A?$JC?h?$IO?$PL?$JD?$PM?$CI8?$CF?$IMy?$IM?$LI?$CJ@ 100cc810     ScanKey.obj
 0002:00009824       ??_C@_0O@HJGMDBFD@?$JD?A?$JC?h?$IO?$PL?$JD?$PM?$CI10?$CF?$CJ@ 100cc824     ScanKey.obj
 0002:00009834       ??_C@_0BC@NBJELMOJ@?$IJ?$NL?$JA?E?$JD?A?$JC?h?$IO?$PL?$JD?$PM?$CI10?$CF?$CJ@ 100cc834     ScanKey.obj
 0002:00009848       ??_C@_0BE@EJLNBBEH@?$JE?q?$IJ?$NL?$JA?E?$JD?A?$JC?h?$IO?$PL?$JD?$PM?$CI10?$CF?$CJ@ 100cc848     ScanKey.obj
 0002:0000985c       ??_C@_0BC@KFFOMMDC@?$IL?$KE?$JC?J?$JD?A?$JC?h?$IO?$PL?$JD?$PM?$CI10?$CF?$CJ@ 100cc85c     ScanKey.obj
 0002:00009870       ??_C@_0BA@JDMOLNGI@?$JFs?$JD?A?$JC?h?$IO?$PL?$JD?$PM?$CI10?$CF?$CJ@ 100cc870     ScanKey.obj
 0002:00009880       ??_C@_06FJGOPGIK@?$JB?N?$IP?$NL?$IKO@ 100cc880     ScanKey.obj
 0002:00009888       ??_C@_09EMLOFOLP@?$JDE?$JHv?$CI?$CFd?$CJ?3@ 100cc888     ScanKey.obj
 0002:00009894       ??_C@_08DBKHGECD@?$JF?$LG?$IO?$JK?$JD?$PM?$JH?M@ 100cc894     ScanKey.obj
 0002:000098a0       ??_C@_0N@CHFABCHD@?$IDC?$ID?$IB?$IB?$FL?$IDW?$JDE?$JHv@ 100cc8a0     ScanKey.obj
 0002:000098b0       ??_C@_0N@NFOPKBPC@?$JF?$LG?$IO?$JK?$JDE?$JHv?$IC?L?$IC?$NN@ 100cc8b0     ScanKey.obj
 0002:000098c0       ??_C@_0L@GMAHKCAI@?$JDE?$JHv?$JG?$KC?$JD?$PM?$JH?M@ 100cc8c0     ScanKey.obj
 0002:000098cc       ??_C@_0L@JBADAGAA@?$JE?$IE?$IP?c?$IL?f?$JF?$KK?$IBF@ 100cc8cc     ScanKey.obj
 0002:000098d8       ??_C@_0L@FNHAFNM@?$IOd?$JD?$PM?$IL?f?$JF?$KK?$IBF@ 100cc8d8     ScanKey.obj
 0002:000098e4       ??_C@_0L@PNIJGCEH@?$IB?$HM?$IB?$HM?$IB?$HM?$IB?$HM?$IBF@ 100cc8e4     ScanKey.obj
 0002:000098f0       ??_C@_09ECGPOLIH@?$IPI?$JH?$LJ?$CIEnd?$CJ@ 100cc8f0     ScanKey.obj
 0002:000098fc       ??_C@_0CB@LONINBGL@?$IB?$ID?$IDC?$ID?$IB?$IB?$FL?$IDW?$JDE?$JHv?$IOd?$JG?s?$IC?p?$IM?$JP?$IN?u?$IC?$LF?$IC?$NM?$IC?$LH?$IB@ 100cc8fc     ScanKey.obj
 0002:00009920       ??_C@_0BN@KLAOFDOO@?$IB?$ID?$JF?$LG?$IO?$JK?$JDE?$JHv?$IOd?$JG?s?$IC?p?$IM?$JP?$IN?u?$IC?$LF?$IC?$NM?$IC?$LH?$IB?$IE@ 100cc920     ScanKey.obj
 0002:00009940       ??_C@_0BP@FBKAPJBF@?$IB?$ID?$JDE?$JHv?$JG?$KC?$JD?$PM?$JH?M?$IOd?$JG?s?$IC?p?$IM?$JP?$IN?u?$IC?$LF?$IC?$NM?$IC?$LH?$IB?$IE@ 100cc940     ScanKey.obj
 0002:00009960       ??_C@_06BGJPCMOB@?$IDG?$ID?$IJ?$IB?$FL@ 100cc960     ScanKey.obj
 0002:00009968       ??_C@_0CP@HCCAGD@?$JBS?$IM?$JP?$IN?u?$IN?$IA?$JG?Z?$IC?L?$IP?A?$IL?$IO?$IC?p?$INs?$IC?$KC?$IC?$NM?$IC?$LH?$IBB?6?6?$IC@ 100cc968     ScanKey.obj
 0002:00009998       ??_C@_02PLJDPFIO@00@       100cc998     ScanKey.obj
 0002:0000999c       ??_C@_05HCELEEFH@?$CF?480s@ 100cc99c     ScanKey.obj
 0002:000099a8       ?_eventsinkEntries@CScanKey@@0QBUAFX_EVENTSINKMAP_ENTRY@@B 100cc9a8     ScanKey.obj
 0002:00009ae8       ?eventsinkMap@CScanKey@@1UAFX_EVENTSINKMAP@@B 100ccae8     ScanKey.obj
 0002:00009cf4       ??_7CCheckListBox@@6B@     100cccf4     ScanKey.obj
 0002:00009e84       ??_7CScanKey@@6BICSResize@@@ 100cce84     ScanKey.obj
 0002:00009e8c       ??_7CScanKey@@6BCDialog@@@ 100cce8c     ScanKey.obj
 0002:0000a024       ?_eventsinkEntries@SELDLG@@0QBUAFX_EVENTSINKMAP_ENTRY@@B 100cd024     SELDLG.obj
 0002:0000a04c       ?eventsinkMap@SELDLG@@1UAFX_EVENTSINKMAP@@B 100cd04c     SELDLG.obj
 0002:0000a0bc       ??_7SELDLG@@6BICSResize@@@ 100cd0bc     SELDLG.obj
 0002:0000a0c4       ??_7SELDLG@@6BCDialog@@@   100cd0c4     SELDLG.obj
 0002:0000a260       ??_7?$CArray@U_KMKPG_SEL@@AAU1@@@6B@ 100cd260     select_sub.obj
 0002:0000a278       ??_7?$CArray@U_KMKANA_DTA@@AAU1@@@6B@ 100cd278     select_sub.obj
 0002:0000a290       ??_7?$CArray@U_NBTORI_DTA@@AAU1@@@6B@ 100cd290     select_sub.obj
 0002:0000a2a8       ??_7?$CArray@UKJICHK@@AAU1@@@6B@ 100cd2a8     select_sub.obj
 0002:0000a2c0       ??_7?$CArray@U_NP_FURIDTA@@AAU1@@@6B@ 100cd2c0     select_sub.obj
 0002:0000a2d8       ??_7?$CArray@U_KSH_SCAN@@AAU1@@@6B@ 100cd2d8     select_sub.obj
 0002:0000a2f0       ??_7?$CArray@U_KSH_NAMDTA@@AAU1@@@6B@ 100cd2f0     select_sub.obj
 0002:0000a308       ??_7?$CArray@U_DBTKREC@@AAU1@@@6B@ 100cd308     select_sub.obj
 0002:0000a320       ??_7?$CArray@U_INVOICE_INFO@@ABU1@@@6B@ 100cd320     select_sub.obj
 0002:0000a334       ??_C@_0L@FNFJPBNN@?$IO?$JG?$IL?F?$IL?f?$JF?$KK?$IK?T@ 100cd334     select_sub.obj
 0002:0000a340       ??_C@_0L@CDCLCFG@?$IL?$JC?$JD_?$IL?f?$JF?$KK?$IK?T@ 100cd340     select_sub.obj
 0002:0000a34c       ??_C@_0M@LHHOJPKJ@?$LL?$LA?K?$NO?$LN?$IL?f?$JF?$KK?$IK?T@ 100cd34c     select_sub.obj
 0002:0000a358       ??_C@_0DL@LPMGIPBC@apl_name?5?$DN?5?8KMKAPP8?8?5AND?5itm_na@ 100cd358     select_sub.obj
 0002:0000a394       ??_C@_04OLDOEKLM@?$CF08d@  100cd394     select_sub.obj
 0002:0000a39c       ??_C@_0P@GMCPDMOC@?$IBs?$JF?$JE?$JG?e?$IDR?$IB?$FL?$IDh?$IBt@ 100cd39c     select_sub.obj
 0002:0000a3ac       ??_C@_0N@BAALBDBL@?$IBs?$INH?$IO?$JG?$JE?T?$IN?$IG?$IBt@ 100cd3ac     select_sub.obj
 0002:0000a3bc       ??_C@_05FCDFLBKC@?$CFs?$CK?$CFs@ 100cd3bc     select_sub.obj
 0002:0000a3c4       ??_C@_05DNIIFBMG@?$CFs?5?$CFs@ 100cd3c4     select_sub.obj
 0002:0000a3cc       ??_C@_0BF@OADNDKIH@KKI_KN50?5LIKE?5?8?$CFs?$CF?$CF?8@ 100cd3cc     select_sub.obj
 0002:0000a3e4       ??_C@_0N@IHHKFCAM@?$CF?$CFc?$CF?$CF?4?$CFds?$CF?$CFs@ 100cd3e4     select_sub.obj
 0002:0000a3f4       ??_C@_0BA@CEJPOPDL@?$CF?$CFs?$CF?$CFc?$CF?$CF?4?$CFds?$CF?$CFs@ 100cd3f4     select_sub.obj
 0002:0000a404       ??_C@_04PPIHMIKA@?5?1?$JFs@ 100cd404     select_sub.obj
 0002:0000a40c       ??_C@_05FEIDHCHG@?1?$JFs?$IJ?$NL@ 100cd40c     select_sub.obj
 0002:0000a414       ??_C@_04PHPAFIFO@?5?1?$JE?q@ 100cd414     select_sub.obj
 0002:0000a41c       ??_C@_05COLDCFHG@?1?$JE?q?$IJ?$NL@ 100cd41c     select_sub.obj
 0002:0000a424       ??_C@_0BB@LPIBFHEE@?$IBs?$IJ?H?$JG?Z?$JB?N?$IJ?$JO?$JDE?$JHv?$IBt@ 100cd424     select_sub.obj
 0002:0000a438       ??_C@_0N@BEBCOGPP@?$IBs?$JDE?$JHv?$IO?$KL?$IP?$JB?$IBt@ 100cd438     select_sub.obj
 0002:0000a448       ??_C@_0BB@MFPKLPCA@?$IBs?$IOd?$JG?s?$JB?N?$IJ?$JO?$JDE?$JHv?$IBt@ 100cd448     select_sub.obj
 0002:0000a45c       ??_C@_0N@JBIAAAJ@?$IBs?$JF?O?$JD?$KO?$IO?$JG?$JHR?$IBt@ 100cd45c     select_sub.obj
 0002:0000a46c       ??_C@_0BH@PLLLIAOI@?$IBs?$IPo?$IO?$JB?$IL?$OA?$JD?$JJ?$IC?L?$JF?O?$JD?$KO?$IO?$JG?$JHR?$IBt@ 100cd46c     select_sub.obj
 0002:0000a484       ??_C@_0BH@HKPOBAAG@?$IBs?$IK?$JE?$IO?e?$IO?$JB?$JG?$HL?$IC?L?$JF?O?$JD?$KO?$IO?$JG?$JHR?$IBt@ 100cd484     select_sub.obj
 0002:0000a49c       ??_C@_0BL@DOGAAGJO@?$IBs?$IPo?$IO?$JB?$IL?$OA?$JD?$JJ?$II?H?$IKO?$IC?L?$JF?O?$JD?$KO?$IO?$JG?$JHR?$IBt@ 100cd49c     select_sub.obj
 0002:0000a4b8       ??_C@_0BL@OCGCIAJD@?$IBs?$IK?$JE?$IO?e?$IO?$JB?$JG?$HL?$II?H?$IKO?$IC?L?$JF?O?$JD?$KO?$IO?$JG?$JHR?$IBt@ 100cd4b8     select_sub.obj
 0002:0000a4d4       ??_C@_0BG@NHAMHJPM@?9?9?9?9?9?9?9?9?9?9?9?9?9?9?9?9?9?9?9?9?9@ 100cd4d4     select_sub.obj
 0002:0000a4ec       ??_C@_0O@LIINAKLN@?5?5?5?$JG?$KC?$JDo?$JI?$FO?$IOd?$JG?s@ 100cd4ec     select_sub.obj
 0002:0000a4fc       ??_C@_0BE@KBFDKOPN@?5?5?5?$JAU?$JB?V?$IJ?H?$JG?Z?$JB?N?$IP?$NL?$IOd?$JG?s@ 100cd4fc     select_sub.obj
 0002:0000a510       ??_C@_09JGBGBCKN@?$CF2d?4?$CF?432s@ 100cd510     select_sub.obj
 0002:0000a51c       ??_C@_0BG@JGFMHOFI@?5?$JD?$OA?$JF?$JE?$IO?f?$II?x?$IBE?$JG?$KC?$JDo?$JI?$FO?$IOd?$JG?s@ 100cd51c     select_sub.obj
 0002:0000a534       ??_C@_0BE@FEJPLICD@?5?$JD?$OA?$JF?$JE?$IO?f?$II?x?$IBE?$JB?N?$IP?$NL?$IOd?$JG?s@ 100cd534     select_sub.obj
 0002:0000a548       ??_C@_04BENLGHMD@?$IB?$EA?$CFs@ 100cd548     select_sub.obj
 0002:0000a550       ??_C@_0BI@ECALFDPF@?5?5?5?$IO?$JB?$IL?$OA?$JC?$LC?$JA?$KO?$IJ?H?$JG?Z?$JB?N?$IP?$NL?$IOd?$JG?s@ 100cd550     select_sub.obj
 0002:0000a568       ??_C@_0BE@PGEBCOKK@?5?5?5?$JF?O?$JD?$KO?$IO?$JG?$JHR?$JB?N?$IP?$NL?$IOd?$JG?s@ 100cd568     select_sub.obj
 0002:0000a57c       ??_C@_09IEFPOHK@?$CF2d?4?$CF?440s@ 100cd57c     select_sub.obj
 0002:0000a588       ??_C@_0BB@LNKNMHLO@?$IBs?$JAU?$JB?V?$IJ?H?$JG?Z?$IL?f?$JF?$KK?$IBt@ 100cd588     select_sub.obj
 0002:0000a59c       ??_C@_0BF@FLJNECN@?$IBs?$IO?$JB?$IL?$OA?$JC?$LC?$JA?$KO?$IJ?H?$JG?Z?$IL?f?$JF?$KK?$IBt@ 100cd59c     select_sub.obj
 0002:0000a5b4       ??_C@_0N@JOIEFLBE@?$IBs?$IO?$PL?$IOx?$IJ?H?$JG?Z?$IBt@ 100cd5b4     select_sub.obj
 0002:0000a5c4       ??_C@_0BB@KFKPPBDK@?$IBs?$JD?$OA?$JF?$JE?$IO?f?$II?x?$IP?A?$IL?$IO?$IBt@ 100cd5c4     select_sub.obj
 0002:0000a5d8       ??_C@_0BD@GDAFJGOD@?$IBs?$IDC?$ID?$IB?$IB?$FL?$IDW?$JF?$LG?$IO?$JK?$JH?q?$IBt@ 100cd5d8     select_sub.obj
 0002:0000a5ec       ??_C@_0BB@BAJPHNMI@?$IBs?$JDE?$JHv?$IJ?H?$JG?Z?$JH?$JK?$JH?p?$IBt@ 100cd5ec     select_sub.obj
 0002:0000a600       ??_C@_0BP@BOEGBLPD@_GetInvNoSelect?5svInvKana?$CI?$CFs?$CJ?6@ 100cd600     select_sub.obj
 0002:0000a620       ??_C@_0BM@CAOOKNKM@_GetInvNoSelect?$CI1?$CJ?5cnt?$CI?$CFd?$CJ?6@ 100cd620     select_sub.obj
 0002:0000a63c       ??_C@_0BP@MKIKOACC@_GetInvNoSelect?$CI2?$CJ?5aryMax?$CI?$CFd?$CJ?6@ 100cd63c     select_sub.obj
 0002:0000a65c       ??_C@_0BC@KBDMBKEH@deque?$DMT?$DO?5too?5long@ 100cd65c     select_sub.obj
 0002:0000a670       ??_C@_0O@GOGEKEB@CSelGuideCtrl@ 100cd670     SelGuideCtrl.obj
 0002:0000a680       ??_C@_0BC@DNHDCAED@SelGuideCtrlClass@ 100cd680     SelGuideCtrl.obj
 0002:0000a694       ??_C@_02EGLOPFDN@Pg@       100cd694     SelGuideCtrl.obj
 0002:0000a698       ??_C@_02NAHCJHOC@UP@       100cd698     SelGuideCtrl.obj
 0002:0000a69c       ??_C@_02BJNHGBHK@DN@       100cd69c     SelGuideCtrl.obj
 0002:0000a754       ??_7CSelGuideCtrl@@6B@     100cd754     SelGuideCtrl.obj
 0002:0000a8c0       ?classCSelGuideCtrl@CSelGuideCtrl@@2UCRuntimeClass@@B 100cd8c0     SelGuideCtrl.obj
 0002:0000a8dc       ??_C@_0CO@OMGMACIB@?$IBZ?$IBZ?$IBZ?5CSkbnIn?5m_pParent?5?$DN?5?$CF08x@ 100cd8dc     SkbnIn.obj
 0002:0000a90c       ??_C@_08MFKCJKBB@?$IOd?$JD?$PM?$IL?f?$JF?$KK@ 100cd90c     SkbnIn.obj
 0002:0000a918       ??_C@_08CNGCDBGL@?$JE?$IE?$IP?c?$IL?f?$JF?$KK@ 100cd918     SkbnIn.obj
 0002:0000a924       ??_C@_08OHJMLICG@?$JE?q?$IJ?$NL?$JA?E?$JF?$KK@ 100cd924     SkbnIn.obj
 0002:0000a930       ??_C@_0CP@LGGOAGEO@sydata_set?5dbt?5?$DN?5?$CFs?0?5cre?5?$DN?5?$CFs?0?5@ 100cd930     SkbnIn.obj
 0002:0000a960       ??_C@_0DJ@BGJMFHKH@sydata_set?5DBSetDispString?5tmp?5@ 100cd960     SkbnIn.obj
 0002:0000a99c       ??_C@_0BF@CBCGOAJB@CInvnoMng?3?3CancelIME@ 100cd99c     SkbnIn.obj
 0002:0000a9b4       ??_C@_0N@CMJHEMOB@?$EA?$CFs?5TOP?$DN?$DN?$DN?$DN?6@ 100cd9b4     SkbnIn.obj
 0002:0000a9c4       ??_C@_0O@HPGCILEE@?$EA?$CFs?5?9?9?9?9END?5?6@ 100cd9c4     SkbnIn.obj
 0002:0000a9d8       ?_eventsinkEntries@CSkbnIn@@0QBUAFX_EVENTSINKMAP_ENTRY@@B 100cd9d8     SkbnIn.obj
 0002:0000aaa0       ?eventsinkMap@CSkbnIn@@1UAFX_EVENTSINKMAP@@B 100cdaa0     SkbnIn.obj
 0002:0000ab44       ??_7CSkbnIn@@6BICSResize@@@ 100cdb44     SkbnIn.obj
 0002:0000ab4c       ??_7CSkbnIn@@6BCDialog@@@  100cdb4c     SkbnIn.obj
 0002:0000ace4       ??_C@_0BN@NPPOLPO@XTPNotificationSinkMTOnEvent@ 100cdce4     stdafx.obj
 0002:0000ad08       ??_7CSyzInp@@6B@           100cdd08     stdafx.obj
 0002:0000ad10       ??_7CSyzInpLite@@6B@       100cdd10     stdafx.obj
 0002:0000ad14       ??_C@_0N@ENJIBLLP@DBDINP_SETUP@ 100cdd14     stdafx.obj
 0002:0000ad24       ??_C@_0P@DBOLAPLG@?$IB?$JG?$JD?$PM?$JH?M?$IO?$JO?$IC?L?$JF?2?$IO?$KG@ 100cdd24     SWKselDlg.obj
 0002:0000ad34       ??_C@_0DL@BJGGBKAK@?$IBE?$IOd?$JG?s?$JDE?$JHv?$IC?F?$IC?$LF?$IC?D?$JDo?$JI?$FO?$IC?$LF?$IC?$LN?$IP?j?$IN?$IH?$IBA?$IC@ 100cdd34     SWKselDlg.obj
 0002:0000ad70       ??_C@_0P@OKPAHNIC@?$IB?$EA?$JF?2?$IO?$KG?$IC?$LF?$IC?$NM?$IC?$LH?$IBB@ 100cdd70     SWKselDlg.obj
 0002:0000ad80       ??_C@_0DN@DCKEJLHD@?$IBE?$JCP?$JD?F?$IJ?H?$JG?Z?$JDE?$JHv?$IC?F?$IC?$LF?$IC?D?$JDo?$JI?$FO?$IC?$LF?$IC?$LN?$IP?j?$IN@ 100cdd80     SWKselDlg.obj
 0002:0000adc0       ??_C@_0BF@KIKEEELN@?$IB?$EA?$JDE?$JHv?$IC?p?$JF?2?$IO?$KG?$IC?$LF?$IC?$NM?$IC?$LH?$IBB@ 100cddc0     SWKselDlg.obj
 0002:0000add8       ??_C@_0CI@MEOOKMIJ@?$CI?$IOd?$JG?s?$CJ?5?$CF?914?414s?5?$IB?$FO?5?$CF?914?414s?$IB?$EA?$IC?L@ 100cddd8     SWKselDlg.obj
 0002:0000ae00       ??_C@_0BM@IFIHJGOC@?$CI?$IO?X?$JF?$PL?$CJ?5?$CF?914?414s?$IB?$EA?$IC?L?$IOd?$JG?s?$JDE?$JHv@ 100cde00     SWKselDlg.obj
 0002:0000ae1c       ??_C@_0BM@GCNJNPC@?$CI?$JB?$NN?$JF?$PL?$CJ?5?$CF?914?414s?$IB?$EA?$IC?L?$IOd?$JG?s?$JDE?$JHv@ 100cde1c     SWKselDlg.obj
 0002:0000ae38       ??_C@_0BI@FDAMMBDC@?$CI?$JCP?$JD?F?$CJ?5?$CF?914?414s?$IB?$EA?$IC?L?$JDE?$JHv@ 100cde38     SWKselDlg.obj
 0002:0000ae54       ??_7CSWKselDlg@@6BICSResize@@@ 100cde54     SWKselDlg.obj
 0002:0000ae5c       ??_7CSWKselDlg@@6BCDialog@@@ 100cde5c     SWKselDlg.obj
 0002:0000aff4       ??_C@_04DAFJBAOC@?$JE?T?$IN?$IG@ 100cdff4     SwlistSelDlg.obj
 0002:0000affc       ??_C@_06FPNFKMBO@?$IO?X?$IB?$EA?$JF?$PL@ 100cdffc     SwlistSelDlg.obj
 0002:0000b004       ??_C@_06JOIONBIK@?$JB?$NN?$IB?$EA?$JF?$PL@ 100ce004     SwlistSelDlg.obj
 0002:0000b00c       ??_C@_03EFAAFOIE@?$AC?$AC?$AC@ 100ce00c     SwlistSelDlg.obj
 0002:0000b010       ?_eventsinkEntries@CSwlistSelDlg@@0QBUAFX_EVENTSINKMAP_ENTRY@@B 100ce010     SwlistSelDlg.obj
 0002:0000b088       ?eventsinkMap@CSwlistSelDlg@@1UAFX_EVENTSINKMAP@@B 100ce088     SwlistSelDlg.obj
 0002:0000b0e4       ??_7CSwlistSelDlg@@6BICSResize@@@ 100ce0e4     SwlistSelDlg.obj
 0002:0000b0ec       ??_7CSwlistSelDlg@@6BCDialog@@@ 100ce0ec     SwlistSelDlg.obj
 0002:0000b284       ??_C@_0BI@PJKNOIFB@hyono?5?$DN?53?5and?5itmno?5?$DO?50@ 100ce284     SyogBrn.obj
 0002:0000b29c       ??_C@_09DLDHBBPN@?$CF04d?$IP?$JE?$IM?$PL?4@ 100ce29c     SyogBrn.obj
 0002:0000b2a8       ??_C@_05JAEEOFBP@?$IP?$JE?$IM?$PL?4@ 100ce2a8     SyogBrn.obj
 0002:0000b2b0       ??_C@_07DFKPJBEI@?4?$CF04d?$CFs@ 100ce2b0     SyogBrn.obj
 0002:0000b2b8       ??_C@_0N@OAFPBBMF@?$IM?$LL?$JHa?$IL?$OA?$CI?$INH?$IO?$JG?$CJ@ 100ce2b8     SyogBrn.obj
 0002:0000b2c8       ??_C@_0P@LEAIBLCN@?$IO?s?$IO?f?$IO?h?$IM?$GA?$CI?$INH?$IO?$JG?$CJ@ 100ce2c8     SyogBrn.obj
 0002:0000b2d8       ??_C@_0L@DEINBHMP@?$JB?$IK?$IOE?$CI?$INH?$IO?$JG?$CJ@ 100ce2d8     SyogBrn.obj
 0002:0000b2e4       ??_C@_0P@DFPAECLA@?$IM?$LL?$JHa?$IL?$OA?$JB?N?$IP?$NL?$IOd?$JG?s@ 100ce2e4     SyogBrn.obj
 0002:0000b2f4       ??_C@_0BD@BENGMOGL@?$JB?$IK?$IOE?$IOd?$JG?s?$CI?$JAU?$JB?V?$IOd?$JG?s?$CJ@ 100ce2f4     SyogBrn.obj
 0002:0000b30c       ??_7?$CArray@VCANAHYOITMdata@@AAV1@@@6B@ 100ce30c     SyogBrn.obj
 0002:0000b324       ??_7CSyogBrn@@6B@          100ce324     SyogBrn.obj
 0002:0000b328       ??_C@_0BN@IMNHIPFM@SyohizeiOpen?$IC?I?$IO?$LI?$JEs?$IC?$LF?$IC?$NM?$IC?$LF?$IC?$LN?$IBB@ 100ce328     SyzInpSub.obj
 0002:0000b348       ??_C@_0CJ@IGHEEKCB@?$IP?A?$JE?o?$JA?E?$IDI?$IDu?$IDW?$IDF?$IDN?$IDg?$IC?L?$IN?l?$JA?$KM?$IC?I?$IO?$LI?$JEs?$IC@ 100ce348     SyzInpSub.obj
 0002:0000b374       ??_C@_0P@HDFBLKMO@errno?5?$DN?5?$CFd?0?5?$CFs@ 100ce374     SyzInpSub.obj
 0002:0000b384       ??_C@_0BI@GJKBDFOF@CSyzInpLiteSub?3?3SetPara@ 100ce384     SyzInpSub.obj
 0002:0000b39c       ??_C@_0N@ENEGFKAN@?$CFs?3?0?5?$CFd?0?5?$CFd?6@ 100ce39c     SyzInpSub.obj
 0002:0000b3ac       ??_C@_04KMKGHIJG@?$ICP?$ICO@ 100ce3ac     TkdicDlg.obj
 0002:0000b3b4       ??_C@_04BEBKBPPD@?$ICQ?$ICO@ 100ce3b4     TkdicDlg.obj
 0002:0000b3bc       ??_C@_0BP@NDEECFDE@?$JDo?$JI?$FO?$JDE?$JHv?$IOw?$JC?h?$IBi?$IN?E?$JB?e?$JBS?$IKp?$CFs?$JF?$LG?$IO?$JK?$IBj@ 100ce3bc     TkdicDlg.obj
 0002:0000b3dc       ??_C@_0P@KHBENFOL@?$IO?X?5?$JF?$PL?$IBw?$CF?414s?$IBx@ 100ce3dc     TkdicDlg.obj
 0002:0000b3ec       ??_C@_0BI@PFDNPCAP@?$IO?X?5?$JF?$PL?$IBw?$IB?$HM?$IB?$HM?$IB?$HM?$IB?$HM?$IB?$HM?$IB?$HM?$IB?$HM?$IBx@ 100ce3ec     TkdicDlg.obj
 0002:0000b404       ??_C@_0P@DDFNOHFE@?$JB?$NN?5?$JF?$PL?$IBw?$CF?414s?$IBx@ 100ce404     TkdicDlg.obj
 0002:0000b414       ??_C@_0BI@PCGMMNLM@?$JB?$NN?5?$JF?$PL?$IBw?$IB?$HM?$IB?$HM?$IB?$HM?$IB?$HM?$IB?$HM?$IB?$HM?$IB?$HM?$IBx@ 100ce414     TkdicDlg.obj
 0002:0000b42c       ??_C@_03GKGGPGDH@?$CF5d@   100ce42c     TkdicDlg.obj
 0002:0000b430       ??_C@_08PIEDBICA@?$JDE?$JHv?$JG?$LM?$IP?L@ 100ce430     TkdicDlg.obj
 0002:0000b43c       ??_C@_04GMHOAPMO@?$IDJ?$IDi@ 100ce43c     TkdicDlg.obj
 0002:0000b444       ??_C@_06CHHNDMMO@?$IP?A?$JE?o?$JA?E@ 100ce444     TkdicDlg.obj
 0002:0000b44c       ??_C@_08CGOGB@?$JDo?$JI?$FO?$JE?T?$IN?$IG@ 100ce44c     TkdicDlg.obj
 0002:0000b458       ??_C@_04HPCDPAHD@?$JG?F?$JA?E@ 100ce458     TkdicDlg.obj
 0002:0000b460       ??_C@_03GICAEIGO@?$CF6d@   100ce460     TkdicDlg.obj
 0002:0000b464       ??_C@_06HHBIIBGA@?$CF?94?44s@ 100ce464     TkdicDlg.obj
 0002:0000b46c       ??_C@_02HCPMAEIL@?$IB?$JL@ 100ce46c     TkdicDlg.obj
 0002:0000b470       ??_C@_0DL@DJFHAPKI@?$IOw?$JC?h?$IC?$LD?$IC?j?$IC?$LN?$JE?T?$IN?$IG?$IC?M?$JDo?$JI?$FO?$IC?$LD?$IC?j?$IC?D?$IC?$KC?$IC?$NM?$IC@ 100ce470     TkdicDlg.obj
 0002:0000b4ac       ??_C@_0CP@GEBPFEBD@?$IN?E?$JB?e?$JDo?$JI?$FO?$JA?$JE?$IC?$NM?$IC?E?$JDo?$JI?$FO?$IC?$LD?$IC?j?$IC?$KC?$IC?i?$IC?$LN?$IC?$NP?$JD@ 100ce4ac     TkdicDlg.obj
 0002:0000b4dc       ??_C@_0L@GGGPBNHM@?$IP?A?$JE?o?$JA?E?$JBI?$JB?p@ 100ce4dc     TkdicDlg.obj
 0002:0000b4e8       ??_C@_08KFKMGGJ@?$JDo?$JI?$FO?$IC?H?$IC?$LF@ 100ce4e8     TkdicDlg.obj
 0002:0000b4f4       ??_C@_0BJ@GCPDBJON@?$JDE?$JHv?$FL?$CF6d?$FN?5?$IC?p?$IN?m?$IP?$JM?$IC?$LF?$IC?$NM?$IC?$LH?$IBB@ 100ce4f4     TkdicDlg.obj
 0002:0000b510       ??_C@_0DC@FKDMFPDE@select?5count?$CI?$CK?$CJ?5as?5st?5from?5rtre@ 100ce510     TkdicDlg.obj
 0002:0000b544       ??_C@_0CB@JLIBEPID@?$JDE?$JHv?$IC?L?$IOg?$JHp?$ID?$GA?$IDF?$IDb?$IDN?$IC?$KK?$INs?$IC?$KG?$IC?$NM?$IC?$LJ?$IC?q?$IB@ 100ce544     TkdicDlg.obj
 0002:0000b568       ??_C@_0BB@NFLBMAOG@?$IBy?$IJ?H?$JG?Z?$JB?N?$IJ?$JO?$JDE?$JHv?$IBz@ 100ce568     TkdicDlg.obj
 0002:0000b57c       ??_C@_0DC@MBGKCA@select?5count?$CI?$CK?$CJ?5as?5st?5from?5stre@ 100ce57c     TkdicDlg.obj
 0002:0000b5b0       ??_C@_0BB@KPMKCIIC@?$IBy?$IOd?$JG?s?$JB?N?$IJ?$JO?$JDE?$JHv?$IBz@ 100ce5b0     TkdicDlg.obj
 0002:0000b5c4       ??_C@_0DC@OAEPOGFK@select?5count?$CI?$CK?$CJ?5as?5st?5from?5ezre@ 100ce5c4     TkdicDlg.obj
 0002:0000b5f8       ??_C@_0BB@CKFGKOBJ@?$IBy?$IJ?H?$JG?Z?$IO?$HN?$JE?T?$JG?$LM?$IP?L?$IBz@ 100ce5f8     TkdicDlg.obj
 0002:0000b60c       ??_C@_0DE@KFHPHAME@select?5count?$CI?$CK?$CJ?5as?5st?5from?5bmez@ 100ce60c     TkdicDlg.obj
 0002:0000b640       ??_C@_0BB@EAICGLHH@?$IBy?$JF?$JE?$JG?e?$IO?$HN?$JE?T?$JG?$LM?$IP?L?$IBz@ 100ce640     TkdicDlg.obj
 0002:0000b654       ??_C@_0DD@KJIGLNDH@select?5count?$CI?$CK?$CJ?5as?5st?5from?5eszr@ 100ce654     TkdicDlg.obj
 0002:0000b688       ??_C@_0BF@MEPIFPPL@?$IBy?$IO?$PL?$IOx?$IJ?H?$JG?Z?$IO?$HN?$JE?T?$JG?$LM?$IP?L?$IBz@ 100ce688     TkdicDlg.obj
 0002:0000b6a0       ??_C@_0DE@JLMKLIEM@select?5count?$CI?$CK?$CJ?5as?5st?5from?5besz@ 100ce6a0     TkdicDlg.obj
 0002:0000b6d4       ??_C@_0BF@KOCMJKJF@?$IBy?$IO?$PL?$IOx?$JF?$JE?$JG?e?$IO?$HN?$JE?T?$JG?$LM?$IP?L?$IBz@ 100ce6d4     TkdicDlg.obj
 0002:0000b6ec       ??_C@_06DMMBKBPG@SSSSS9@   100ce6ec     TkdicDlg.obj
 0002:0000b6f4       ??_C@_0CD@MFDDBEDL@?$IOw?$JC?h?$IC?$LD?$IC?j?$IC?$LN?$JE?T?$IN?$IG?$IC?M?$JDo?$JI?$FO?$IC?$LD?$IC?j?$IC?D?$IC?$KC?$IC?$NM?$IC@ 100ce6f4     TkdicDlg.obj
 0002:0000b718       ??_C@_0L@CBGAALPC@tkcod?5?$DN?5?$CFd@ 100ce718     TkdicDlg.obj
 0002:0000b724       ??_C@_0BH@LDAKLKFL@?$CF6d?5?5?$CF?940?440s?5?$FL?$CF?94?44s?$FN@ 100ce724     TkdicDlg.obj
 0002:0000b73c       ??_C@_08FPCJBIFL@?$IL?f?$JF?$KK?$JBI?$JB?p@ 100ce73c     TkdicDlg.obj
 0002:0000b748       ??_C@_0P@DCHCAIIF@?$JG?F?$JA?E?$IO?$JG?$IL?F?$IO?R?$JBI?$JB?p@ 100ce748     TkdicDlg.obj
 0002:0000b758       ??_C@_0O@FOFGBPEB@itm?5?$DN?5?8rtrec?8@ 100ce758     TkdicDlg.obj
 0002:0000b768       ??_C@_0CJ@EKHBAHEB@delete?5from?5dbo?4rtrec?5where?5rtc@ 100ce768     TkdicDlg.obj
 0002:0000b798       ??_C@_0EJ@CDJBGHP@update?5dbo?4dcntl?5set?5cnt?5?$DN?5?$CIsel@ 100ce798     TkdicDlg.obj
 0002:0000b7e4       ??_C@_0CJ@DCGMEOMK@delete?5from?5dbo?4strec?5where?5stc@ 100ce7e4     TkdicDlg.obj
 0002:0000b810       ??_C@_0EJ@JDOPGCOP@update?5dbo?4dcntl?5set?5cnt?5?$DN?5?$CIsel@ 100ce810     TkdicDlg.obj
 0002:0000b860       ??_C@_0KJ@GKFMAOEB@?$JBI?$JB?p?$IC?$LD?$IC?j?$IC?$LN?$CFd?$IM?B?$IC?L?$JDE?$JHv?$IC?p?$IN?m?$IP?$JM?$IC?$LF?$IC?$NM?$IC@ 100ce860     TkdicDlg.obj
 0002:0000b90c       ??_C@_0N@JAACDPEK@?$JDE?$JHv?$FL?$CFs?$FN?$IC?M?$IBA@ 100ce90c     TkdicDlg.obj
 0002:0000b91c       ??_C@_0N@LMGPBNJM@?$IBy?$IO?$KJ?$JD?$KO?$IOd?$JG?s?$IBz@ 100ce91c     TkdicDlg.obj
 0002:0000b92c       ??_C@_0CO@BNKJKACA@?$IC?E?$IOg?$JHp?$IC?$LD?$IC?j?$IC?D?$IC?$KC?$IC?$NM?$IC?$LH?$IBB?6?$IN?m?$IP?$JM?$IP?$II?$JH?$JN?$IC?p@ 100ce92c     TkdicDlg.obj
 0002:0000b95c       ??_C@_0BF@DDJMMHII@?$JDE?$JHv?$FL?$CFs?$FN?$IC?p?$IN?m?$IP?$JM?$IC?$LF?$IC?$NM?$IC?$LH@ 100ce95c     TkdicDlg.obj
 0002:0000b974       ??_C@_0O@OIECMKGM@tklnkseq?5?$DN?5?$CFd@ 100ce974     TkdicDlg.obj
 0002:0000b984       ??_C@_0P@KOEIGFMB@tkjourseq?5?$DN?5?$CFd@ 100ce984     TkdicDlg.obj
 0002:0000b994       ??_C@_0M@JAJPHDJO@?$IJ?$LF?$JE?$IE?$IL?F?$CI?$JB?f1?$CJ@ 100ce994     TkdicDlg.obj
 0002:0000b9a0       ??_C@_08DDAKNJLP@?$CF?914?414s@ 100ce9a0     TkdicDlg.obj
 0002:0000b9ac       ??_C@_0M@KIFPJCGJ@?$IP?$KM?$JE?$IE?$IL?F?$CI?$JB?f2?$CJ@ 100ce9ac     TkdicDlg.obj
 0002:0000b9b8       ??_C@_0M@EHBOGLPG@?$JA?$LL?$JB?$KC?$IL?F?$CI?$JB?f3?$CJ@ 100ce9b8     TkdicDlg.obj
 0002:0000b9c4       ??_C@_0M@FPCJMMEL@?$IC?$LL?$IC?L?$JB?$LM?$CI?$JB?f4?$CJ@ 100ce9c4     TkdicDlg.obj
 0002:0000b9d0       ??_C@_0BA@NEPDPBEH@?$IDT?$IB?$FL?$IDr?$IDX?$IL?F?$CI?$JB?f5?$CJ@ 100ce9d0     TkdicDlg.obj
 0002:0000b9e0       ??_C@_0M@HBLNDIKA@?$JFs?$JD?$KO?$IOY?$CI?$JB?f6?$CJ@ 100ce9e0     TkdicDlg.obj
 0002:0000b9ec       ??_C@_0L@KBFJGDLO@?$IJ?$NL?$JA?E?$IC?I?$IMW?$IC?i@ 100ce9ec     TkdicDlg.obj
 0002:0000b9f8       ??_C@_0N@MOFGNPPA@?$JE?q?$IJ?$NL?$JA?E?$IC?I?$IMW?$IC?i@ 100ce9f8     TkdicDlg.obj
 0002:0000ba08       ??_C@_0L@JKBDOEA@?$IL?$KE?$JC?J?$IC?I?$IMW?$IC?i@ 100cea08     TkdicDlg.obj
 0002:0000ba18       ?_eventsinkEntries@CTkdicDlg@@0QBUAFX_EVENTSINKMAP_ENTRY@@B 100cea18     TkdicDlg.obj
 0002:0000bb30       ?eventsinkMap@CTkdicDlg@@1UAFX_EVENTSINKMAP@@B 100ceb30     TkdicDlg.obj
 0002:0000bda4       ??_7CTkdicDlg@@6BICSResize@@@ 100ceda4     TkdicDlg.obj
 0002:0000bdac       ??_7CTkdicDlg@@6BCDialog@@@ 100cedac     TkdicDlg.obj
 0002:0000bf68       ??_C@_0BD@NKJCIBGO@?$JBS?$CJ?$CF2d?5?$JE?$LM?$CJ?$CF2d?5?$JF?$LG?$IO?$JK@ 100cef68     TkEdit.obj
 0002:0000c01c       ??_7CTkEdit@@6B@           100cf01c     TkEdit.obj
 0002:0000c18c       ??_7CEdit@@6B@             100cf18c     TkEdit.obj
 0002:0000c2f8       ??_C@_08HLHLPKCP@seq?5?$DN?515@ 100cf2f8     TkkmkDlg.obj
 0002:0000c304       ??_C@_0BI@KDJIDEMC@?$IBw?$CF?414s?$IBx?$IC?L?$IJ?H?$JG?Z?$JB?N?$IJ?$JO?$JDE?$JHv@ 100cf304     TkkmkDlg.obj
 0002:0000c31c       ??_C@_0BM@CAGBCCKG@?$IO?X?$JF?$PL?$IBw?$CF?414s?$IBx?$IC?L?$IJ?H?$JG?Z?$JB?N?$IJ?$JO?$JDE?$JHv@ 100cf31c     TkkmkDlg.obj
 0002:0000c338       ??_C@_0BM@DNFFJIMJ@?$JB?$NN?$JF?$PL?$IBw?$CF?414s?$IBx?$IC?L?$IJ?H?$JG?Z?$JB?N?$IJ?$JO?$JDE?$JHv@ 100cf338     TkkmkDlg.obj
 0002:0000c354       ??_C@_08LCJPHHGP@?$JDE?$JHv?$LK?$LA?D?$NO@ 100cf354     TkkmkDlg.obj
 0002:0000c360       ??_C@_0L@PNKICBJL@rtpgn?5?$DN?5?$CFd@ 100cf360     TkkmkDlg.obj
 0002:0000c36c       ??_C@_08MKHEOMOA@?$CF?940?440s@ 100cf36c     TkkmkDlg.obj
 0002:0000c378       ??_C@_0BA@DNEJNBAD@?M?$NP?$LA?$LM?$NO?$JF?O?$INX?$FLHome?$FN@ 100cf378     TkkmkDlg.obj
 0002:0000c388       ??_C@_02DBAMJAAB@?$AC?$AC@ 100cf388     TkkmkDlg.obj
 0002:0000c38c       ??_C@_05GFBGMOJP@?$AC?$AC?$AC?$AC?$AN@ 100cf38c     TkkmkDlg.obj
 0002:0000c394       ??_C@_0CJ@DEMEPGHN@?$IOw?$JC?h?$IC?$LD?$IC?j?$IC?$LN?$JDE?$JHv?$IC?M?$IC?$LH?$IC?E?$IC?I?$JDo?$JI?$FO?$IC?$LD?$IC?j?$IC@ 100cf394     TkkmkDlg.obj
 0002:0000c3c0       ??_C@_0BP@OHDMBNEF@?$IJ?H?$JG?Z?$IDR?$IB?$FL?$IDh?$IC?$KK?$JA?$LD?$IC?$LF?$IC?$KN?$IC?$KA?$IC?h?$IC?$NM?$IC?$LJ?$IC?q?$IBI@ 100cf3c0     TkkmkDlg.obj
 0002:0000c3e0       ??_C@_0DI@ODCCNGMI@?$IB?$EA?$IBw?$CF?414s?$IBx?$IC?L?$IJ?H?$JG?Z?$JB?N?$IJ?$JO?$JDE?$JHv?$IDy?$IB?$FL?$IDW@ 100cf3e0     TkkmkDlg.obj
 0002:0000c418       ??_C@_05HPKAPCDP@?$IO?X?5?$JF?$PL@ 100cf418     TkkmkDlg.obj
 0002:0000c420       ??_C@_05EFMAMNAB@?$JB?$NN?5?$JF?$PL@ 100cf420     TkkmkDlg.obj
 0002:0000c428       ??_C@_0DK@PPEOIILK@?$IB?$EA?$CFs?$IBw?$CF?414s?$IBx?$IC?L?$IJ?H?$JG?Z?$JB?N?$IJ?$JO?$JDE?$JHv?$IDy?$IB?$FL@ 100cf428     TkkmkDlg.obj
 0002:0000c464       ??_C@_0P@DFKAICAE@?$JF?O?$INX?$IM?$II?$JC?h?$FLHome?$FN@ 100cf464     TkkmkDlg.obj
 0002:0000c474       ??_C@_0CB@FOEALGDN@select?5count?$CI?$CK?$CJ?5as?5st?5from?5rtre@ 100cf474     TkkmkDlg.obj
 0002:0000c498       ?_eventsinkEntries@CTkkmkDlg@@0QBUAFX_EVENTSINKMAP_ENTRY@@B 100cf498     TkkmkDlg.obj
 0002:0000c588       ?eventsinkMap@CTkkmkDlg@@1UAFX_EVENTSINKMAP@@B 100cf588     TkkmkDlg.obj
 0002:0000c67c       ??_7CSpinButtonCtrl@@6B@   100cf67c     TkkmkDlg.obj
 0002:0000c7f4       ??_7CTkkmkDlg@@6BICSResize@@@ 100cf7f4     TkkmkDlg.obj
 0002:0000c7fc       ??_7CTkkmkDlg@@6BCDialog@@@ 100cf7fc     TkkmkDlg.obj
 0002:0000c9b8       ??_C@_0P@MBGAEABH@?5?$JDE?$JHv?$IO?$KL?$IP?$JB?$JDo?$JI?$FO?5@ 100cf9b8     TkregDlg.obj
 0002:0000c9c8       ??_C@_0BD@OMPNMONF@?5?$IJ?H?$JG?Z?$JB?N?$IJ?$JO?$JDE?$JHv?$JDo?$JI?$FO?5@ 100cf9c8     TkregDlg.obj
 0002:0000c9dc       ??_C@_0BD@PCFDHMAD@?5?$IOd?$JG?s?$JB?N?$IJ?$JO?$JDE?$JHv?$JDo?$JI?$FO?5@ 100cf9dc     TkregDlg.obj
 0002:0000caec       ??_7?$CTypedPtrArray@VCObArray@@PAVCBaseDlg@@@@6B@ 100cfaec     TkregDlg.obj
 0002:0000cb04       ??_7CTkregDlg@@6BICSResize@@@ 100cfb04     TkregDlg.obj
 0002:0000cb0c       ??_7CTkregDlg@@6BCDialog@@@ 100cfb0c     TkregDlg.obj
 0002:0000cca8       ?_eventsinkEntries@CTksrchDlg@@0QBUAFX_EVENTSINKMAP_ENTRY@@B 100cfca8     TksrchDlg.obj
 0002:0000ccf8       ?eventsinkMap@CTksrchDlg@@1UAFX_EVENTSINKMAP@@B 100cfcf8     TksrchDlg.obj
 0002:0000cd6c       ??_7CTksrchDlg@@6BICSResize@@@ 100cfd6c     TksrchDlg.obj
 0002:0000cd74       ??_7CTksrchDlg@@6BCDialog@@@ 100cfd74     TksrchDlg.obj
 0002:0000cf0c       ??_C@_05LFNOAECD@?5AND?5@  100cff0c     TkswkDlg.obj
 0002:0000cf14       ??_C@_08FCBABHLF@seq?5?$DN?526@ 100cff14     TkswkDlg.obj
 0002:0000cf20       ??_C@_08CNHKBALJ@?$IO?X?$JF?$PL?$IJ?H?$JG?Z@ 100cff20     TkswkDlg.obj
 0002:0000cf2c       ??_C@_0M@EPEDCKPH@?$JDE?5?$JHv?5?$JG?$LM?5?$IP?L@ 100cff2c     TkswkDlg.obj
 0002:0000cf38       ??_C@_05OJCPLJJC@aiueo@    100cff38     TkswkDlg.obj
 0002:0000cf40       ??_C@_0BP@FABOHNLF@?$IKY?$JD?$JG?$ID?$IJ?$IDC?$ID?$JD?$IC?L?$IOd?$JG?s?$IC?p?$IN?m?$IP?$JM?$IC?$LF?$IC?$NM?$IC?$LH?$IBB@ 100cff40     TkswkDlg.obj
 0002:0000cf60       ??_C@_0BA@NCNKGHPB@?5AND?5stcod?5?$DN?5?$CFd@ 100cff60     TkswkDlg.obj
 0002:0000cf70       ??_C@_0CH@CJDHPID@?$JD?$PM?$JH?M?$IC?$LD?$IC?j?$IC?$LN?$IOd?$JG?s?$IC?M?$JB?$LM?$IC?E?$JDo?$JI?$FO?$IC?$LD?$IC?j?$IC?D?$IC@ 100cff70     TkswkDlg.obj
 0002:0000cf98       ??_C@_01CAKFMAIO@?$AO@     100cff98     TkswkDlg.obj
 0002:0000cf9c       ??_C@_0CB@ICLINMFK@?$AN?6?$IB?$EA?$IC?$LB?$IC?L?$IOd?$JG?s?$IC?I?$IC?M?$JF?O?$INX?$IC?E?$IC?$KL?$IC?$NM?$IC?$LJ?$IC?q?$IB@ 100cff9c     TkswkDlg.obj
 0002:0000cfc0       ??_C@_0N@MNAPPJBD@?$JDE?$JHv?$JDo?$JI?$FO?$IP?$II?$JH?$JN@ 100cffc0     TkswkDlg.obj
 0002:0000cfd0       ??_C@_0CF@JNOLBLKB@?$IB?$EA?$IKY?$JD?$JG?$ID?$IJ?$IDC?$ID?$JD?$IC?L?$IOd?$JG?s?$IC?p?$IN?m?$IP?$JM?$IC?$LF?$IC?$NM?$IC?$LH?$IC@ 100cffd0     TkswkDlg.obj
 0002:0000cff8       ??_C@_0L@PFLIIAND@?$JD?$PM?$JH?M?$IC?I?$JG?$NP?$IC?i@ 100cfff8     TkswkDlg.obj
 0002:0000d004       ??_C@_0N@CPBJOOJN@?$IJ?H?$JG?Z?$IN?m?$IP?$JM?$CI?$CGK?$CJ@ 100d0004     TkswkDlg.obj
 0002:0000d014       ??_C@_0N@IOOLMLIO@?$IOd?$JG?s?$IN?m?$IP?$JM?$CI?$CGS?$CJ@ 100d0014     TkswkDlg.obj
 0002:0000d024       ??_C@_0CJ@EGGMOCID@?$AN?6?$IB?$EA?$IC?$LB?$IC?L?$IOd?$JG?s?$IC?p?$JC?G?$IJ?A?$IC?$LH?$IC?i?$IC?$LB?$IC?F?$IC?M?$IC?E?$IC@ 100d0024     TkswkDlg.obj
 0002:0000d050       ??_C@_0FJ@GFDJPEDM@?$IB?$EA?$IOw?$JC?h?$IC?$LD?$IC?j?$IC?$LN?$IOd?$JG?s?$AN?6?$AN?6?$IB?$EA?$FL?$IO?X?$JF?$PL?$FN?$IB?$EA?$CF@ 100d0050     TkswkDlg.obj
 0002:0000d0ac       ??_C@_0DN@MEGFFPPI@?$IB?$EA?$JDE?$JHv?$JDo?$JI?$FO?$JF?$JE?$JF?$KK?$IC?p?$JB?$LM?$IC?L?$IOd?$JG?s?$JB?N?$IJ?$JO?$JDE?$JH@ 100d00ac     TkswkDlg.obj
 0002:0000d0ec       ??_C@_0N@OEKFOPCN@?$IDR?$IDs?$IB?$FL?$IC?$LF?$IC?H?$IC?$KC@ 100d00ec     TkswkDlg.obj
 0002:0000d0fc       ??_C@_0P@LMDCLLMG@?$IP?c?$JCi?$IDR?$IDs?$IB?$FL?$CI?$CGU?$CJ@ 100d00fc     TkswkDlg.obj
 0002:0000d10c       ??_C@_0N@JCFOKDMG@?$II?j?$JH?$JH?$JBI?$JB?p?$CI?$CGS?$CJ@ 100d010c     TkswkDlg.obj
 0002:0000d120       ??_7?$CArray@U_SWKCOD_DATA@@AAU1@@@6B@ 100d0120     TkswkDlg.obj
 0002:0000d138       ?_eventsinkEntries@CTkswkDlg@@0QBUAFX_EVENTSINKMAP_ENTRY@@B 100d0138     TkswkDlg.obj
 0002:0000d3b8       ?eventsinkMap@CTkswkDlg@@1UAFX_EVENTSINKMAP@@B 100d03b8     TkswkDlg.obj
 0002:0000d44c       ??_7CTkswkDlg@@6BICSResize@@@ 100d044c     TkswkDlg.obj
 0002:0000d454       ??_7CTkswkDlg@@6BCDialog@@@ 100d0454     TkswkDlg.obj
 0002:0000d610       ??_C@_0L@FIAHMLCM@CTkyEdaDlg@ 100d0610     TkyEdaDlg.obj
 0002:0000d61c       ??_C@_02CFIAHFEI@99@       100d061c     TkyEdaDlg.obj
 0002:0000d620       ??_C@_03HGKGMEGN@999@      100d0620     TkyEdaDlg.obj
 0002:0000d624       ??_C@_04DNPBDGJL@9999@     100d0624     TkyEdaDlg.obj
 0002:0000d62c       ??_C@_05GJGEDGEA@99999@    100d062c     TkyEdaDlg.obj
 0002:0000d634       ??_C@_06HIDBKIBM@999999@   100d0634     TkyEdaDlg.obj
 0002:0000d63c       ??_C@_04ICIIINCI@?$JDE?$JHv@ 100d063c     TkyEdaDlg.obj
 0002:0000d644       ??_C@_0L@DDIDBHAL@?$IB?$EA?$IO?$HN?$JE?T?$JG?$LM?$IP?L@ 100d0644     TkyEdaDlg.obj
 0002:0000d650       ??_C@_06BGAJMMIH@?$IB?$EA?$IDJ?$IDi@ 100d0650     TkyEdaDlg.obj
 0002:0000d658       ??_C@_08HPBKGECE@?$IKJ?$IOn?$IOc?$IN?$IC@ 100d0658     TkyEdaDlg.obj
 0002:0000d664       ??_C@_0BC@DDAKAIPP@S?0SSS?0SSS?0SSS?0SS9@ 100d0664     TkyEdaDlg.obj
 0002:0000d678       ??_C@_06IEJFALHN@?$CI?5?5?5?5?$CJ@ 100d0678     TkyEdaDlg.obj
 0002:0000d680       ??_C@_06BMFAOIJI@?$CI?$CF04d?$CJ@ 100d0680     TkyEdaDlg.obj
 0002:0000d688       ??_C@_0BL@IIPDCFCK@?$IBw?$CF?414s?$CFs?$IBx?5?$JDo?$JI?$FO?$IO?$HN?$JE?T?$ID?$IK?$IDX?$IDg@ 100d0688     TkyEdaDlg.obj
 0002:0000d6a4       ??_C@_0BL@BKMOPNCD@?$IO?$HN?$JE?T?$IC?$KK?$IOw?$JC?h?$IC?$LD?$IC?j?$IC?D?$IC?$KC?$IC?$NM?$IC?$LJ?$IC?q?$IBI@ 100d06a4     TkyEdaDlg.obj
 0002:0000d6c0       ?_eventsinkEntries@CTkyEdaDlg@@0QBUAFX_EVENTSINKMAP_ENTRY@@B 100d06c0     TkyEdaDlg.obj
 0002:0000d7b0       ?eventsinkMap@CTkyEdaDlg@@1UAFX_EVENTSINKMAP@@B 100d07b0     TkyEdaDlg.obj
 0002:0000d7f0       ??_7CTkyEdaDlg@@6BICSResize@@@ 100d07f0     TkyEdaDlg.obj
 0002:0000d7f8       ??_7CTkyEdaDlg@@6BCDialog@@@ 100d07f8     TkyEdaDlg.obj
 0002:0000d990       ?classCTkyEdaDlg@CTkyEdaDlg@@2UCRuntimeClass@@B 100d0990     TkyEdaDlg.obj
 0002:0000d9ac       ??_C@_07CCEINIDH@CTkySel@  100d09ac     TkySel.obj
 0002:0000da64       ??_7CTkySel@@6BICSResize@@@ 100d0a64     TkySel.obj
 0002:0000da6c       ??_7CTkySel@@6BCDialog@@@  100d0a6c     TkySel.obj
 0002:0000dc04       ?classCTkySel@CTkySel@@2UCRuntimeClass@@B 100d0c04     TkySel.obj
 0002:0000dc20       ??_C@_0M@NGHMKGFO@CTkyVer2Dlg@ 100d0c20     TkyVer2Dlg.obj
 0002:0000dc2c       ??_C@_0BB@GFDCKFGK@?$CI?$IN?E?$JB?e?$JBS?$IKp?$CFd?$JF?$LG?$IO?$JK?$CJ@ 100d0c2c     TkyVer2Dlg.obj
 0002:0000dc40       ??_C@_0CL@PPEJPPMP@?$IO?X?$JF?$PL?$IBw?$CF?914?414s?$IBx?$IC?L?$IO?$HN?$JE?T?$IC?p?$IC?$LB?$IC?L?$JDE?$JH@ 100d0c40     TkyVer2Dlg.obj
 0002:0000dc6c       ??_C@_0CJ@MIFALOGK@?$IB?$HM?$IB?$HM?$IB?$HM?$IB?$HM?$IB?$HM?$IB?$HM?$IB?$HM?$IB?$HM?$IB?$HM?$IB?$HM?$IB?$HM?$IB?$HM?$IB?$HM?$IB?$HM?$IB?$HM?$IB@ 100d0c6c     TkyVer2Dlg.obj
 0002:0000dc98       ??_C@_0CL@EGBKGDNH@?$JB?$NN?$JF?$PL?$IBw?$CF?914?414s?$IBx?$IC?L?$IO?$HN?$JE?T?$IC?p?$IC?$LB?$IC?L?$JDE?$JH@ 100d0c98     TkyVer2Dlg.obj
 0002:0000dcc4       ??_C@_0CK@FHOEPKLP@?$IO?X?$JF?$PL?$IBw?$CF?914?414s?$IBx?$IC?L?$IJ?H?$JG?Z?$JB?N?$IJ?$JO?$JDE?$JHv?5@ 100d0cc4     TkyVer2Dlg.obj
 0002:0000dcf0       ??_C@_0CK@GCKMOLMJ@?$JB?$NN?$JF?$PL?$IBw?$CF?914?414s?$IBx?$IC?L?$IJ?H?$JG?Z?$JB?N?$IJ?$JO?$JDE?$JHv?5@ 100d0cf0     TkyVer2Dlg.obj
 0002:0000dd1c       ??_C@_0DD@DGDIAPJG@?$CI?$IOd?$JG?s?$CJ?5?$CF?914?414s?5?$IB?$FO?5?$CF?914?414s?$IB?$EA?$IC?L@ 100d0d1c     TkyVer2Dlg.obj
 0002:0000dd50       ??_C@_0CD@FPAOGNBE@?$CI?$JCP?$JD?F?$CJ?5?$CF?914?414s?$IB?$EA?$IC?L?$JDE?$JHv?5?$IC?I?$JDo?$JI?$FO?$IC@ 100d0d50     TkyVer2Dlg.obj
 0002:0000dd78       ??_C@_0EM@ODEHABCH@?$JD?$KP?$IC?$LG?$JDE?$JHv?$IO?$KL?$IP?$JB?$IBw?$CI?$CF6d?$CJ?5?$CF?440s?$IBx?$IC?$KK?$IK?y@ 100d0d78     TkyVer2Dlg.obj
 0002:0000ddc4       ??_C@_0BP@FLECJFKM@?$JAV?$IC?$LF?$IC?$KN?$JDE?$JHv?$IO?$KL?$IP?$JB?$IC?I?$JDo?$JI?$FO?$IC?$LF?$IC?$NM?$IC?$LH?$IC?$KJ?$IBH@ 100d0dc4     TkyVer2Dlg.obj
 0002:0000dde4       ??_C@_09OMFDCIAB@?$LH?$KM?$NN?$LO?Y?$CI?$CGE?$CJ@ 100d0de4     TkyVer2Dlg.obj
 0002:0000ddf0       ??_C@_0BD@BIBNEHED@?$IK?y?$JB?$LG?$JDE?$JHv?$IC?E?$JDo?$JI?$FO?$CI?$CGK?$CJ@ 100d0df0     TkyVer2Dlg.obj
 0002:0000de04       ??_C@_0BA@LIGOMMFG@?$JAV?5?$ILK?5?$JDo?5?$JI?$FO?$CI?$CGN?$CJ@ 100d0e04     TkyVer2Dlg.obj
 0002:0000de14       ??_C@_08HPBEOLPF@?$IO?$HN?$JE?T?$JA?$NN?$JC?h@ 100d0e14     TkyVer2Dlg.obj
 0002:0000de20       ??_C@_0CF@NDAGJFIJ@?$JA?$NN?$JC?h?$IC?$LH?$IC?i?$JDE?$JHv?$IDR?$IB?$FL?$IDh?$IC?p?$JBI?$IC?q?$IC?E?$IC?$KN?$IC?$LO?$IC@ 100d0e20     TkyVer2Dlg.obj
 0002:0000de48       ??_C@_05LHCBMDAO@?$LH?$KM?$NN?$LO?Y@ 100d0e48     TkyVer2Dlg.obj
 0002:0000de50       ??_C@_0P@EOAOJECL@?$IK?y?$JB?$LG?$JDE?$JHv?$IDR?$IB?$FL?$IDh@ 100d0e50     TkyVer2Dlg.obj
 0002:0000de60       ??_C@_0P@CBJKHKLI@?$JAV?$ILK?$JDE?$JHv?$IDR?$IB?$FL?$IDh@ 100d0e60     TkyVer2Dlg.obj
 0002:0000de70       ??_C@_0CO@ILGGLKHB@?$JD?$KP?$IC?$LG?$JDE?$JHv?$IO?$KL?$IP?$JB?$IBw?$CF?440s?$IBx?$IC?$KK?$IK?y?$IC?I?$JDo?$JI?$FO@ 100d0e70     TkyVer2Dlg.obj
 0002:0000dea0       ??_C@_0FC@FCLFFGBG@?$JD?$KP?$IC?$LG?$JDE?$JHv?$IO?$KL?$IP?$JB?$IBw?$CI?$CF6d?$CJ?5?$CF?440s?$IBx?$IC?$KK?$IK?y@ 100d0ea0     TkyVer2Dlg.obj
 0002:0000def4       ??_C@_0BD@NLOICOHO@?$JDE?$JHv?$IC?$KK?$JG?$KC?$JD?$PM?$JH?M?$IC?E?$IC?$LH?$IBI@ 100d0ef4     TkyVer2Dlg.obj
 0002:0000df08       ??_C@_0CH@HAPGHJND@?$JDo?$JI?$FO?$IC?$LH?$IC?i?$JDE?$JHv?$IN?$IA?$JG?Z?$IC?$KK?$JBI?$JB?p?$IC?$LD?$IC?j?$IC?D?$IC?$KC?$IC@ 100d0f08     TkyVer2Dlg.obj
 0002:0000df30       ??_C@_0EJ@OCKJGIIK@?$IO?$HN?$JE?T?$JA?$NN?$JC?h?$IM?c?$IC?I?$IBA?$JDE?$JHv?$IC?L?$JF?$LG?$IO?$JK?$IC?$KK?$JF?O?$INX?$IC@ 100d0f30     TkyVer2Dlg.obj
 0002:0000df80       ??_C@_0EH@EPMDBBJD@?$JDE?$JHv?$IBw?$CFs?$IBx?$AN?6?$AN?6?$JE?T?$IN?$IG?$FL?$CF6d?$FN?$IC?$KK?$JB?$LM?$IC?E?$JDo@ 100d0f80     TkyVer2Dlg.obj
 0002:0000dfc8       ??_C@_0FH@PDCFKPFB@?$CFs?5?$IBw?$CF?914?414s?$IBx?$IC?L?$IJ?H?$JG?Z?$JB?N?$IJ?$JO?$JDE?$JHv?$IC?I@ 100d0fc8     TkyVer2Dlg.obj
 0002:0000e020       ??_C@_0CN@ICFJKHCP@?$CI?$IOd?$JG?s?$CJ?5?$CF?914?414s?5?$IB?$FO?5?$CF?914?414s?$IB?$EA?$IC?L@ 100d1020     TkyVer2Dlg.obj
 0002:0000e050       ??_C@_0BN@LIGEKJOH@?$CI?$JCP?$JD?F?$CJ?5?$CF?914?414s?$IB?$EA?$IC?L?$JDE?$JHv?5?$IC?I?$AN?6@ 100d1050     TkyVer2Dlg.obj
 0002:0000e070       ??_C@_0DG@PHPDCBPA@?$IOw?$JC?h?$IC?$LD?$IC?j?$IC?$LN?$JDE?$JHv?5?$FL?$CF6d?$FN?5?$CF?440s?5?$IC?M?$IC?$LH@ 100d1070     TkyVer2Dlg.obj
 0002:0000e0a8       ??_C@_0ID@EEFOGDOD@?$CFs?5?$IBw?$CF?914?414s?$IBx?$IC?L?$IO?$HN?$JE?T?$FL?$CFs?$FN?$IC?I?$AN?6?$IOw@ 100d10a8     TkyVer2Dlg.obj
 0002:0000e130       ??_C@_0FG@KBJDPOHI@?$CFs?5?$IBw?$CF?914?414s?$IBx?$IC?L?$IO?$HN?$JE?T?$FL?$CFs?$FN?$IC?I?$AN?6?$IO?$HN@ 100d1130     TkyVer2Dlg.obj
 0002:0000e188       ??_C@_0DG@BJDIGEKH@?$CFs?5?$IBw?$CF?914?414s?$IBx?$IC?I?$AN?6?$JA?$NN?$JC?h?$IJ?B?$JE?2?$IC?H?$IO?$HN@ 100d1188     TkyVer2Dlg.obj
 0002:0000e1c0       ?_eventsinkEntries@CTkyVer2Dlg@@0QBUAFX_EVENTSINKMAP_ENTRY@@B 100d11c0     TkyVer2Dlg.obj
 0002:0000e2d8       ?eventsinkMap@CTkyVer2Dlg@@1UAFX_EVENTSINKMAP@@B 100d12d8     TkyVer2Dlg.obj
 0002:0000e3ac       ??_7CTkyVer2Dlg@@6BICSResize@@@ 100d13ac     TkyVer2Dlg.obj
 0002:0000e3b4       ??_7CTkyVer2Dlg@@6BCDialog@@@ 100d13b4     TkyVer2Dlg.obj
 0002:0000e54c       ?classCTkyVer2Dlg@CTkyVer2Dlg@@2UCRuntimeClass@@B 100d154c     TkyVer2Dlg.obj
 0002:0000e568       __real@3ff0000000000000    100d1568     BaseDlg.obj
 0002:0000e570       __real@3ff028f5c28f5c29    100d1570     ICSTbarDlg.obj
 0002:0000e578       __real@400999999999999a    100d1578     ScanKey.obj
 0002:0000e580       __real@400c000000000000    100d1580     ScanKey.obj
 0002:0000e588       __real@408f400000000000    100d1588     DataZeiCalqSub.obj
 0002:0000e590       __real@bff0000000000000    100d1590     ICSTbarDlg.obj
 0002:0000e598       __real@c000000000000000    100d1598     ScanKey.obj
 0002:0000e5a0       __real@c009826a439f656f    100d15a0     HusenDlg.obj
 0002:0000e5b0       __xmm@00000000000000000000000a00000000 100d15b0     TkswkDlg.obj
 0002:0000e5c0       __xmm@00000000000004d1000004ce00000412 100d15c0     SkbnIn.obj
 0002:0000e5d0       __xmm@00000003000000020000000100000000 100d15d0     NSDenpDlg.obj
 0002:0000e5e0       __xmm@00000009000000080000000700000006 100d15e0     NSDenpDlg.obj
 0002:0000e5f0       __xmm@00000015000000140000000e00000008 100d15f0     DnpBaseClass.obj
 0002:0000e600       __xmm@0000001e0000001f0000001e0000001f 100d1600     DBInpSub.obj
 0002:0000e610       __xmm@0000001f0000001d0000001f0000001f 100d1610     DBInpSub.obj
 0002:0000e620       __xmm@0000001f0000001e0000001f0000001e 100d1620     DBInpSub.obj
 0002:0000e630       __xmm@0000004a0000004a0000004a0000004a 100d1630     NSDenpDlg.obj
 0002:0000e640       __xmm@0000041200000411000003ed000003eb 100d1640     SkbnIn.obj
 0002:0000e650       __xmm@000004ce000004cd000004cb000004ca 100d1650     SkbnIn.obj
 0002:0000e660       __xmm@00001393000004ce000004c700000496 100d1660     TkdicDlg.obj
 0002:0000e670       __xmm@00001393000004ce0000139500001394 100d1670     TkyVer2Dlg.obj
 0002:0000e680       __xmm@00001394000013940000139400001394 100d1680     IndkmkDlg.obj
 0002:0000e690       __xmm@00001396000013a8000013ac000013a4 100d1690     TkyVer2Dlg.obj
 0002:0000e6a0       __xmm@0000139a000013990000139800001397 100d16a0     TkyVer2Dlg.obj
 0002:0000e6b0       __xmm@000013a7000013a9000013a3000013a1 100d16b0     TkyVer2Dlg.obj
 0002:0000e6c0       __xmm@000013ad000013ab000013a1000013a2 100d16c0     TkyVer2Dlg.obj
 0002:0000e6d0       __xmm@000013b1000004d1000004ce00000412 100d16d0     SkbnIn.obj
 0002:0000e6e0       __xmm@00007fc800007fc700007fc000007fbf 100d16e0     DnpInpDialog.obj
 0002:0000e6f0       __xmm@3ff00000000000003ff0000000000000 100d16f0     BaseDlg.obj
 0002:0000e700       __xmm@bff0000000000000bff0000000000000 100d1700     ICSTbarDlg.obj
 0002:0000e810       __tls_used                 100d1810     msvcrt:tlssup.obj
 0002:0000e828       ??_R4type_info@@6B@        100d1828     msvcrt:std_type_info_static.obj
 0002:0000e83c       ??_R3type_info@@8          100d183c     msvcrt:std_type_info_static.obj
 0002:0000e84c       ??_R2type_info@@8          100d184c     msvcrt:std_type_info_static.obj
 0002:0000e854       ??_R1A@?0A@EA@type_info@@8 100d1854     msvcrt:std_type_info_static.obj
 0002:0000e870       ??_R2CBaseDlg@@8           100d1870     BaseDlg.obj
 0002:0000e894       ??_R2ICSDialog@@8          100d1894     BaseDlg.obj
 0002:0000e8b4       ??_R2ICSResizeDialog@@8    100d18b4     BaseDlg.obj
 0002:0000e8d0       ??_R2ICSResize@@8          100d18d0     BaseDlg.obj
 0002:0000e8d8       ??_R1A@?0A@EA@CBaseDlg@@8  100d18d8     BaseDlg.obj
 0002:0000e8f4       ??_R1A@?0A@EA@ICSDialog@@8 100d18f4     BaseDlg.obj
 0002:0000e910       ??_R1KI@?0A@EA@ICSResize@@8 100d1910     BaseDlg.obj
 0002:0000e92c       ??_R2CWnd@@8               100d192c     BaseDlg.obj
 0002:0000e93c       ??_R3CWnd@@8               100d193c     BaseDlg.obj
 0002:0000e94c       ??_R1A@?0A@EA@CWnd@@8      100d194c     BaseDlg.obj
 0002:0000e968       ??_R2CCmdTarget@@8         100d1968     BaseDlg.obj
 0002:0000e974       ??_R3CCmdTarget@@8         100d1974     BaseDlg.obj
 0002:0000e984       ??_R1A@?0A@EA@CCmdTarget@@8 100d1984     BaseDlg.obj
 0002:0000e9a0       ??_R2CObject@@8            100d19a0     BaseDlg.obj
 0002:0000e9a8       ??_R3CObject@@8            100d19a8     BaseDlg.obj
 0002:0000e9b8       ??_R1A@?0A@EA@CObject@@8   100d19b8     BaseDlg.obj
 0002:0000e9d4       ??_R2CDialog@@8            100d19d4     BaseDlg.obj
 0002:0000e9e8       ??_R3CDialog@@8            100d19e8     BaseDlg.obj
 0002:0000e9f8       ??_R1A@?0A@EA@CDialog@@8   100d19f8     BaseDlg.obj
 0002:0000ea14       ??_R1A@?0A@EA@ICSResizeDialog@@8 100d1a14     BaseDlg.obj
 0002:0000ea30       ??_R1A@?0A@EA@ICSResize@@8 100d1a30     BaseDlg.obj
 0002:0000ea4c       ??_R3ICSDialog@@8          100d1a4c     BaseDlg.obj
 0002:0000ea5c       ??_R3ICSResizeDialog@@8    100d1a5c     BaseDlg.obj
 0002:0000ea6c       ??_R3ICSResize@@8          100d1a6c     BaseDlg.obj
 0002:0000ea7c       ??_R3CBaseDlg@@8           100d1a7c     BaseDlg.obj
 0002:0000ea8c       ??_R2?$CArray@U_KOJI_CHK@@AAU1@@@8 100d1a8c     BmnChk.obj
 0002:0000ea98       ??_R2?$CArray@U_BMN_CHK@@AAU1@@@8 100d1a98     BmnChk.obj
 0002:0000eaa4       ??_R2CKojiDataCheck@@8     100d1aa4     BmnChk.obj
 0002:0000eaac       ??_R2CKojiChkSub@@8        100d1aac     BmnChk.obj
 0002:0000eab4       ??_R2CBmnHaniCheck@@8      100d1ab4     BmnChk.obj
 0002:0000eabc       ??_R2CBmnChkSub@@8         100d1abc     BmnChk.obj
 0002:0000eac4       ??_R1A@?0A@EA@?$CArray@U_KOJI_CHK@@AAU1@@@8 100d1ac4     BmnChk.obj
 0002:0000eae0       ??_R1A@?0A@EA@?$CArray@U_BMN_CHK@@AAU1@@@8 100d1ae0     BmnChk.obj
 0002:0000eafc       ??_R1A@?0A@EA@CKojiDataCheck@@8 100d1afc     BmnChk.obj
 0002:0000eb18       ??_R1A@?0A@EA@CKojiChkSub@@8 100d1b18     BmnChk.obj
 0002:0000eb34       ??_R1A@?0A@EA@CBmnHaniCheck@@8 100d1b34     BmnChk.obj
 0002:0000eb50       ??_R1A@?0A@EA@CBmnChkSub@@8 100d1b50     BmnChk.obj
 0002:0000eb6c       ??_R3?$CArray@U_KOJI_CHK@@AAU1@@@8 100d1b6c     BmnChk.obj
 0002:0000eb7c       ??_R3?$CArray@U_BMN_CHK@@AAU1@@@8 100d1b7c     BmnChk.obj
 0002:0000eb8c       ??_R3CKojiDataCheck@@8     100d1b8c     BmnChk.obj
 0002:0000eb9c       ??_R3CKojiChkSub@@8        100d1b9c     BmnChk.obj
 0002:0000ebac       ??_R3CBmnHaniCheck@@8      100d1bac     BmnChk.obj
 0002:0000ebbc       ??_R3CBmnChkSub@@8         100d1bbc     BmnChk.obj
 0002:0000ebcc       ??_R4?$CArray@U_KOJI_CHK@@AAU1@@@6B@ 100d1bcc     BmnChk.obj
 0002:0000ebe0       ??_R4?$CArray@U_BMN_CHK@@AAU1@@@6B@ 100d1be0     BmnChk.obj
 0002:0000ebf4       ??_R4CKojiDataCheck@@6B@   100d1bf4     BmnChk.obj
 0002:0000ec08       ??_R4CKojiChkSub@@6B@      100d1c08     BmnChk.obj
 0002:0000ec1c       ??_R4CBmnHaniCheck@@6B@    100d1c1c     BmnChk.obj
 0002:0000ec30       ??_R4CBmnChkSub@@6B@       100d1c30     BmnChk.obj
 0002:0000ec44       ??_R2CBrnTkySub@@8         100d1c44     BrnTky.obj
 0002:0000ec4c       ??_R1A@?0A@EA@CBrnTkySub@@8 100d1c4c     BrnTky.obj
 0002:0000ec68       ??_R3CBrnTkySub@@8         100d1c68     BrnTky.obj
 0002:0000ec78       ??_R4CBrnTkySub@@6B@       100d1c78     BrnTky.obj
 0002:0000ec8c       ??_R1A@?0A@EA@CBrnTky@@8   100d1c8c     BrnTky.obj
 0002:0000eca8       ??_R2CBrnTky@@8            100d1ca8     BrnTky.obj
 0002:0000ecb0       ??_R3CBrnTky@@8            100d1cb0     BrnTky.obj
 0002:0000ecc0       ??_R4CBrnTky@@6B@          100d1cc0     BrnTky.obj
 0002:0000ecd4       ??_R2CSkbnLiteDlg@@8       100d1cd4     CSkbnLiteDlg.obj
 0002:0000ecf8       ??_R2CICSDBEDT@@8          100d1cf8     CSkbnLiteDlg.obj
 0002:0000ed0c       ??_R2CICSSel@@8            100d1d0c     CSkbnLiteDlg.obj
 0002:0000ed20       ??_R1A@?0A@EA@CSkbnLiteDlg@@8 100d1d20     CSkbnLiteDlg.obj
 0002:0000ed3c       ??_R1A@?0A@EA@CICSDBEDT@@8 100d1d3c     CSkbnLiteDlg.obj
 0002:0000ed58       ??_R1A@?0A@EA@CICSSel@@8   100d1d58     CSkbnLiteDlg.obj
 0002:0000ed74       ??_R3CSkbnLiteDlg@@8       100d1d74     CSkbnLiteDlg.obj
 0002:0000ed84       ??_R3CICSDBEDT@@8          100d1d84     CSkbnLiteDlg.obj
 0002:0000ed94       ??_R3CICSSel@@8            100d1d94     CSkbnLiteDlg.obj
 0002:0000eda4       ??_R4CSkbnLiteDlg@@6BICSResize@@@ 100d1da4     CSkbnLiteDlg.obj
 0002:0000edb8       ??_R4CSkbnLiteDlg@@6BCDialog@@@ 100d1db8     CSkbnLiteDlg.obj
 0002:0000edcc       ??_R4CICSDBEDT@@6B@        100d1dcc     CSkbnLiteDlg.obj
 0002:0000ede0       ??_R4CICSSel@@6B@          100d1de0     CSkbnLiteDlg.obj
 0002:0000edf4       ??_R1A@?0A@EA@CButton@@8   100d1df4     CSkbnLiteDlg.obj
 0002:0000ee10       ??_R2CButton@@8            100d1e10     CSkbnLiteDlg.obj
 0002:0000ee24       ??_R3CButton@@8            100d1e24     CSkbnLiteDlg.obj
 0002:0000ee34       ??_R4CButton@@6B@          100d1e34     CSkbnLiteDlg.obj
 0002:0000ee48       ??_R4CGdiObject@@6B@       100d1e48     CSkbnLiteDlg.obj
 0002:0000ee5c       ??_R1A@?0A@EA@CBrush@@8    100d1e5c     CSkbnLiteDlg.obj
 0002:0000ee78       ??_R2CGdiObject@@8         100d1e78     CSkbnLiteDlg.obj
 0002:0000ee84       ??_R3CGdiObject@@8         100d1e84     CSkbnLiteDlg.obj
 0002:0000ee94       ??_R1A@?0A@EA@CGdiObject@@8 100d1e94     CSkbnLiteDlg.obj
 0002:0000eeb0       ??_R2CBrush@@8             100d1eb0     CSkbnLiteDlg.obj
 0002:0000eec0       ??_R3CBrush@@8             100d1ec0     CSkbnLiteDlg.obj
 0002:0000eed0       ??_R4CBrush@@6B@           100d1ed0     CSkbnLiteDlg.obj
 0002:0000eee4       ??_R2CStRecordSet@@8       100d1ee4     CStRecordSet.obj
 0002:0000eef4       ??_R2CRecordset@@8         100d1ef4     CStRecordSet.obj
 0002:0000ef00       ??_R1A@?0A@EA@CStRecordSet@@8 100d1f00     CStRecordSet.obj
 0002:0000ef1c       ??_R1A@?0A@EA@CRecordset@@8 100d1f1c     CStRecordSet.obj
 0002:0000ef38       ??_R3CRecordset@@8         100d1f38     CStRecordSet.obj
 0002:0000ef48       ??_R3CStRecordSet@@8       100d1f48     CStRecordSet.obj
 0002:0000ef58       ??_R4CStRecordSet@@6B@     100d1f58     CStRecordSet.obj
 0002:0000ef6c       ??_R2ICSReportRecordItemText@@8 100d1f6c     CTkyDelRepoDlg.obj
 0002:0000ef80       ??_R2ICSReportRecordItem@@8 100d1f80     CTkyDelRepoDlg.obj
 0002:0000ef90       ??_R2ICSReportRecord@@8    100d1f90     CTkyDelRepoDlg.obj
 0002:0000efa0       ??_R2ICSReportColumn@@8    100d1fa0     CTkyDelRepoDlg.obj
 0002:0000efb0       ??_R1A@?0A@EA@ICSReportRecordItemText@@8 100d1fb0     CTkyDelRepoDlg.obj
 0002:0000efcc       ??_R1A@?0A@EA@ICSReportRecordItem@@8 100d1fcc     CTkyDelRepoDlg.obj
 0002:0000efe8       ??_R1A@?0A@EA@ICSReportRecord@@8 100d1fe8     CTkyDelRepoDlg.obj
 0002:0000f004       ??_R1A@?0A@EA@ICSReportColumn@@8 100d2004     CTkyDelRepoDlg.obj
 0002:0000f020       ??_R3ICSReportRecordItem@@8 100d2020     CTkyDelRepoDlg.obj
 0002:0000f030       ??_R3ICSReportRecordItemText@@8 100d2030     CTkyDelRepoDlg.obj
 0002:0000f040       ??_R3ICSReportRecord@@8    100d2040     CTkyDelRepoDlg.obj
 0002:0000f050       ??_R3ICSReportColumn@@8    100d2050     CTkyDelRepoDlg.obj
 0002:0000f060       ??_R4ICSReportRecordItemText@@6B@ 100d2060     CTkyDelRepoDlg.obj
 0002:0000f074       ??_R4ICSReportRecord@@6B@  100d2074     CTkyDelRepoDlg.obj
 0002:0000f088       ??_R4ICSReportColumn@@6B@  100d2088     CTkyDelRepoDlg.obj
 0002:0000f09c       ??_R2CSWKDSubW@@8          100d209c     CSWKDataSub.obj
 0002:0000f0a8       ??_R2CDInputSub@@8         100d20a8     CSWKDataSub.obj
 0002:0000f0b0       ??_R1A@?0A@EA@CSWKDSubW@@8 100d20b0     CSWKDataSub.obj
 0002:0000f0cc       ??_R1A@?0A@EA@CDInputSub@@8 100d20cc     CSWKDataSub.obj
 0002:0000f0e8       ??_R3CDInputSub@@8         100d20e8     CSWKDataSub.obj
 0002:0000f0f8       ??_R3CSWKDSubW@@8          100d20f8     CSWKDataSub.obj
 0002:0000f108       ??_R4CSWKDSubW@@6B@        100d2108     CSWKDataSub.obj
 0002:0000f11c       ??_R1A@?0A@EA@CSWKDataSub@@8 100d211c     CSWKDataSub.obj
 0002:0000f138       ??_R2CSWKDataSub@@8        100d2138     CSWKDataSub.obj
 0002:0000f140       ??_R3CSWKDataSub@@8        100d2140     CSWKDataSub.obj
 0002:0000f150       ??_R4CSWKDataSub@@6B@      100d2150     CSWKDataSub.obj
 0002:0000f164       ??_R2?$CMap@KKPAUInKNREC@@PAU1@@@8 100d2164     DataZeiCalqSub.obj
 0002:0000f170       ??_R2CDataZeiCalqSub@@8    100d2170     DataZeiCalqSub.obj
 0002:0000f178       ??_R1A@?0A@EA@?$CMap@KKPAUInKNREC@@PAU1@@@8 100d2178     DataZeiCalqSub.obj
 0002:0000f194       ??_R1A@?0A@EA@CDataZeiCalqSub@@8 100d2194     DataZeiCalqSub.obj
 0002:0000f1b0       ??_R3?$CMap@KKPAUInKNREC@@PAU1@@@8 100d21b0     DataZeiCalqSub.obj
 0002:0000f1c0       ??_R3CDataZeiCalqSub@@8    100d21c0     DataZeiCalqSub.obj
 0002:0000f1d0       ??_R4?$CMap@KKPAUInKNREC@@PAU1@@@6B@ 100d21d0     DataZeiCalqSub.obj
 0002:0000f1e4       ??_R4CDataZeiCalqSub@@6B@  100d21e4     DataZeiCalqSub.obj
 0002:0000f1f8       ??_R1A@?0A@EA@CDataZeiCalq@@8 100d21f8     DataZeiCalqSub.obj
 0002:0000f214       ??_R2CDataZeiCalq@@8       100d2214     DataZeiCalqSub.obj
 0002:0000f21c       ??_R3CDataZeiCalq@@8       100d221c     DataZeiCalqSub.obj
 0002:0000f22c       ??_R4CDataZeiCalq@@6B@     100d222c     DataZeiCalqSub.obj
 0002:0000f240       ??_R1A@?0A@EA@CFont@@8     100d2240     DBInpSub.obj
 0002:0000f25c       ??_R2CFont@@8              100d225c     DBInpSub.obj
 0002:0000f26c       ??_R3CFont@@8              100d226c     DBInpSub.obj
 0002:0000f27c       ??_R4CFont@@6B@            100d227c     DBInpSub.obj
 0002:0000f290       ??_R2?$CArray@Utag_IcnoInfo@@AAU1@@@8 100d2290     DenpScan.obj
 0002:0000f29c       ??_R2?$CArray@Utag_SheetTable@@AAU1@@@8 100d229c     DenpScan.obj
 0002:0000f2a8       ??_R2CDenpScan@@8          100d22a8     DenpScan.obj
 0002:0000f2b0       ??_R1A@?0A@EA@?$CArray@Utag_IcnoInfo@@AAU1@@@8 100d22b0     DenpScan.obj
 0002:0000f2cc       ??_R1A@?0A@EA@?$CArray@Utag_SheetTable@@AAU1@@@8 100d22cc     DenpScan.obj
 0002:0000f2e8       ??_R1A@?0A@EA@CDenpScan@@8 100d22e8     DenpScan.obj
 0002:0000f304       ??_R3?$CArray@Utag_IcnoInfo@@AAU1@@@8 100d2304     DenpScan.obj
 0002:0000f314       ??_R3?$CArray@Utag_SheetTable@@AAU1@@@8 100d2314     DenpScan.obj
 0002:0000f324       ??_R3CDenpScan@@8          100d2324     DenpScan.obj
 0002:0000f334       ??_R4?$CArray@Utag_IcnoInfo@@AAU1@@@6B@ 100d2334     DenpScan.obj
 0002:0000f348       ??_R4?$CArray@Utag_SheetTable@@AAU1@@@6B@ 100d2348     DenpScan.obj
 0002:0000f35c       ??_R4CDenpScan@@6B@        100d235c     DenpScan.obj
 0002:0000f370       ??_R1A@?0A@EA@CDinpINI@@8  100d2370     DinpINI.obj
 0002:0000f38c       ??_R2CDinpINI@@8           100d238c     DinpINI.obj
 0002:0000f394       ??_R3CDinpINI@@8           100d2394     DinpINI.obj
 0002:0000f3a4       ??_R4CDinpINI@@6B@         100d23a4     DinpINI.obj
 0002:0000f3b8       ??_R2jcMasterXmlArray@@8   100d23b8     DInputSub.obj
 0002:0000f3c8       ??_R2?$CArray@VjcMasterXml@@V1@@@8 100d23c8     DInputSub.obj
 0002:0000f3d4       ??_R2CZIM_TkjourUtil@@8    100d23d4     DInputSub.obj
 0002:0000f3dc       ??_R1A@?0A@EA@jcMasterXmlArray@@8 100d23dc     DInputSub.obj
 0002:0000f3f8       ??_R1A@?0A@EA@?$CArray@VjcMasterXml@@V1@@@8 100d23f8     DInputSub.obj
 0002:0000f414       ??_R1A@?0A@EA@CZIM_TkjourUtil@@8 100d2414     DInputSub.obj
 0002:0000f430       ??_R3?$CArray@VjcMasterXml@@V1@@@8 100d2430     DInputSub.obj
 0002:0000f440       ??_R3jcMasterXmlArray@@8   100d2440     DInputSub.obj
 0002:0000f450       ??_R3CZIM_TkjourUtil@@8    100d2450     DInputSub.obj
 0002:0000f460       ??_R4?$CArray@VjcMasterXml@@V1@@@6B@ 100d2460     DInputSub.obj
 0002:0000f474       ??_R4jcMasterXmlArray@@6B@ 100d2474     DInputSub.obj
 0002:0000f488       ??_R4CDInputSub@@6B@       100d2488     DInputSub.obj
 0002:0000f49c       ??_R4CZIM_TkjourUtil@@6B@  100d249c     DInputSub.obj
 0002:0000f4b0       ??_R2CDlgToolBar@@8        100d24b0     DlgToolBar.obj
 0002:0000f4cc       ??_R2CControlBar@@8        100d24cc     DlgToolBar.obj
 0002:0000f4e0       ??_R3CControlBar@@8        100d24e0     DlgToolBar.obj
 0002:0000f4f0       ??_R1A@?0A@EA@CControlBar@@8 100d24f0     DlgToolBar.obj
 0002:0000f50c       ??_R2CToolBar@@8           100d250c     DlgToolBar.obj
 0002:0000f524       ??_R3CToolBar@@8           100d2524     DlgToolBar.obj
 0002:0000f534       ??_R1A@?0A@EA@CToolBar@@8  100d2534     DlgToolBar.obj
 0002:0000f550       ??_R1A@?0A@EA@CDlgToolBar@@8 100d2550     DlgToolBar.obj
 0002:0000f56c       ??_R3CDlgToolBar@@8        100d256c     DlgToolBar.obj
 0002:0000f57c       ??_R4CDlgToolBar@@6B@      100d257c     DlgToolBar.obj
 0002:0000f590       ??_R2?$CArray@VCDBINPDataRec@@AAV1@@@8 100d2590     DnpBaseClass.obj
 0002:0000f5b4       ??_R2CDnpBaseClass@@8      100d25b4     DnpBaseClass.obj
 0002:0000f5bc       ??_R2?$CArray@U_ICS_TKJOUR_PAC_@@AAU1@@@8 100d25bc     DnpBaseClass.obj
 0002:0000f5c8       ??_R1A@?0A@EA@?$CArray@VCDBINPDataRec@@AAV1@@@8 100d25c8     DnpBaseClass.obj
 0002:0000f61c       ??_R1A@?0A@EA@CDnpBaseClass@@8 100d261c     DnpBaseClass.obj
 0002:0000f638       ??_R1A@?0A@EA@?$CArray@U_ICS_TKJOUR_PAC_@@AAU1@@@8 100d2638     DnpBaseClass.obj
 0002:0000f654       ??_R3?$CArray@VCDBINPDataRec@@AAV1@@@8 100d2654     DnpBaseClass.obj
 0002:0000f684       ??_R3CDnpBaseClass@@8      100d2684     DnpBaseClass.obj
 0002:0000f694       ??_R3?$CArray@U_ICS_TKJOUR_PAC_@@AAU1@@@8 100d2694     DnpBaseClass.obj
 0002:0000f6a4       ??_R4?$CArray@VCDBINPDataRec@@AAV1@@@6B@ 100d26a4     DnpBaseClass.obj
 0002:0000f6e0       ??_R4CDnpBaseClass@@6B@    100d26e0     DnpBaseClass.obj
 0002:0000f6f4       ??_R4?$CArray@U_ICS_TKJOUR_PAC_@@AAU1@@@6B@ 100d26f4     DnpBaseClass.obj
 0002:0000f708       ??_R1A@?0A@EA@CPen@@8      100d2708     DnpBaseClass.obj
 0002:0000f724       ??_R2CPen@@8               100d2724     DnpBaseClass.obj
 0002:0000f734       ??_R3CPen@@8               100d2734     DnpBaseClass.obj
 0002:0000f744       ??_R4CPen@@6B@             100d2744     DnpBaseClass.obj
 0002:0000f758       ??_R1A@?0A@EA@CMenu@@8     100d2758     DnpBaseClass.obj
 0002:0000f774       ??_R2CMenu@@8              100d2774     DnpBaseClass.obj
 0002:0000f780       ??_R3CMenu@@8              100d2780     DnpBaseClass.obj
 0002:0000f790       ??_R4CMenu@@6B@            100d2790     DnpBaseClass.obj
 0002:0000f7a4       ??_R2CDnpBaseDlg@@8        100d27a4     DnpBaseDlg.obj
 0002:0000f7c8       ??_R1A@?0A@EA@CDnpBaseDlg@@8 100d27c8     DnpBaseDlg.obj
 0002:0000f7e4       ??_R3CDnpBaseDlg@@8        100d27e4     DnpBaseDlg.obj
 0002:0000f7f4       ??_R4CDnpBaseDlg@@6BICSResize@@@ 100d27f4     DnpBaseDlg.obj
 0002:0000f808       ??_R4CDnpBaseDlg@@6BCDialog@@@ 100d2808     DnpBaseDlg.obj
 0002:0000f81c       ??_R2CDnpInpDialog@@8      100d281c     DnpInpDialog.obj
 0002:0000f840       ??_R1A@?0A@EA@CDnpInpDialog@@8 100d2840     DnpInpDialog.obj
 0002:0000f85c       ??_R3CDnpInpDialog@@8      100d285c     DnpInpDialog.obj
 0002:0000f86c       ??_R4CDnpInpDialog@@6BICSResize@@@ 100d286c     DnpInpDialog.obj
 0002:0000f880       ??_R4CDnpInpDialog@@6BCDialog@@@ 100d2880     DnpInpDialog.obj
 0002:0000f894       ??_R2CEdaRegDlg@@8         100d2894     EdaRegDlg.obj
 0002:0000f8b8       ??_R1A@?0A@EA@CEdaRegDlg@@8 100d28b8     EdaRegDlg.obj
 0002:0000f8d4       ??_R3CEdaRegDlg@@8         100d28d4     EdaRegDlg.obj
 0002:0000f8e4       ??_R4CEdaRegDlg@@6BICSResize@@@ 100d28e4     EdaRegDlg.obj
 0002:0000f8f8       ??_R4CEdaRegDlg@@6BCDialog@@@ 100d28f8     EdaRegDlg.obj
 0002:0000f90c       ??_R1A@?0A@EA@CListBox@@8  100d290c     EdaRegDlg.obj
 0002:0000f928       ??_R2CListBox@@8           100d2928     EdaRegDlg.obj
 0002:0000f93c       ??_R3CListBox@@8           100d293c     EdaRegDlg.obj
 0002:0000f94c       ??_R4CListBox@@6B@         100d294c     EdaRegDlg.obj
 0002:0000f960       ??_R2CForksel@@8           100d2960     Forksel.obj
 0002:0000f984       ??_R1A@?0A@EA@CForksel@@8  100d2984     Forksel.obj
 0002:0000f9a0       ??_R3CForksel@@8           100d29a0     Forksel.obj
 0002:0000f9b0       ??_R4CForksel@@6BICSResize@@@ 100d29b0     Forksel.obj
 0002:0000f9c4       ??_R4CForksel@@6BCDialog@@@ 100d29c4     Forksel.obj
 0002:0000f9d8       ??_R2CFuriDlg@@8           100d29d8     FuriDlg.obj
 0002:0000fa00       ??_R2CIcsdiag8ctrl@@8      100d2a00     FuriDlg.obj
 0002:0000fa14       ??_R2CICSDisp@@8           100d2a14     FuriDlg.obj
 0002:0000fa28       ??_R1A@?0A@EA@CFuriDlg@@8  100d2a28     FuriDlg.obj
 0002:0000fa44       ??_R1A@?0A@EA@CIcsdiag8ctrl@@8 100d2a44     FuriDlg.obj
 0002:0000fa60       ??_R1A@?0A@EA@CICSDisp@@8  100d2a60     FuriDlg.obj
 0002:0000fa7c       ??_R3CFuriDlg@@8           100d2a7c     FuriDlg.obj
 0002:0000fa8c       ??_R3CIcsdiag8ctrl@@8      100d2a8c     FuriDlg.obj
 0002:0000fa9c       ??_R3CICSDisp@@8           100d2a9c     FuriDlg.obj
 0002:0000faac       ??_R4CFuriDlg@@6BICSResize@@@ 100d2aac     FuriDlg.obj
 0002:0000fac0       ??_R4CFuriDlg@@6BCDialog@@@ 100d2ac0     FuriDlg.obj
 0002:0000fad4       ??_R4CIcsdiag8ctrl@@6B@    100d2ad4     FuriDlg.obj
 0002:0000fae8       ??_R4CICSDisp@@6B@         100d2ae8     FuriDlg.obj
 0002:0000fafc       ??_R1A@?0A@EA@CScrollBar@@8 100d2afc     FuriDlg.obj
 0002:0000fb18       ??_R2CScrollBar@@8         100d2b18     FuriDlg.obj
 0002:0000fb2c       ??_R3CScrollBar@@8         100d2b2c     FuriDlg.obj
 0002:0000fb3c       ??_R4CScrollBar@@6B@       100d2b3c     FuriDlg.obj
 0002:0000fb50       ??_R2CHjiyuDlg@@8          100d2b50     HjiyuDlg.obj
 0002:0000fb74       ??_R1A@?0A@EA@CHjiyuDlg@@8 100d2b74     HjiyuDlg.obj
 0002:0000fb90       ??_R3CHjiyuDlg@@8          100d2b90     HjiyuDlg.obj
 0002:0000fba0       ??_R4CHjiyuDlg@@6BICSResize@@@ 100d2ba0     HjiyuDlg.obj
 0002:0000fbb4       ??_R4CHjiyuDlg@@6BCDialog@@@ 100d2bb4     HjiyuDlg.obj
 0002:0000fbc8       ??_R1A@?0A@EA@CHjiyuInp@@8 100d2bc8     HjiyuInp.obj
 0002:0000fbe4       ??_R2CHjiyuInp@@8          100d2be4     HjiyuInp.obj
 0002:0000fbec       ??_R3CHjiyuInp@@8          100d2bec     HjiyuInp.obj
 0002:0000fbfc       ??_R4CHjiyuInp@@6B@        100d2bfc     HjiyuInp.obj
 0002:0000fc10       ??_R2CHusenComboEX@@8      100d2c10     HusenCombo.obj
 0002:0000fc28       ??_R2CHusenCombo@@8        100d2c28     HusenCombo.obj
 0002:0000fc40       ??_R1A@?0A@EA@CHusenComboEX@@8 100d2c40     HusenCombo.obj
 0002:0000fc5c       ??_R1A@?0A@EA@CHusenCombo@@8 100d2c5c     HusenCombo.obj
 0002:0000fc78       ??_R3CHusenComboEX@@8      100d2c78     HusenCombo.obj
 0002:0000fc88       ??_R3CHusenCombo@@8        100d2c88     HusenCombo.obj
 0002:0000fc98       ??_R4CHusenComboEX@@6B@    100d2c98     HusenCombo.obj
 0002:0000fcac       ??_R4CHusenCombo@@6B@      100d2cac     HusenCombo.obj
 0002:0000fcc0       ??_R1A@?0A@EA@CComboBox@@8 100d2cc0     HusenCombo.obj
 0002:0000fcdc       ??_R2CComboBox@@8          100d2cdc     HusenCombo.obj
 0002:0000fcf0       ??_R3CComboBox@@8          100d2cf0     HusenCombo.obj
 0002:0000fd00       ??_R4CComboBox@@6B@        100d2d00     HusenCombo.obj
 0002:0000fd14       ??_R2CHusenDlg@@8          100d2d14     HusenDlg.obj
 0002:0000fd38       ??_R1A@?0A@EA@CHusenDlg@@8 100d2d38     HusenDlg.obj
 0002:0000fd54       ??_R3CHusenDlg@@8          100d2d54     HusenDlg.obj
 0002:0000fd64       ??_R4CHusenDlg@@6BICSResize@@@ 100d2d64     HusenDlg.obj
 0002:0000fd78       ??_R4CHusenDlg@@6BCDialog@@@ 100d2d78     HusenDlg.obj
 0002:0000fd8c       ??_R1A@?0A@EA@CHusenInp@@8 100d2d8c     HusenInp.obj
 0002:0000fda8       ??_R2CHusenInp@@8          100d2da8     HusenInp.obj
 0002:0000fdb0       ??_R3CHusenInp@@8          100d2db0     HusenInp.obj
 0002:0000fdc0       ??_R4CHusenInp@@6B@        100d2dc0     HusenInp.obj
 0002:0000fdd4       ??_R2CHusenStatic@@8       100d2dd4     HusenStatic.obj
 0002:0000fdf8       ??_R2ICSStatic@@8          100d2df8     HusenStatic.obj
 0002:0000fe18       ??_R2CXTCaption@@8         100d2e18     HusenStatic.obj
 0002:0000fe34       ??_R2CXTThemeManagerStyleHost@@8 100d2e34     HusenStatic.obj
 0002:0000fe3c       ??_R1A@?0A@EA@CHusenStatic@@8 100d2e3c     HusenStatic.obj
 0002:0000fe58       ??_R1A@?0A@EA@ICSStatic@@8 100d2e58     HusenStatic.obj
 0002:0000fe74       ??_R1IA@?0A@EA@CXTThemeManagerStyleHost@@8 100d2e74     HusenStatic.obj
